ARM GAS  C:\Users\Sive\AppData\Local\Temp\ccEzSxeO.s 			page 1


   1              		.cpu cortex-m4
   2              		.arch armv7e-m
   3              		.fpu fpv4-sp-d16
   4              		.eabi_attribute 27, 1
   5              		.eabi_attribute 28, 1
   6              		.eabi_attribute 20, 1
   7              		.eabi_attribute 21, 1
   8              		.eabi_attribute 23, 3
   9              		.eabi_attribute 24, 1
  10              		.eabi_attribute 25, 1
  11              		.eabi_attribute 26, 1
  12              		.eabi_attribute 30, 1
  13              		.eabi_attribute 34, 1
  14              		.eabi_attribute 18, 4
  15              		.file	"chassis.c"
  16              		.text
  17              	.Ltext0:
  18              		.cfi_sections	.debug_frame
  19              		.file 1 "application/chassis/chassis.c"
  20              		.section	.text.MecanumCalculate,"ax",%progbits
  21              		.align	1
  22              		.syntax unified
  23              		.thumb
  24              		.thumb_func
  26              	MecanumCalculate:
  27              	.LFB168:
   1:application/chassis/chassis.c **** #include "chassis.h"
   2:application/chassis/chassis.c **** #include "robot_def.h"
   3:application/chassis/chassis.c **** #include "dji_motor.h"
   4:application/chassis/chassis.c **** #include "general_def.h"
   5:application/chassis/chassis.c **** #include "bsp_dwt.h"
   6:application/chassis/chassis.c **** #include "message_center.h"
   7:application/chassis/chassis.c **** #include "ins_task.h"
   8:application/chassis/chassis.c **** #include "arm_math.h"
   9:application/chassis/chassis.c **** #include "distance.h"
  10:application/chassis/chassis.c **** /* æ ¹æ®robot_def.hä¸­çš„macroè‡ªåŠ¨è®¡ç®—çš„å‚æ•° */
  11:application/chassis/chassis.c **** #define HALF_WHEEL_BASE (WHEEL_BASE / 2.0f)     // åŠè½´è·
  12:application/chassis/chassis.c **** #define HALF_TRACK_WIDTH (TRACK_WIDTH / 2.0f)   // åŠè½®è·
  13:application/chassis/chassis.c **** #define PERIMETER_WHEEL (RADIUS_WHEEL * 2 * PI) // è½®å­å‘¨é•¿
  14:application/chassis/chassis.c **** 
  15:application/chassis/chassis.c **** /* ç§æœ‰å‡½æ•°è®¡ç®—çš„ä¸­ä»‹å˜é‡,è®¾ä¸ºé™æ€é¿å…å‚æ•°ä¼ é€’çš„å¼€é”€ */
  16:application/chassis/chassis.c **** static float chassis_x, chassis_y, chassis_z; // åº•ç›˜çš„ä½ç½®å’Œè§’åº¦
  17:application/chassis/chassis.c **** static float chassis_vx, chassis_vy,chassis_wz;     // è§£ç®—åçš„åº•ç›˜é€Ÿåº¦
  18:application/chassis/chassis.c **** static float vt_lf, vt_rf, vt_lb, vt_rb; // åº•ç›˜é€Ÿåº¦è§£ç®—åçš„ä¸´æ—¶è¾“å‡º,å¾…è¿›è¡Œé™å¹…
  19:application/chassis/chassis.c **** #ifdef ONE_BOARD
  20:application/chassis/chassis.c **** static Publisher_t *chassis_pub;                    // ç”¨äºå‘å¸ƒåº•ç›˜çš„æ•°æ®
  21:application/chassis/chassis.c **** static Subscriber_t *chassis_sub;                   // ç”¨äºè®¢é˜…åº•ç›˜çš„æ§åˆ¶å‘½ä»¤
  22:application/chassis/chassis.c **** #endif                                              // !ONE_BOARD
  23:application/chassis/chassis.c **** static Chassis_Ctrl_Cmd_s chassis_cmd_recv;         // åº•ç›˜æ¥æ”¶åˆ°çš„æ§åˆ¶å‘½ä»¤
  24:application/chassis/chassis.c **** static Chassis_Upload_Data_s chassis_feedback_data; // åº•ç›˜å›ä¼ çš„åé¦ˆæ•°æ®
  25:application/chassis/chassis.c **** static PIDInstance chassis_angle_pid;                     // åº•ç›˜çš„PIDæ§åˆ¶å™¨
  26:application/chassis/chassis.c **** static PIDInstance chassis_distance_pid;                      // åº•ç›˜çš„PIDæ§åˆ¶å™¨
  27:application/chassis/chassis.c **** 
  28:application/chassis/chassis.c **** static DJIMotorInstance *motor_lf, *motor_rf, *motor_lb, *motor_rb; // left right forward back
  29:application/chassis/chassis.c ****  
  30:application/chassis/chassis.c **** void ChassisInit()
  31:application/chassis/chassis.c **** {       
ARM GAS  C:\Users\Sive\AppData\Local\Temp\ccEzSxeO.s 			page 2


  32:application/chassis/chassis.c ****         //åº•ç›˜è·ç¦»ç¯pidåˆå§‹åŒ–ã€
  33:application/chassis/chassis.c ****         chassis_distance_pid.Kp=10;
  34:application/chassis/chassis.c ****         chassis_distance_pid.Ki=0.01  ;
  35:application/chassis/chassis.c ****         chassis_distance_pid.Kd=0;
  36:application/chassis/chassis.c ****         chassis_distance_pid.IntegralLimit = 10000;
  37:application/chassis/chassis.c ****         chassis_distance_pid.MaxOut = 30000;
  38:application/chassis/chassis.c ****         //åº•ç›˜è§’åº¦ç¯pidåˆå§‹åŒ–
  39:application/chassis/chassis.c ****         chassis_angle_pid.Kp=700;
  40:application/chassis/chassis.c ****         chassis_angle_pid.Ki=0  ;   
  41:application/chassis/chassis.c ****         chassis_angle_pid.Kd=4;
  42:application/chassis/chassis.c ****         chassis_angle_pid.IntegralLimit = 10000;
  43:application/chassis/chassis.c ****         chassis_angle_pid.MaxOut = 30000;
  44:application/chassis/chassis.c ****     // å››ä¸ªè½®å­çš„å‚æ•°ä¸€æ ·,æ”¹tx_idå’Œåè½¬æ ‡å¿—ä½å³å¯
  45:application/chassis/chassis.c ****     Motor_Init_Config_s chassis_motor_config = {
  46:application/chassis/chassis.c ****         .can_init_config.can_handle = &hcan1,
  47:application/chassis/chassis.c ****         .controller_param_init_config = {
  48:application/chassis/chassis.c ****             .speed_PID = {
  49:application/chassis/chassis.c ****                 .Kp = 10, // 4.5
  50:application/chassis/chassis.c ****                 .Ki = 0,  // 0
  51:application/chassis/chassis.c ****                 .Kd = 0,  // 0
  52:application/chassis/chassis.c ****                 .IntegralLimit = 3000,
  53:application/chassis/chassis.c ****                 .Improve = PID_Trapezoid_Intergral | PID_Integral_Limit | PID_Derivative_On_Measure
  54:application/chassis/chassis.c ****                 .MaxOut = 12000,
  55:application/chassis/chassis.c ****             },
  56:application/chassis/chassis.c ****             .current_PID = {
  57:application/chassis/chassis.c ****                 .Kp = 0.5, // 0.4
  58:application/chassis/chassis.c ****                 .Ki = 0,   // 0
  59:application/chassis/chassis.c ****                 .Kd = 0,
  60:application/chassis/chassis.c ****                 .IntegralLimit = 3000,
  61:application/chassis/chassis.c ****                 .Improve = PID_Trapezoid_Intergral | PID_Integral_Limit | PID_Derivative_On_Measure
  62:application/chassis/chassis.c ****                 .MaxOut = 15000,
  63:application/chassis/chassis.c ****             },
  64:application/chassis/chassis.c ****         },
  65:application/chassis/chassis.c ****         .controller_setting_init_config = {
  66:application/chassis/chassis.c ****             .angle_feedback_source = MOTOR_FEED,
  67:application/chassis/chassis.c ****             .speed_feedback_source = MOTOR_FEED,
  68:application/chassis/chassis.c ****             .outer_loop_type = SPEED_LOOP,
  69:application/chassis/chassis.c ****             .close_loop_type = SPEED_LOOP | CURRENT_LOOP,
  70:application/chassis/chassis.c ****         },
  71:application/chassis/chassis.c ****         .motor_type = M3508,
  72:application/chassis/chassis.c ****     };
  73:application/chassis/chassis.c ****     //  @todo: å½“å‰è¿˜æ²¡æœ‰è®¾ç½®ç”µæœºçš„æ­£åè½¬,ä»ç„¶éœ€è¦æ‰‹åŠ¨æ·»åŠ referenceçš„æ­£è´Ÿå
  74:application/chassis/chassis.c ****     chassis_motor_config.can_init_config.tx_id = 1;
  75:application/chassis/chassis.c ****     chassis_motor_config.controller_setting_init_config.motor_reverse_flag = MOTOR_DIRECTION_REVERS
  76:application/chassis/chassis.c ****     motor_lf = DJIMotorInit(&chassis_motor_config);
  77:application/chassis/chassis.c **** 
  78:application/chassis/chassis.c ****     chassis_motor_config.can_init_config.tx_id = 2;
  79:application/chassis/chassis.c ****     chassis_motor_config.controller_setting_init_config.motor_reverse_flag = MOTOR_DIRECTION_REVERS
  80:application/chassis/chassis.c ****     motor_rf = DJIMotorInit(&chassis_motor_config);
  81:application/chassis/chassis.c **** 
  82:application/chassis/chassis.c ****     chassis_motor_config.can_init_config.tx_id = 4;
  83:application/chassis/chassis.c ****     chassis_motor_config.controller_setting_init_config.motor_reverse_flag = MOTOR_DIRECTION_REVERS
  84:application/chassis/chassis.c ****     motor_lb = DJIMotorInit(&chassis_motor_config);
  85:application/chassis/chassis.c **** 
  86:application/chassis/chassis.c ****     chassis_motor_config.can_init_config.tx_id = 3;
  87:application/chassis/chassis.c ****     chassis_motor_config.controller_setting_init_config.motor_reverse_flag = MOTOR_DIRECTION_REVERS
  88:application/chassis/chassis.c ****     motor_rb = DJIMotorInit(&chassis_motor_config);
ARM GAS  C:\Users\Sive\AppData\Local\Temp\ccEzSxeO.s 			page 3


  89:application/chassis/chassis.c **** 
  90:application/chassis/chassis.c ****    
  91:application/chassis/chassis.c **** #ifdef CHASSIS_BOARD
  92:application/chassis/chassis.c ****     Chassis_IMU_data = INS_Init(); // åº•ç›˜IMUåˆå§‹åŒ–
  93:application/chassis/chassis.c **** 
  94:application/chassis/chassis.c ****     CANComm_Init_Config_s comm_conf = {
  95:application/chassis/chassis.c ****         .can_config = {
  96:application/chassis/chassis.c ****             .can_handle = &hcan2,
  97:application/chassis/chassis.c ****             .tx_id = 0x311, 
  98:application/chassis/chassis.c ****             .rx_id = 0x312,
  99:application/chassis/chassis.c ****         },
 100:application/chassis/chassis.c ****         .recv_data_len = sizeof(Chassis_Ctrl_Cmd_s),
 101:application/chassis/chassis.c ****         .send_data_len = sizeof(Chassis_Upload_Data_s),
 102:application/chassis/chassis.c ****     };
 103:application/chassis/chassis.c ****     chasiss_can_comm = CANCommInit(&comm_conf); // can commåˆå§‹åŒ–
 104:application/chassis/chassis.c **** #endif                                          // CHASSIS_BOARD
 105:application/chassis/chassis.c **** 
 106:application/chassis/chassis.c **** #ifdef ONE_BOARD // å•æ¿æ§åˆ¶æ•´è½¦,åˆ™é€šè¿‡pubsubæ¥ä¼ é€’æ¶ˆæ¯
 107:application/chassis/chassis.c ****     chassis_sub = SubRegister("chassis_cmd", sizeof(Chassis_Ctrl_Cmd_s));
 108:application/chassis/chassis.c ****     chassis_pub = PubRegister("chassis_feed", sizeof(Chassis_Upload_Data_s));
 109:application/chassis/chassis.c **** #endif // ONE_BOARD
 110:application/chassis/chassis.c **** }
 111:application/chassis/chassis.c **** #define LF_CENTER ((HALF_TRACK_WIDTH + CENTER_GIMBAL_OFFSET_X + HALF_WHEEL_BASE - CENTER_GIMBAL_OFF
 112:application/chassis/chassis.c **** #define RF_CENTER ((HALF_TRACK_WIDTH - CENTER_GIMBAL_OFFSET_X + HALF_WHEEL_BASE - CENTER_GIMBAL_OFF
 113:application/chassis/chassis.c **** #define LB_CENTER ((HALF_TRACK_WIDTH + CENTER_GIMBAL_OFFSET_X + HALF_WHEEL_BASE + CENTER_GIMBAL_OFF
 114:application/chassis/chassis.c **** #define RB_CENTER ((HALF_TRACK_WIDTH - CENTER_GIMBAL_OFFSET_X + HALF_WHEEL_BASE + CENTER_GIMBAL_OFF
 115:application/chassis/chassis.c **** /**
 116:application/chassis/chassis.c ****  * @brief è®¡ç®—æ¯ä¸ªè½®æ¯‚ç”µæœºçš„è¾“å‡º,æ­£è¿åŠ¨å­¦è§£ç®—
 117:application/chassis/chassis.c ****  *        ç”¨å®è¿›è¡Œé¢„æ›¿æ¢å‡å°å¼€é”€,è¿åŠ¨è§£ç®—å…·ä½“è¿‡ç¨‹å‚è€ƒæ•™ç¨‹
 118:application/chassis/chassis.c ****  */
 119:application/chassis/chassis.c **** static void MecanumCalculate()
 120:application/chassis/chassis.c **** {  
  28              		.loc 1 120 1 view -0
  29              		.cfi_startproc
  30              		@ args = 0, pretend = 0, frame = 0
  31              		@ frame_needed = 0, uses_anonymous_args = 0
  32              		@ link register save eliminated.
 121:application/chassis/chassis.c ****     // vt_lf = -chassis_vx - chassis_vy - chassis_cmd_recv.wz * LF_CENTER;
 122:application/chassis/chassis.c ****     // vt_rf = -chassis_vx + chassis_vy - chassis_cmd_recv.wz * RF_CENTER;
 123:application/chassis/chassis.c ****     // vt_lb = chassis_vx - chassis_vy - chassis_cmd_recv.wz * LB_CENTER;
 124:application/chassis/chassis.c ****     // vt_rb = chassis_vx + chassis_vy - chassis_cmd_recv.wz * RB_CENTER;
 125:application/chassis/chassis.c ****     vt_lf = -chassis_vx - chassis_vy - chassis_cmd_recv.wz  ;
  33              		.loc 1 125 5 view .LVU1
  34              		.loc 1 125 13 is_stmt 0 view .LVU2
  35 0000 134B     		ldr	r3, .L2
  36 0002 D3ED007A 		vldr.32	s15, [r3]
  37 0006 B1EE677A 		vneg.f32	s14, s15
  38              		.loc 1 125 25 view .LVU3
  39 000a 124B     		ldr	r3, .L2+4
  40 000c 93ED006A 		vldr.32	s12, [r3]
  41 0010 37EE467A 		vsub.f32	s14, s14, s12
  42              		.loc 1 125 56 view .LVU4
  43 0014 104B     		ldr	r3, .L2+8
  44 0016 D3ED026A 		vldr.32	s13, [r3, #8]
  45              		.loc 1 125 38 view .LVU5
  46 001a 37EE667A 		vsub.f32	s14, s14, s13
  47              		.loc 1 125 11 view .LVU6
ARM GAS  C:\Users\Sive\AppData\Local\Temp\ccEzSxeO.s 			page 4


  48 001e 0F4B     		ldr	r3, .L2+12
  49 0020 83ED007A 		vstr.32	s14, [r3]
 126:application/chassis/chassis.c ****     vt_rf = -chassis_vx + chassis_vy - chassis_cmd_recv.wz ;
  50              		.loc 1 126 5 is_stmt 1 view .LVU7
  51              		.loc 1 126 25 is_stmt 0 view .LVU8
  52 0024 36EE677A 		vsub.f32	s14, s12, s15
  53              		.loc 1 126 38 view .LVU9
  54 0028 37EE667A 		vsub.f32	s14, s14, s13
  55              		.loc 1 126 11 view .LVU10
  56 002c 0C4B     		ldr	r3, .L2+16
  57 002e 83ED007A 		vstr.32	s14, [r3]
 127:application/chassis/chassis.c ****     vt_lb = chassis_vx - chassis_vy - chassis_cmd_recv.wz  ;
  58              		.loc 1 127 5 is_stmt 1 view .LVU11
  59              		.loc 1 127 24 is_stmt 0 view .LVU12
  60 0032 37EEC67A 		vsub.f32	s14, s15, s12
  61              		.loc 1 127 37 view .LVU13
  62 0036 37EE667A 		vsub.f32	s14, s14, s13
  63              		.loc 1 127 11 view .LVU14
  64 003a 0A4B     		ldr	r3, .L2+20
  65 003c 83ED007A 		vstr.32	s14, [r3]
 128:application/chassis/chassis.c ****     vt_rb = chassis_vx + chassis_vy - chassis_cmd_recv.wz ;
  66              		.loc 1 128 5 is_stmt 1 view .LVU15
  67              		.loc 1 128 24 is_stmt 0 view .LVU16
  68 0040 77EE867A 		vadd.f32	s15, s15, s12
  69              		.loc 1 128 37 view .LVU17
  70 0044 77EEE67A 		vsub.f32	s15, s15, s13
  71              		.loc 1 128 11 view .LVU18
  72 0048 074B     		ldr	r3, .L2+24
  73 004a C3ED007A 		vstr.32	s15, [r3]
 129:application/chassis/chassis.c **** }
  74              		.loc 1 129 1 view .LVU19
  75 004e 7047     		bx	lr
  76              	.L3:
  77              		.align	2
  78              	.L2:
  79 0050 00000000 		.word	chassis_vx
  80 0054 00000000 		.word	chassis_vy
  81 0058 00000000 		.word	chassis_cmd_recv
  82 005c 00000000 		.word	vt_lf
  83 0060 00000000 		.word	vt_rf
  84 0064 00000000 		.word	vt_lb
  85 0068 00000000 		.word	vt_rb
  86              		.cfi_endproc
  87              	.LFE168:
  89              		.section	.text.EstimateChassisAngle,"ax",%progbits
  90              		.align	1
  91              		.syntax unified
  92              		.thumb
  93              		.thumb_func
  95              	EstimateChassisAngle:
  96              	.LVL0:
  97              	.LFB171:
 130:application/chassis/chassis.c **** 
 131:application/chassis/chassis.c **** /**
 132:application/chassis/chassis.c ****  * @brief æ ¹æ®è£åˆ¤ç³»ç»Ÿå’Œç”µå®¹å‰©ä½™å®¹é‡å¯¹è¾“å‡ºè¿›è¡Œé™åˆ¶å¹¶è®¾ç½®ç”µæœºå‚è€ƒå€¼
 133:application/chassis/chassis.c ****  *
 134:application/chassis/chassis.c ****  */
ARM GAS  C:\Users\Sive\AppData\Local\Temp\ccEzSxeO.s 			page 5


 135:application/chassis/chassis.c **** static void LimitChassisOutput()
 136:application/chassis/chassis.c **** {
 137:application/chassis/chassis.c ****     // åŠŸç‡é™åˆ¶å¾…æ·»åŠ 
 138:application/chassis/chassis.c ****     // referee_data->PowerHeatData.chassis_power;
 139:application/chassis/chassis.c ****     // referee_data->PowerHeatData.chassis_power_buffer;
 140:application/chassis/chassis.c **** 
 141:application/chassis/chassis.c ****     // å®ŒæˆåŠŸç‡é™åˆ¶åè¿›è¡Œç”µæœºå‚è€ƒè¾“å…¥è®¾å®š
 142:application/chassis/chassis.c ****     DJIMotorSetRef(motor_lf, vt_lf);
 143:application/chassis/chassis.c ****     DJIMotorSetRef(motor_rf, vt_rf);
 144:application/chassis/chassis.c ****     DJIMotorSetRef(motor_lb, vt_lb);
 145:application/chassis/chassis.c ****     DJIMotorSetRef(motor_rb, vt_rb);
 146:application/chassis/chassis.c **** }
 147:application/chassis/chassis.c **** 
 148:application/chassis/chassis.c **** 
 149:application/chassis/chassis.c **** /**
 150:application/chassis/chassis.c ****  * @brief å¯¹æ§åˆ¶çš„åº•ç›˜è·ç¦»è¿›è¡Œè§£ç®—
 151:application/chassis/chassis.c ****  *          
 152:application/chassis/chassis.c ****  *
 153:application/chassis/chassis.c ****  */
 154:application/chassis/chassis.c **** 
 155:application/chassis/chassis.c **** static void EstimateChassisDistance(PIDInstance *chassis_distance_pid,float distance_measure,float 
 156:application/chassis/chassis.c ****         chassis_cmd_recv.vy= -1*PIDCalculate(chassis_distance_pid, distance_measure, distance_ref);
 157:application/chassis/chassis.c **** }
 158:application/chassis/chassis.c **** 
 159:application/chassis/chassis.c **** 
 160:application/chassis/chassis.c **** /**
 161:application/chassis/chassis.c ****  * @brief å¯¹æ§åˆ¶çš„åº•ç›˜è§’åº¦è¿›è¡Œè§£ç®—
 162:application/chassis/chassis.c ****  *          
 163:application/chassis/chassis.c ****  *
 164:application/chassis/chassis.c ****  */
 165:application/chassis/chassis.c **** 
 166:application/chassis/chassis.c **** static void EstimateChassisAngle(PIDInstance *chassis_angle_pid,float angle_measure,float angle_ref
  98              		.loc 1 166 101 is_stmt 1 view -0
  99              		.cfi_startproc
 100              		@ args = 0, pretend = 0, frame = 0
 101              		@ frame_needed = 0, uses_anonymous_args = 0
 102              		.loc 1 166 101 is_stmt 0 view .LVU21
 103 0000 08B5     		push	{r3, lr}
 104              		.cfi_def_cfa_offset 8
 105              		.cfi_offset 3, -8
 106              		.cfi_offset 14, -4
 167:application/chassis/chassis.c ****         chassis_cmd_recv.wz= -1*PIDCalculate(chassis_angle_pid, angle_measure, angle_ref);
 107              		.loc 1 167 9 is_stmt 1 view .LVU22
 108              		.loc 1 167 33 is_stmt 0 view .LVU23
 109 0002 FFF7FEFF 		bl	PIDCalculate
 110              	.LVL1:
 111              		.loc 1 167 32 discriminator 1 view .LVU24
 112 0006 B1EE400A 		vneg.f32	s0, s0
 113              		.loc 1 167 28 discriminator 1 view .LVU25
 114 000a 024B     		ldr	r3, .L6
 115 000c 83ED020A 		vstr.32	s0, [r3, #8]
 168:application/chassis/chassis.c **** }
 116              		.loc 1 168 1 view .LVU26
 117 0010 08BD     		pop	{r3, pc}
 118              	.L7:
 119 0012 00BF     		.align	2
 120              	.L6:
ARM GAS  C:\Users\Sive\AppData\Local\Temp\ccEzSxeO.s 			page 6


 121 0014 00000000 		.word	chassis_cmd_recv
 122              		.cfi_endproc
 123              	.LFE171:
 125              		.section	.text.EstimateChassisDistance,"ax",%progbits
 126              		.align	1
 127              		.syntax unified
 128              		.thumb
 129              		.thumb_func
 131              	EstimateChassisDistance:
 132              	.LVL2:
 133              	.LFB170:
 155:application/chassis/chassis.c ****         chassis_cmd_recv.vy= -1*PIDCalculate(chassis_distance_pid, distance_measure, distance_ref);
 134              		.loc 1 155 113 is_stmt 1 view -0
 135              		.cfi_startproc
 136              		@ args = 0, pretend = 0, frame = 0
 137              		@ frame_needed = 0, uses_anonymous_args = 0
 155:application/chassis/chassis.c ****         chassis_cmd_recv.vy= -1*PIDCalculate(chassis_distance_pid, distance_measure, distance_ref);
 138              		.loc 1 155 113 is_stmt 0 view .LVU28
 139 0000 08B5     		push	{r3, lr}
 140              		.cfi_def_cfa_offset 8
 141              		.cfi_offset 3, -8
 142              		.cfi_offset 14, -4
 156:application/chassis/chassis.c **** }
 143              		.loc 1 156 9 is_stmt 1 view .LVU29
 156:application/chassis/chassis.c **** }
 144              		.loc 1 156 33 is_stmt 0 view .LVU30
 145 0002 FFF7FEFF 		bl	PIDCalculate
 146              	.LVL3:
 156:application/chassis/chassis.c **** }
 147              		.loc 1 156 32 discriminator 1 view .LVU31
 148 0006 B1EE400A 		vneg.f32	s0, s0
 156:application/chassis/chassis.c **** }
 149              		.loc 1 156 28 discriminator 1 view .LVU32
 150 000a 024B     		ldr	r3, .L10
 151 000c 83ED010A 		vstr.32	s0, [r3, #4]
 157:application/chassis/chassis.c **** 
 152              		.loc 1 157 1 view .LVU33
 153 0010 08BD     		pop	{r3, pc}
 154              	.L11:
 155 0012 00BF     		.align	2
 156              	.L10:
 157 0014 00000000 		.word	chassis_cmd_recv
 158              		.cfi_endproc
 159              	.LFE170:
 161              		.section	.text.LimitChassisOutput,"ax",%progbits
 162              		.align	1
 163              		.syntax unified
 164              		.thumb
 165              		.thumb_func
 167              	LimitChassisOutput:
 168              	.LFB169:
 136:application/chassis/chassis.c ****     // åŠŸç‡é™åˆ¶å¾…æ·»åŠ 
 169              		.loc 1 136 1 is_stmt 1 view -0
 170              		.cfi_startproc
 171              		@ args = 0, pretend = 0, frame = 0
 172              		@ frame_needed = 0, uses_anonymous_args = 0
 173 0000 08B5     		push	{r3, lr}
ARM GAS  C:\Users\Sive\AppData\Local\Temp\ccEzSxeO.s 			page 7


 174              		.cfi_def_cfa_offset 8
 175              		.cfi_offset 3, -8
 176              		.cfi_offset 14, -4
 142:application/chassis/chassis.c ****     DJIMotorSetRef(motor_rf, vt_rf);
 177              		.loc 1 142 5 view .LVU35
 178 0002 0E4B     		ldr	r3, .L14
 179 0004 93ED000A 		vldr.32	s0, [r3]
 180 0008 0D4B     		ldr	r3, .L14+4
 181 000a 1868     		ldr	r0, [r3]
 182 000c FFF7FEFF 		bl	DJIMotorSetRef
 183              	.LVL4:
 143:application/chassis/chassis.c ****     DJIMotorSetRef(motor_lb, vt_lb);
 184              		.loc 1 143 5 view .LVU36
 185 0010 0C4B     		ldr	r3, .L14+8
 186 0012 93ED000A 		vldr.32	s0, [r3]
 187 0016 0C4B     		ldr	r3, .L14+12
 188 0018 1868     		ldr	r0, [r3]
 189 001a FFF7FEFF 		bl	DJIMotorSetRef
 190              	.LVL5:
 144:application/chassis/chassis.c ****     DJIMotorSetRef(motor_rb, vt_rb);
 191              		.loc 1 144 5 view .LVU37
 192 001e 0B4B     		ldr	r3, .L14+16
 193 0020 93ED000A 		vldr.32	s0, [r3]
 194 0024 0A4B     		ldr	r3, .L14+20
 195 0026 1868     		ldr	r0, [r3]
 196 0028 FFF7FEFF 		bl	DJIMotorSetRef
 197              	.LVL6:
 145:application/chassis/chassis.c **** }
 198              		.loc 1 145 5 view .LVU38
 199 002c 094B     		ldr	r3, .L14+24
 200 002e 93ED000A 		vldr.32	s0, [r3]
 201 0032 094B     		ldr	r3, .L14+28
 202 0034 1868     		ldr	r0, [r3]
 203 0036 FFF7FEFF 		bl	DJIMotorSetRef
 204              	.LVL7:
 146:application/chassis/chassis.c **** 
 205              		.loc 1 146 1 is_stmt 0 view .LVU39
 206 003a 08BD     		pop	{r3, pc}
 207              	.L15:
 208              		.align	2
 209              	.L14:
 210 003c 00000000 		.word	vt_lf
 211 0040 00000000 		.word	motor_lf
 212 0044 00000000 		.word	vt_rf
 213 0048 00000000 		.word	motor_rf
 214 004c 00000000 		.word	vt_lb
 215 0050 00000000 		.word	motor_lb
 216 0054 00000000 		.word	vt_rb
 217 0058 00000000 		.word	motor_rb
 218              		.cfi_endproc
 219              	.LFE169:
 221              		.section	.rodata.ChassisInit.str1.4,"aMS",%progbits,1
 222              		.align	2
 223              	.LC0:
 224 0000 63686173 		.ascii	"chassis_cmd\000"
 224      7369735F 
 224      636D6400 
ARM GAS  C:\Users\Sive\AppData\Local\Temp\ccEzSxeO.s 			page 8


 225              		.align	2
 226              	.LC1:
 227 000c 63686173 		.ascii	"chassis_feed\000"
 227      7369735F 
 227      66656564 
 227      00
 228              		.section	.text.ChassisInit,"ax",%progbits
 229              		.align	1
 230              		.global	ChassisInit
 231              		.syntax unified
 232              		.thumb
 233              		.thumb_func
 235              	ChassisInit:
 236              	.LFB167:
  31:application/chassis/chassis.c ****         //åº•ç›˜è·ç¦»ç¯pidåˆå§‹åŒ–ã€
 237              		.loc 1 31 1 is_stmt 1 view -0
 238              		.cfi_startproc
 239              		@ args = 0, pretend = 0, frame = 176
 240              		@ frame_needed = 0, uses_anonymous_args = 0
 241 0000 70B5     		push	{r4, r5, r6, lr}
 242              		.cfi_def_cfa_offset 16
 243              		.cfi_offset 4, -16
 244              		.cfi_offset 5, -12
 245              		.cfi_offset 6, -8
 246              		.cfi_offset 14, -4
 247 0002 ACB0     		sub	sp, sp, #176
 248              		.cfi_def_cfa_offset 192
  33:application/chassis/chassis.c ****         chassis_distance_pid.Ki=0.01  ;
 249              		.loc 1 33 9 view .LVU41
  33:application/chassis/chassis.c ****         chassis_distance_pid.Ki=0.01  ;
 250              		.loc 1 33 32 is_stmt 0 view .LVU42
 251 0004 314B     		ldr	r3, .L18
 252 0006 324C     		ldr	r4, .L18+4
 253 0008 1C60     		str	r4, [r3]	@ float
  34:application/chassis/chassis.c ****         chassis_distance_pid.Kd=0;
 254              		.loc 1 34 9 is_stmt 1 view .LVU43
  34:application/chassis/chassis.c ****         chassis_distance_pid.Kd=0;
 255              		.loc 1 34 32 is_stmt 0 view .LVU44
 256 000a 324A     		ldr	r2, .L18+8
 257 000c 5A60     		str	r2, [r3, #4]	@ float
  35:application/chassis/chassis.c ****         chassis_distance_pid.IntegralLimit = 10000;
 258              		.loc 1 35 9 is_stmt 1 view .LVU45
  35:application/chassis/chassis.c ****         chassis_distance_pid.IntegralLimit = 10000;
 259              		.loc 1 35 32 is_stmt 0 view .LVU46
 260 000e 0020     		movs	r0, #0
 261 0010 9860     		str	r0, [r3, #8]	@ float
  36:application/chassis/chassis.c ****         chassis_distance_pid.MaxOut = 30000;
 262              		.loc 1 36 9 is_stmt 1 view .LVU47
  36:application/chassis/chassis.c ****         chassis_distance_pid.MaxOut = 30000;
 263              		.loc 1 36 44 is_stmt 0 view .LVU48
 264 0012 3149     		ldr	r1, .L18+12
 265 0014 9961     		str	r1, [r3, #24]	@ float
  37:application/chassis/chassis.c ****         //åº•ç›˜è§’åº¦ç¯pidåˆå§‹åŒ–
 266              		.loc 1 37 9 is_stmt 1 view .LVU49
  37:application/chassis/chassis.c ****         //åº•ç›˜è§’åº¦ç¯pidåˆå§‹åŒ–
 267              		.loc 1 37 37 is_stmt 0 view .LVU50
 268 0016 314A     		ldr	r2, .L18+16
ARM GAS  C:\Users\Sive\AppData\Local\Temp\ccEzSxeO.s 			page 9


 269 0018 DA60     		str	r2, [r3, #12]	@ float
  39:application/chassis/chassis.c ****         chassis_angle_pid.Ki=0  ;   
 270              		.loc 1 39 9 is_stmt 1 view .LVU51
  39:application/chassis/chassis.c ****         chassis_angle_pid.Ki=0  ;   
 271              		.loc 1 39 29 is_stmt 0 view .LVU52
 272 001a 314B     		ldr	r3, .L18+20
 273 001c 314D     		ldr	r5, .L18+24
 274 001e 1D60     		str	r5, [r3]	@ float
  40:application/chassis/chassis.c ****         chassis_angle_pid.Kd=4;
 275              		.loc 1 40 9 is_stmt 1 view .LVU53
  40:application/chassis/chassis.c ****         chassis_angle_pid.Kd=4;
 276              		.loc 1 40 29 is_stmt 0 view .LVU54
 277 0020 5860     		str	r0, [r3, #4]	@ float
  41:application/chassis/chassis.c ****         chassis_angle_pid.IntegralLimit = 10000;
 278              		.loc 1 41 9 is_stmt 1 view .LVU55
  41:application/chassis/chassis.c ****         chassis_angle_pid.IntegralLimit = 10000;
 279              		.loc 1 41 29 is_stmt 0 view .LVU56
 280 0022 4FF08140 		mov	r0, #1082130432
 281 0026 9860     		str	r0, [r3, #8]	@ float
  42:application/chassis/chassis.c ****         chassis_angle_pid.MaxOut = 30000;
 282              		.loc 1 42 9 is_stmt 1 view .LVU57
  42:application/chassis/chassis.c ****         chassis_angle_pid.MaxOut = 30000;
 283              		.loc 1 42 41 is_stmt 0 view .LVU58
 284 0028 9961     		str	r1, [r3, #24]	@ float
  43:application/chassis/chassis.c ****     // å››ä¸ªè½®å­çš„å‚æ•°ä¸€æ ·,æ”¹tx_idå’Œåè½¬æ ‡å¿—ä½å³å¯
 285              		.loc 1 43 9 is_stmt 1 view .LVU59
  43:application/chassis/chassis.c ****     // å››ä¸ªè½®å­çš„å‚æ•°ä¸€æ ·,æ”¹tx_idå’Œåè½¬æ ‡å¿—ä½å³å¯
 286              		.loc 1 43 34 is_stmt 0 view .LVU60
 287 002a DA60     		str	r2, [r3, #12]	@ float
  45:application/chassis/chassis.c ****         .can_init_config.can_handle = &hcan1,
 288              		.loc 1 45 5 is_stmt 1 view .LVU61
  45:application/chassis/chassis.c ****         .can_init_config.can_handle = &hcan1,
 289              		.loc 1 45 25 is_stmt 0 view .LVU62
 290 002c B022     		movs	r2, #176
 291 002e 0021     		movs	r1, #0
 292 0030 6846     		mov	r0, sp
 293 0032 FFF7FEFF 		bl	memset
 294              	.LVL8:
 295 0036 4FF07C53 		mov	r3, #1056964608
 296 003a 0493     		str	r3, [sp, #16]	@ float
 297 003c 2A4B     		ldr	r3, .L18+28
 298 003e 0793     		str	r3, [sp, #28]	@ float
 299 0040 0722     		movs	r2, #7
 300 0042 8DF82420 		strb	r2, [sp, #36]
 301 0046 294B     		ldr	r3, .L18+32
 302 0048 0A93     		str	r3, [sp, #40]	@ float
 303 004a 0F94     		str	r4, [sp, #60]	@ float
 304 004c 2849     		ldr	r1, .L18+36
 305 004e 1291     		str	r1, [sp, #72]	@ float
 306 0050 8DF85020 		strb	r2, [sp, #80]
 307 0054 1593     		str	r3, [sp, #84]	@ float
 308 0056 0225     		movs	r5, #2
 309 0058 8DF89450 		strb	r5, [sp, #148]
 310 005c 0326     		movs	r6, #3
 311 005e 8DF89560 		strb	r6, [sp, #149]
 312 0062 8DF89B50 		strb	r5, [sp, #155]
 313 0066 234B     		ldr	r3, .L18+40
ARM GAS  C:\Users\Sive\AppData\Local\Temp\ccEzSxeO.s 			page 10


 314 0068 2793     		str	r3, [sp, #156]
  74:application/chassis/chassis.c ****     chassis_motor_config.controller_setting_init_config.motor_reverse_flag = MOTOR_DIRECTION_REVERS
 315              		.loc 1 74 5 is_stmt 1 view .LVU63
  74:application/chassis/chassis.c ****     chassis_motor_config.controller_setting_init_config.motor_reverse_flag = MOTOR_DIRECTION_REVERS
 316              		.loc 1 74 48 is_stmt 0 view .LVU64
 317 006a 0124     		movs	r4, #1
 318 006c 2894     		str	r4, [sp, #160]
  75:application/chassis/chassis.c ****     motor_lf = DJIMotorInit(&chassis_motor_config);
 319              		.loc 1 75 5 is_stmt 1 view .LVU65
  75:application/chassis/chassis.c ****     motor_lf = DJIMotorInit(&chassis_motor_config);
 320              		.loc 1 75 76 is_stmt 0 view .LVU66
 321 006e 8DF89640 		strb	r4, [sp, #150]
  76:application/chassis/chassis.c **** 
 322              		.loc 1 76 5 is_stmt 1 view .LVU67
  76:application/chassis/chassis.c **** 
 323              		.loc 1 76 16 is_stmt 0 view .LVU68
 324 0072 6846     		mov	r0, sp
 325 0074 FFF7FEFF 		bl	DJIMotorInit
 326              	.LVL9:
  76:application/chassis/chassis.c **** 
 327              		.loc 1 76 14 discriminator 1 view .LVU69
 328 0078 1F4B     		ldr	r3, .L18+44
 329 007a 1860     		str	r0, [r3]
  78:application/chassis/chassis.c ****     chassis_motor_config.controller_setting_init_config.motor_reverse_flag = MOTOR_DIRECTION_REVERS
 330              		.loc 1 78 5 is_stmt 1 view .LVU70
  78:application/chassis/chassis.c ****     chassis_motor_config.controller_setting_init_config.motor_reverse_flag = MOTOR_DIRECTION_REVERS
 331              		.loc 1 78 48 is_stmt 0 view .LVU71
 332 007c 2895     		str	r5, [sp, #160]
  79:application/chassis/chassis.c ****     motor_rf = DJIMotorInit(&chassis_motor_config);
 333              		.loc 1 79 5 is_stmt 1 view .LVU72
  79:application/chassis/chassis.c ****     motor_rf = DJIMotorInit(&chassis_motor_config);
 334              		.loc 1 79 76 is_stmt 0 view .LVU73
 335 007e 8DF89640 		strb	r4, [sp, #150]
  80:application/chassis/chassis.c **** 
 336              		.loc 1 80 5 is_stmt 1 view .LVU74
  80:application/chassis/chassis.c **** 
 337              		.loc 1 80 16 is_stmt 0 view .LVU75
 338 0082 6846     		mov	r0, sp
 339 0084 FFF7FEFF 		bl	DJIMotorInit
 340              	.LVL10:
  80:application/chassis/chassis.c **** 
 341              		.loc 1 80 14 discriminator 1 view .LVU76
 342 0088 1C4B     		ldr	r3, .L18+48
 343 008a 1860     		str	r0, [r3]
  82:application/chassis/chassis.c ****     chassis_motor_config.controller_setting_init_config.motor_reverse_flag = MOTOR_DIRECTION_REVERS
 344              		.loc 1 82 5 is_stmt 1 view .LVU77
  82:application/chassis/chassis.c ****     chassis_motor_config.controller_setting_init_config.motor_reverse_flag = MOTOR_DIRECTION_REVERS
 345              		.loc 1 82 48 is_stmt 0 view .LVU78
 346 008c 0423     		movs	r3, #4
 347 008e 2893     		str	r3, [sp, #160]
  83:application/chassis/chassis.c ****     motor_lb = DJIMotorInit(&chassis_motor_config);
 348              		.loc 1 83 5 is_stmt 1 view .LVU79
  83:application/chassis/chassis.c ****     motor_lb = DJIMotorInit(&chassis_motor_config);
 349              		.loc 1 83 76 is_stmt 0 view .LVU80
 350 0090 8DF89640 		strb	r4, [sp, #150]
  84:application/chassis/chassis.c **** 
 351              		.loc 1 84 5 is_stmt 1 view .LVU81
ARM GAS  C:\Users\Sive\AppData\Local\Temp\ccEzSxeO.s 			page 11


  84:application/chassis/chassis.c **** 
 352              		.loc 1 84 16 is_stmt 0 view .LVU82
 353 0094 6846     		mov	r0, sp
 354 0096 FFF7FEFF 		bl	DJIMotorInit
 355              	.LVL11:
  84:application/chassis/chassis.c **** 
 356              		.loc 1 84 14 discriminator 1 view .LVU83
 357 009a 194B     		ldr	r3, .L18+52
 358 009c 1860     		str	r0, [r3]
  86:application/chassis/chassis.c ****     chassis_motor_config.controller_setting_init_config.motor_reverse_flag = MOTOR_DIRECTION_REVERS
 359              		.loc 1 86 5 is_stmt 1 view .LVU84
  86:application/chassis/chassis.c ****     chassis_motor_config.controller_setting_init_config.motor_reverse_flag = MOTOR_DIRECTION_REVERS
 360              		.loc 1 86 48 is_stmt 0 view .LVU85
 361 009e 2896     		str	r6, [sp, #160]
  87:application/chassis/chassis.c ****     motor_rb = DJIMotorInit(&chassis_motor_config);
 362              		.loc 1 87 5 is_stmt 1 view .LVU86
  87:application/chassis/chassis.c ****     motor_rb = DJIMotorInit(&chassis_motor_config);
 363              		.loc 1 87 76 is_stmt 0 view .LVU87
 364 00a0 8DF89640 		strb	r4, [sp, #150]
  88:application/chassis/chassis.c **** 
 365              		.loc 1 88 5 is_stmt 1 view .LVU88
  88:application/chassis/chassis.c **** 
 366              		.loc 1 88 16 is_stmt 0 view .LVU89
 367 00a4 6846     		mov	r0, sp
 368 00a6 FFF7FEFF 		bl	DJIMotorInit
 369              	.LVL12:
  88:application/chassis/chassis.c **** 
 370              		.loc 1 88 14 discriminator 1 view .LVU90
 371 00aa 164B     		ldr	r3, .L18+56
 372 00ac 1860     		str	r0, [r3]
 107:application/chassis/chassis.c ****     chassis_pub = PubRegister("chassis_feed", sizeof(Chassis_Upload_Data_s));
 373              		.loc 1 107 5 is_stmt 1 view .LVU91
 107:application/chassis/chassis.c ****     chassis_pub = PubRegister("chassis_feed", sizeof(Chassis_Upload_Data_s));
 374              		.loc 1 107 19 is_stmt 0 view .LVU92
 375 00ae 2521     		movs	r1, #37
 376 00b0 1548     		ldr	r0, .L18+60
 377 00b2 FFF7FEFF 		bl	SubRegister
 378              	.LVL13:
 107:application/chassis/chassis.c ****     chassis_pub = PubRegister("chassis_feed", sizeof(Chassis_Upload_Data_s));
 379              		.loc 1 107 17 discriminator 1 view .LVU93
 380 00b6 154B     		ldr	r3, .L18+64
 381 00b8 1860     		str	r0, [r3]
 108:application/chassis/chassis.c **** #endif // ONE_BOARD
 382              		.loc 1 108 5 is_stmt 1 view .LVU94
 108:application/chassis/chassis.c **** #endif // ONE_BOARD
 383              		.loc 1 108 19 is_stmt 0 view .LVU95
 384 00ba 2146     		mov	r1, r4
 385 00bc 1448     		ldr	r0, .L18+68
 386 00be FFF7FEFF 		bl	PubRegister
 387              	.LVL14:
 108:application/chassis/chassis.c **** #endif // ONE_BOARD
 388              		.loc 1 108 17 discriminator 1 view .LVU96
 389 00c2 144B     		ldr	r3, .L18+72
 390 00c4 1860     		str	r0, [r3]
 110:application/chassis/chassis.c **** #define LF_CENTER ((HALF_TRACK_WIDTH + CENTER_GIMBAL_OFFSET_X + HALF_WHEEL_BASE - CENTER_GIMBAL_OFF
 391              		.loc 1 110 1 view .LVU97
 392 00c6 2CB0     		add	sp, sp, #176
ARM GAS  C:\Users\Sive\AppData\Local\Temp\ccEzSxeO.s 			page 12


 393              		.cfi_def_cfa_offset 16
 394              		@ sp needed
 395 00c8 70BD     		pop	{r4, r5, r6, pc}
 396              	.L19:
 397 00ca 00BF     		.align	2
 398              	.L18:
 399 00cc 00000000 		.word	chassis_distance_pid
 400 00d0 00002041 		.word	1092616192
 401 00d4 0AD7233C 		.word	1008981770
 402 00d8 00401C46 		.word	1176256512
 403 00dc 0060EA46 		.word	1189765120
 404 00e0 00000000 		.word	chassis_angle_pid
 405 00e4 00002F44 		.word	1143930880
 406 00e8 00606A46 		.word	1181376512
 407 00ec 00803B45 		.word	1161527296
 408 00f0 00803B46 		.word	1178304512
 409 00f4 00000000 		.word	hcan1
 410 00f8 00000000 		.word	motor_lf
 411 00fc 00000000 		.word	motor_rf
 412 0100 00000000 		.word	motor_lb
 413 0104 00000000 		.word	motor_rb
 414 0108 00000000 		.word	.LC0
 415 010c 00000000 		.word	chassis_sub
 416 0110 0C000000 		.word	.LC1
 417 0114 00000000 		.word	chassis_pub
 418              		.cfi_endproc
 419              	.LFE167:
 421              		.section	.text.ChassisTask,"ax",%progbits
 422              		.align	1
 423              		.global	ChassisTask
 424              		.syntax unified
 425              		.thumb
 426              		.thumb_func
 428              	ChassisTask:
 429              	.LFB173:
 169:application/chassis/chassis.c **** 
 170:application/chassis/chassis.c **** /**
 171:application/chassis/chassis.c ****  * @brief æ ¹æ®æ¯ä¸ªè½®å­çš„é€Ÿåº¦åé¦ˆ,è®¡ç®—åº•ç›˜çš„å®é™…è¿åŠ¨é€Ÿåº¦,é€†è¿åŠ¨è§£ç®—
 172:application/chassis/chassis.c ****  *        å¯¹äºåŒæ¿çš„æƒ…å†µ,è€ƒè™‘å¢åŠ æ¥è‡ªåº•ç›˜æ¿IMUçš„æ•°æ®
 173:application/chassis/chassis.c ****  *
 174:application/chassis/chassis.c ****  */
 175:application/chassis/chassis.c **** static void EstimateSpeed()
 176:application/chassis/chassis.c ****     // æ ¹æ®ç”µæœºé€Ÿåº¦å’Œé™€èºä»ªçš„è§’é€Ÿåº¦è¿›è¡Œè§£ç®—,è¿˜å¯ä»¥åˆ©ç”¨åŠ é€Ÿåº¦è®¡åˆ¤æ–­æ˜¯å
 177:application/chassis/chassis.c **** {
 178:application/chassis/chassis.c ****     // chassis_feedback_data.vx vy wz =
 179:application/chassis/chassis.c ****     //  ...
 180:application/chassis/chassis.c **** }
 181:application/chassis/chassis.c **** 
 182:application/chassis/chassis.c **** /* æœºå™¨äººåº•ç›˜æ§åˆ¶æ ¸å¿ƒä»»åŠ¡ */
 183:application/chassis/chassis.c **** void ChassisTask()
 184:application/chassis/chassis.c **** {
 430              		.loc 1 184 1 is_stmt 1 view -0
 431              		.cfi_startproc
 432              		@ args = 0, pretend = 0, frame = 0
 433              		@ frame_needed = 0, uses_anonymous_args = 0
 434 0000 38B5     		push	{r3, r4, r5, lr}
 435              		.cfi_def_cfa_offset 16
ARM GAS  C:\Users\Sive\AppData\Local\Temp\ccEzSxeO.s 			page 13


 436              		.cfi_offset 3, -16
 437              		.cfi_offset 4, -12
 438              		.cfi_offset 5, -8
 439              		.cfi_offset 14, -4
 185:application/chassis/chassis.c ****     // åç»­å¢åŠ æ²¡æ”¶åˆ°æ¶ˆæ¯çš„å¤„ç†(åŒæ¿çš„æƒ…å†µ)
 186:application/chassis/chassis.c ****     // è·å–æ–°çš„æ§åˆ¶ä¿¡æ¯
 187:application/chassis/chassis.c **** #ifdef ONE_BOARD
 188:application/chassis/chassis.c ****     SubGetMessage(chassis_sub, &chassis_cmd_recv);
 440              		.loc 1 188 5 view .LVU99
 441 0002 2E4C     		ldr	r4, .L24
 442 0004 2146     		mov	r1, r4
 443 0006 2E4B     		ldr	r3, .L24+4
 444 0008 1868     		ldr	r0, [r3]
 445 000a FFF7FEFF 		bl	SubGetMessage
 446              	.LVL15:
 189:application/chassis/chassis.c **** #endif   
 190:application/chassis/chassis.c **** #ifdef CHASSIS_BOARD
 191:application/chassis/chassis.c ****     chassis_cmd_recv = *(Chassis_Ctrl_Cmd_s *)CANCommGet(chasiss_can_comm);
 192:application/chassis/chassis.c **** #endif // CHASSIS_BOARD
 193:application/chassis/chassis.c **** 
 194:application/chassis/chassis.c ****     if (chassis_cmd_recv.chassis_mode == CHASSIS_ZERO_FORCE)
 447              		.loc 1 194 5 view .LVU100
 448              		.loc 1 194 25 is_stmt 0 view .LVU101
 449 000e 237D     		ldrb	r3, [r4, #20]	@ zero_extendqisi2
 450              		.loc 1 194 8 view .LVU102
 451 0010 002B     		cmp	r3, #0
 452 0012 42D1     		bne	.L21
 195:application/chassis/chassis.c ****     { // å¦‚æœå‡ºç°é‡è¦æ¨¡å—ç¦»çº¿æˆ–é¥æ§å™¨è®¾ç½®ä¸ºæ€¥åœ,è®©ç”µæœºåœæ­¢
 196:application/chassis/chassis.c ****         DJIMotorStop(motor_lf);
 453              		.loc 1 196 9 is_stmt 1 view .LVU103
 454 0014 2B4B     		ldr	r3, .L24+8
 455 0016 1868     		ldr	r0, [r3]
 456 0018 FFF7FEFF 		bl	DJIMotorStop
 457              	.LVL16:
 197:application/chassis/chassis.c ****         DJIMotorStop(motor_rf);
 458              		.loc 1 197 9 view .LVU104
 459 001c 2A4B     		ldr	r3, .L24+12
 460 001e 1868     		ldr	r0, [r3]
 461 0020 FFF7FEFF 		bl	DJIMotorStop
 462              	.LVL17:
 198:application/chassis/chassis.c ****         DJIMotorStop(motor_lb);
 463              		.loc 1 198 9 view .LVU105
 464 0024 294B     		ldr	r3, .L24+16
 465 0026 1868     		ldr	r0, [r3]
 466 0028 FFF7FEFF 		bl	DJIMotorStop
 467              	.LVL18:
 199:application/chassis/chassis.c ****         DJIMotorStop(motor_rb);
 468              		.loc 1 199 9 view .LVU106
 469 002c 284B     		ldr	r3, .L24+20
 470 002e 1868     		ldr	r0, [r3]
 471 0030 FFF7FEFF 		bl	DJIMotorStop
 472              	.LVL19:
 473              	.L22:
 200:application/chassis/chassis.c ****     }
 201:application/chassis/chassis.c ****     else
 202:application/chassis/chassis.c ****     { // æ­£å¸¸å·¥ä½œ
 203:application/chassis/chassis.c ****         DJIMotorEnable(motor_lf);
ARM GAS  C:\Users\Sive\AppData\Local\Temp\ccEzSxeO.s 			page 14


 204:application/chassis/chassis.c ****         DJIMotorEnable(motor_rf);
 205:application/chassis/chassis.c ****         DJIMotorEnable(motor_lb);
 206:application/chassis/chassis.c ****         DJIMotorEnable(motor_rb);
 207:application/chassis/chassis.c ****     }
 208:application/chassis/chassis.c ****     chassis_x=chassis_cmd_recv.x;
 474              		.loc 1 208 5 view .LVU107
 475              		.loc 1 208 31 is_stmt 0 view .LVU108
 476 0034 214C     		ldr	r4, .L24
 477 0036 D4F81930 		ldr	r3, [r4, #25]	@ unaligned
 478              		.loc 1 208 14 view .LVU109
 479 003a 264D     		ldr	r5, .L24+24
 480 003c 2B60     		str	r3, [r5]	@ float
 209:application/chassis/chassis.c ****     chassis_z=INS.total_angle;
 481              		.loc 1 209 5 is_stmt 1 view .LVU110
 482              		.loc 1 209 18 is_stmt 0 view .LVU111
 483 003e 264B     		ldr	r3, .L24+28
 484 0040 93ED200A 		vldr.32	s0, [r3, #128]
 485              		.loc 1 209 14 view .LVU112
 486 0044 254B     		ldr	r3, .L24+32
 487 0046 83ED000A 		vstr.32	s0, [r3]
 210:application/chassis/chassis.c ****     // æ ¹æ®æ§åˆ¶æ¨¡å¼è®¾å®šæ—‹è½¬é€Ÿåº¦
 211:application/chassis/chassis.c ****     // switch (chassis_cmd_recv.chassis_mode)
 212:application/chassis/chassis.c ****     // {
 213:application/chassis/chassis.c ****     // case CHASSIS_NO_FOLLOW: // åº•ç›˜ä¸æ—‹è½¬,ä½†ç»´æŒå…¨å‘æœºåŠ¨,ä¸€èˆ¬ç”¨äºè°ƒæ•´äº‘å°å§¿
 214:application/chassis/chassis.c ****     //     chassis_cmd_recv.wz = 0;
 215:application/chassis/chassis.c ****     //     break;
 216:application/chassis/chassis.c ****     // case CHASSIS_FOLLOW_GIMBAL_YAW: // è·Ÿéšäº‘å°,ä¸å•ç‹¬è®¾ç½®pid,ä»¥è¯¯å·®è§’åº¦å¹³æ–¹ä¸ºé
 217:application/chassis/chassis.c ****     //     chassis_cmd_recv.wz = -1.5f * chassis_cmd_recv.offset_angle * abs(chassis_cmd_recv.offse
 218:application/chassis/chassis.c ****     //     break;
 219:application/chassis/chassis.c ****     // case CHASSIS_ROTATE: // è‡ªæ—‹,åŒæ—¶ä¿æŒå…¨å‘æœºåŠ¨;å½“å‰wzç»´æŒå®šå€¼,åç»­å¢åŠ ä¸
 220:application/chassis/chassis.c ****     //     chassis_cmd_recv.wz = 4000;
 221:application/chassis/chassis.c ****     //     break;
 222:application/chassis/chassis.c ****     // default:
 223:application/chassis/chassis.c ****     //     break;
 224:application/chassis/chassis.c ****     // }
 225:application/chassis/chassis.c ****     // if((90-abs(INS.Yaw))>30){----åº•ç›˜è½¬90Â°
 226:application/chassis/chassis.c **** 
 227:application/chassis/chassis.c ****     // }else
 228:application/chassis/chassis.c ****     // {intergal=intergal+(90-abs(INS.Yaw));}
 229:application/chassis/chassis.c ****     // chassis_cmd_recv.wz=(90-abs(INS.Yaw))*10+intergal*0.05;
 230:application/chassis/chassis.c ****     // chassis_cmd_recv.wz=PIDCalculate(&chassis_angle_pid, INS.Yaw,90);
 231:application/chassis/chassis.c ****     EstimateChassisAngle(&chassis_angle_pid,chassis_z,0);
 488              		.loc 1 231 5 is_stmt 1 view .LVU113
 489 004a DFED250A 		vldr.32	s1, .L24+36
 490 004e 2548     		ldr	r0, .L24+40
 491 0050 FFF7FEFF 		bl	EstimateChassisAngle
 492              	.LVL20:
 232:application/chassis/chassis.c ****     EstimateChassisDistance(&chassis_distance_pid, chassis_x,1000);
 493              		.loc 1 232 5 view .LVU114
 494 0054 DFED240A 		vldr.32	s1, .L24+44
 495 0058 95ED000A 		vldr.32	s0, [r5]
 496 005c 2348     		ldr	r0, .L24+48
 497 005e FFF7FEFF 		bl	EstimateChassisDistance
 498              	.LVL21:
 233:application/chassis/chassis.c ****     chassis_vx=3.0*chassis_cmd_recv.vy;
 499              		.loc 1 233 5 view .LVU115
 500              		.loc 1 233 36 is_stmt 0 view .LVU116
ARM GAS  C:\Users\Sive\AppData\Local\Temp\ccEzSxeO.s 			page 15


 501 0062 D4ED017A 		vldr.32	s15, [r4, #4]
 502              		.loc 1 233 19 view .LVU117
 503 0066 B0EE087A 		vmov.f32	s14, #3.0e+0
 504 006a 67EE877A 		vmul.f32	s15, s15, s14
 505              		.loc 1 233 15 view .LVU118
 506 006e 204B     		ldr	r3, .L24+52
 507 0070 C3ED007A 		vstr.32	s15, [r3]
 234:application/chassis/chassis.c ****     chassis_vy=-3.0*chassis_cmd_recv.vx;
 508              		.loc 1 234 5 is_stmt 1 view .LVU119
 509              		.loc 1 234 37 is_stmt 0 view .LVU120
 510 0074 D4ED007A 		vldr.32	s15, [r4]
 511              		.loc 1 234 20 view .LVU121
 512 0078 B8EE087A 		vmov.f32	s14, #-3.0e+0
 513 007c 67EE877A 		vmul.f32	s15, s15, s14
 514              		.loc 1 234 15 view .LVU122
 515 0080 1C4B     		ldr	r3, .L24+56
 516 0082 C3ED007A 		vstr.32	s15, [r3]
 235:application/chassis/chassis.c ****     // chassis_wz=chassis_cmd_recv.wz;
 236:application/chassis/chassis.c ****     //  chassis_cmd_recv.wz=0;
 237:application/chassis/chassis.c ****     // æ ¹æ®äº‘å°å’Œåº•ç›˜çš„è§’åº¦offsetå°†æ§åˆ¶é‡æ˜ å°„åˆ°åº•ç›˜åæ ‡ç³»ä¸Š
 238:application/chassis/chassis.c ****     // åº•ç›˜é€†æ—¶é’ˆæ—‹è½¬ä¸ºè§’åº¦æ­£æ–¹å‘;äº‘å°å‘½ä»¤çš„æ–¹å‘ä»¥äº‘å°æŒ‡å‘çš„æ–¹å‘ä¸ºx,é‡
 239:application/chassis/chassis.c ****     // static float sin_theta, cos_theta;
 240:application/chassis/chassis.c ****     // cos_theta = arm_cos_f32(chassis_cmd_recv.offset_angle * DEGREE_2_RAD);
 241:application/chassis/chassis.c ****     // sin_theta = arm_sin_f32(chassis_cmd_recv.offset_angle * DEGREE_2_RAD);
 242:application/chassis/chassis.c ****     // chassis_vx = chassis_cmd_recv.vx * cos_theta - chassis_cmd_recv.vy * sin_theta;
 243:application/chassis/chassis.c ****     // chassis_vy = chassis_cmd_recv.vx * sin_theta + chassis_cmd_recv.vy * cos_theta;
 244:application/chassis/chassis.c ****     
 245:application/chassis/chassis.c **** 
 246:application/chassis/chassis.c ****     // æ ¹æ®æ§åˆ¶æ¨¡å¼è¿›è¡Œæ­£è¿åŠ¨å­¦è§£ç®—,è®¡ç®—åº•ç›˜è¾“å‡º
 247:application/chassis/chassis.c ****     MecanumCalculate();
 517              		.loc 1 247 5 is_stmt 1 view .LVU123
 518 0086 FFF7FEFF 		bl	MecanumCalculate
 519              	.LVL22:
 248:application/chassis/chassis.c **** 
 249:application/chassis/chassis.c ****     // æ ¹æ®è£åˆ¤ç³»ç»Ÿçš„åé¦ˆæ•°æ®å’Œç”µå®¹æ•°æ®å¯¹è¾“å‡ºé™å¹…å¹¶è®¾å®šé—­ç¯å‚è€ƒå€¼
 250:application/chassis/chassis.c ****     LimitChassisOutput();
 520              		.loc 1 250 5 view .LVU124
 521 008a FFF7FEFF 		bl	LimitChassisOutput
 522              	.LVL23:
 251:application/chassis/chassis.c **** 
 252:application/chassis/chassis.c ****     // æ ¹æ®ç”µæœºçš„åé¦ˆé€Ÿåº¦å’ŒIMU(å¦‚æœæœ‰)è®¡ç®—çœŸå®é€Ÿåº¦
 253:application/chassis/chassis.c ****     EstimateSpeed();
 523              		.loc 1 253 5 view .LVU125
 254:application/chassis/chassis.c **** 
 255:application/chassis/chassis.c ****     // // è·å–è£åˆ¤ç³»ç»Ÿæ•°æ®   å»ºè®®å°†è£åˆ¤ç³»ç»Ÿä¸åº•ç›˜åˆ†ç¦»ï¼Œæ‰€ä»¥æ­¤å¤„æ•°æ®åº”ä½
 256:application/chassis/chassis.c ****     // // æˆ‘æ–¹é¢œè‰²idå°äº7æ˜¯çº¢è‰²,å¤§äº7æ˜¯è“è‰²,æ³¨æ„è¿™é‡Œå‘é€çš„æ˜¯å¯¹æ–¹çš„é¢œè‰², 
 257:application/chassis/chassis.c ****     // chassis_feedback_data.enemy_color = referee_data->GameRobotState.robot_id > 7 ? 1 : 0;
 258:application/chassis/chassis.c ****     // // å½“å‰åªåšäº†17mmçƒ­é‡çš„æ•°æ®è·å–,åç»­æ ¹æ®robot_defä¸­çš„å®åˆ‡æ¢åŒæªç®¡å’Œ
 259:application/chassis/chassis.c ****     // chassis_feedback_data.bullet_speed = referee_data->GameRobotState.shooter_id1_17mm_speed_lim
 260:application/chassis/chassis.c ****     // chassis_feedback_data.rest_heat = referee_data->PowerHeatData.shooter_heat0;
 261:application/chassis/chassis.c **** 
 262:application/chassis/chassis.c ****     // æ¨é€åé¦ˆæ¶ˆæ¯
 263:application/chassis/chassis.c **** #ifdef ONE_BOARD
 264:application/chassis/chassis.c ****     PubPushMessage(chassis_pub, (void *)&chassis_feedback_data);
 524              		.loc 1 264 5 view .LVU126
 525 008e 1A49     		ldr	r1, .L24+60
 526 0090 1A4B     		ldr	r3, .L24+64
ARM GAS  C:\Users\Sive\AppData\Local\Temp\ccEzSxeO.s 			page 16


 527 0092 1868     		ldr	r0, [r3]
 528 0094 FFF7FEFF 		bl	PubPushMessage
 529              	.LVL24:
 265:application/chassis/chassis.c **** #endif
 266:application/chassis/chassis.c **** #ifdef CHASSIS_BOARD
 267:application/chassis/chassis.c ****     CANCommSend(chasiss_can_comm, (void *)&chassis_feedback_data);
 268:application/chassis/chassis.c **** #endif // CHASSIS_BOARD
 269:application/chassis/chassis.c **** }...
 530              		.loc 1 269 1 is_stmt 0 view .LVU127
 531 0098 38BD     		pop	{r3, r4, r5, pc}
 532              	.L21:
 203:application/chassis/chassis.c ****         DJIMotorEnable(motor_lf);
 533              		.loc 1 203 9 is_stmt 1 view .LVU128
 534 009a 0A4B     		ldr	r3, .L24+8
 535 009c 1868     		ldr	r0, [r3]
 536 009e FFF7FEFF 		bl	DJIMotorEnable
 537              	.LVL25:
 204:application/chassis/chassis.c ****         DJIMotorEnable(motor_rf);
 538              		.loc 1 204 9 view .LVU129
 539 00a2 094B     		ldr	r3, .L24+12
 540 00a4 1868     		ldr	r0, [r3]
 541 00a6 FFF7FEFF 		bl	DJIMotorEnable
 542              	.LVL26:
 205:application/chassis/chassis.c ****         DJIMotorEnable(motor_lb);
 543              		.loc 1 205 9 view .LVU130
 544 00aa 084B     		ldr	r3, .L24+16
 545 00ac 1868     		ldr	r0, [r3]
 546 00ae FFF7FEFF 		bl	DJIMotorEnable
 547              	.LVL27:
 206:application/chassis/chassis.c ****         DJIMotorEnable(motor_rb);
 548              		.loc 1 206 9 view .LVU131
 549 00b2 074B     		ldr	r3, .L24+20
 550 00b4 1868     		ldr	r0, [r3]
 551 00b6 FFF7FEFF 		bl	DJIMotorEnable
 552              	.LVL28:
 553 00ba BBE7     		b	.L22
 554              	.L25:
 555              		.align	2
 556              	.L24:
 557 00bc 00000000 		.word	chassis_cmd_recv
 558 00c0 00000000 		.word	chassis_sub
 559 00c4 00000000 		.word	motor_lf
 560 00c8 00000000 		.word	motor_rf
 561 00cc 00000000 		.word	motor_lb
 562 00d0 00000000 		.word	motor_rb
 563 00d4 00000000 		.word	chassis_x
 564 00d8 00000000 		.word	INS
 565 00dc 00000000 		.word	chassis_z
 566 00e0 00000000 		.word	0
 567 00e4 00000000 		.word	chassis_angle_pid
 568 00e8 00007A44 		.word	1148846080
 569 00ec 00000000 		.word	chassis_distance_pid
 570 00f0 00000000 		.word	chassis_vx
 571 00f4 00000000 		.word	chassis_vy
 572 00f8 00000000 		.word	chassis_feedback_data
 573 00fc 00000000 		.word	chassis_pub
 574              		.cfi_endproc
ARM GAS  C:\Users\Sive\AppData\Local\Temp\ccEzSxeO.s 			page 17


 575              	.LFE173:
 577              		.section	.bss.motor_rb,"aw",%nobits
 578              		.align	2
 581              	motor_rb:
 582 0000 00000000 		.space	4
 583              		.section	.bss.motor_lb,"aw",%nobits
 584              		.align	2
 587              	motor_lb:
 588 0000 00000000 		.space	4
 589              		.section	.bss.motor_rf,"aw",%nobits
 590              		.align	2
 593              	motor_rf:
 594 0000 00000000 		.space	4
 595              		.section	.bss.motor_lf,"aw",%nobits
 596              		.align	2
 599              	motor_lf:
 600 0000 00000000 		.space	4
 601              		.section	.bss.chassis_distance_pid,"aw",%nobits
 602              		.align	3
 605              	chassis_distance_pid:
 606 0000 00000000 		.space	120
 606      00000000 
 606      00000000 
 606      00000000 
 606      00000000 
 607              		.section	.bss.chassis_angle_pid,"aw",%nobits
 608              		.align	3
 611              	chassis_angle_pid:
 612 0000 00000000 		.space	120
 612      00000000 
 612      00000000 
 612      00000000 
 612      00000000 
 613              		.section	.bss.chassis_feedback_data,"aw",%nobits
 614              		.align	2
 617              	chassis_feedback_data:
 618 0000 00       		.space	1
 619              		.section	.bss.chassis_cmd_recv,"aw",%nobits
 620              		.align	2
 623              	chassis_cmd_recv:
 624 0000 00000000 		.space	37
 624      00000000 
 624      00000000 
 624      00000000 
 624      00000000 
 625              		.section	.bss.chassis_sub,"aw",%nobits
 626              		.align	2
 629              	chassis_sub:
 630 0000 00000000 		.space	4
 631              		.section	.bss.chassis_pub,"aw",%nobits
 632              		.align	2
 635              	chassis_pub:
 636 0000 00000000 		.space	4
 637              		.section	.bss.vt_rb,"aw",%nobits
 638              		.align	2
 641              	vt_rb:
 642 0000 00000000 		.space	4
ARM GAS  C:\Users\Sive\AppData\Local\Temp\ccEzSxeO.s 			page 18


 643              		.section	.bss.vt_lb,"aw",%nobits
 644              		.align	2
 647              	vt_lb:
 648 0000 00000000 		.space	4
 649              		.section	.bss.vt_rf,"aw",%nobits
 650              		.align	2
 653              	vt_rf:
 654 0000 00000000 		.space	4
 655              		.section	.bss.vt_lf,"aw",%nobits
 656              		.align	2
 659              	vt_lf:
 660 0000 00000000 		.space	4
 661              		.section	.bss.chassis_vy,"aw",%nobits
 662              		.align	2
 665              	chassis_vy:
 666 0000 00000000 		.space	4
 667              		.section	.bss.chassis_vx,"aw",%nobits
 668              		.align	2
 671              	chassis_vx:
 672 0000 00000000 		.space	4
 673              		.section	.bss.chassis_z,"aw",%nobits
 674              		.align	2
 677              	chassis_z:
 678 0000 00000000 		.space	4
 679              		.section	.bss.chassis_x,"aw",%nobits
 680              		.align	2
 683              	chassis_x:
 684 0000 00000000 		.space	4
 685              		.text
 686              	.Letext0:
 687              		.file 2 "C:/Users/Sive/AppData/Roaming/Code/User/globalStorage/bmd.stm32-for-vscode/@xpack-dev-too
 688              		.file 3 "C:/Users/Sive/AppData/Roaming/Code/User/globalStorage/bmd.stm32-for-vscode/@xpack-dev-too
 689              		.file 4 "Drivers/CMSIS/Device/ST/STM32F4xx/Include/stm32f407xx.h"
 690              		.file 5 "Drivers/CMSIS/Device/ST/STM32F4xx/Include/stm32f4xx.h"
 691              		.file 6 "Drivers/STM32F4xx_HAL_Driver/Inc/stm32f4xx_hal_can.h"
 692              		.file 7 "moudels/imu/INS_task.h"
 693              		.file 8 "application/robot_def.h"
 694              		.file 9 "bsp/can/bsp_can.h"
 695              		.file 10 "moudels/algorithm/controller.h"
 696              		.file 11 "moudels/motor/motor_def.h"
 697              		.file 12 "moudels/daemon/daemon.h"
 698              		.file 13 "moudels/motor/DJImotor/dji_motor.h"
 699              		.file 14 "moudels/message_center/message_center.h"
 700              		.file 15 "Core/Inc/can.h"
 701              		.file 16 "<built-in>"
ARM GAS  C:\Users\Sive\AppData\Local\Temp\ccEzSxeO.s 			page 19

