ARM GAS  C:\Users\Sive\AppData\Local\Temp\ccNX7ZTf.s 			page 1


   1              		.cpu cortex-m4
   2              		.arch armv7e-m
   3              		.fpu fpv4-sp-d16
   4              		.eabi_attribute 27, 1
   5              		.eabi_attribute 28, 1
   6              		.eabi_attribute 20, 1
   7              		.eabi_attribute 21, 1
   8              		.eabi_attribute 23, 3
   9              		.eabi_attribute 24, 1
  10              		.eabi_attribute 25, 1
  11              		.eabi_attribute 26, 1
  12              		.eabi_attribute 30, 1
  13              		.eabi_attribute 34, 1
  14              		.eabi_attribute 18, 4
  15              		.file	"MImotor.c"
  16              		.text
  17              	.Ltext0:
  18              		.cfi_sections	.debug_frame
  19              		.file 1 "moudels/motor/MImotor/MImotor.c"
  20              		.section	.text.MIMotorLostCallback,"ax",%progbits
  21              		.align	1
  22              		.syntax unified
  23              		.thumb
  24              		.thumb_func
  26              	MIMotorLostCallback:
  27              	.LVL0:
  28              	.LFB139:
   1:moudels/motor/MImotor/MImotor.c **** #include "MImotor.h"
   2:moudels/motor/MImotor/MImotor.c **** #include "general_def.h"
   3:moudels/motor/MImotor/MImotor.c **** #include "bsp_dwt.h"
   4:moudels/motor/MImotor/MImotor.c **** #include "bsp_log.h"
   5:moudels/motor/MImotor/MImotor.c **** #include "string.h"
   6:moudels/motor/MImotor/MImotor.c **** static uint8_t idx = 0; 
   7:moudels/motor/MImotor/MImotor.c **** static MIMotorInstance *mi_motor_instance[MI_MOTOR_CNT] = {NULL}; 
   8:moudels/motor/MImotor/MImotor.c **** uint8_t MI_MASTERID = 1; //master id ÂèëÈÄÅÊåá‰ª§Êó∂EXTIDÁöÑbit8:15,ÂèçÈ¶àÁöÑbit0:7
   9:moudels/motor/MImotor/MImotor.c **** /**
  10:moudels/motor/MImotor/MImotor.c ****   * @brief          Â∞èÁ±≥ÁîµÊú∫ÂèçÈ¶àÂ∏ßËß£Á†ÅÔºàÈÄö‰ø°Á±ªÂûã2Ôºâ
  11:moudels/motor/MImotor/MImotor.c ****   * @param[in]      Rx_can_info Êé•ÂèóÂà∞ÁöÑÁîµÊú∫Êï∞ÊçÆÁªìÊûÑ‰Ωì
  12:moudels/motor/MImotor/MImotor.c ****   * @param[in]      rx_data[8] CANÁ∫øÊé•Êî∂Âà∞ÁöÑÊï∞ÊçÆ
  13:moudels/motor/MImotor/MImotor.c ****   * @note           Â∞ÜÊé•Êî∂Âà∞ÁöÑCANÁ∫øÊï∞ÊçÆËß£Á†ÅÂà∞ÁîµÊú∫Êï∞ÊçÆÁªìÊûÑ‰Ωì‰∏≠
  14:moudels/motor/MImotor/MImotor.c ****   * @retval         none
  15:moudels/motor/MImotor/MImotor.c ****   */
  16:moudels/motor/MImotor/MImotor.c **** void MI_motor_RxDecode(RxCAN_info_type_2_s* RxCAN_info,uint8_t rx_data[8])
  17:moudels/motor/MImotor/MImotor.c **** {
  18:moudels/motor/MImotor/MImotor.c ****     uint16_t decode_temp_mi;//Â∞èÁ±≥ÁîµÊú∫ÂèçÈ¶àÊï∞ÊçÆËß£Á†ÅÁºìÂÜ≤
  19:moudels/motor/MImotor/MImotor.c ****     decode_temp_mi = (rx_data[0] << 8 | rx_data[1]);
  20:moudels/motor/MImotor/MImotor.c ****     RxCAN_info->angle = ((float)decode_temp_mi-32767.5)/32767.5*4*3.1415926f;//rad  
  21:moudels/motor/MImotor/MImotor.c **** 
  22:moudels/motor/MImotor/MImotor.c ****     decode_temp_mi = (rx_data[2] << 8 | rx_data[3]);
  23:moudels/motor/MImotor/MImotor.c ****     RxCAN_info->speed = ((float)decode_temp_mi-32767.5)/32767.5*30.0f;//Âçï‰Ωçrad/s
  24:moudels/motor/MImotor/MImotor.c **** 
  25:moudels/motor/MImotor/MImotor.c ****     decode_temp_mi = (rx_data[4] << 8 | rx_data[5]);
  26:moudels/motor/MImotor/MImotor.c ****     RxCAN_info->torque = ((float)decode_temp_mi-32767.5)/32767.5*12.0f;//Nm
  27:moudels/motor/MImotor/MImotor.c **** 
  28:moudels/motor/MImotor/MImotor.c ****     decode_temp_mi = (rx_data[6] << 8 | rx_data[7]);
  29:moudels/motor/MImotor/MImotor.c ****     RxCAN_info->temperature = (float)decode_temp_mi/10.0f;//ÊëÑÊ∞èÂ∫¶
  30:moudels/motor/MImotor/MImotor.c ****  }
ARM GAS  C:\Users\Sive\AppData\Local\Temp\ccNX7ZTf.s 			page 2


  31:moudels/motor/MImotor/MImotor.c **** static void DecodeMIMotor(CANInstance *_instance)
  32:moudels/motor/MImotor/MImotor.c **** {
  33:moudels/motor/MImotor/MImotor.c ****     uint8_t *rxbuff=_instance->rx_buff;
  34:moudels/motor/MImotor/MImotor.c ****     MIMotorInstance *motor = (MIMotorInstance *)_instance->id;
  35:moudels/motor/MImotor/MImotor.c ****     MI_Motor_Measure_s *measure = &motor->measure; // measureË¶ÅÂ§öÊ¨°‰ΩøÁî®,‰øùÂ≠òÊåáÈíàÂáèÂ∞èËÆøÂ
  36:moudels/motor/MImotor/MImotor.c ****     RxCAN_info_s  RxCAN_info;//ÂÇ®Â≠òÊé•ÂèóÁöÑÊ†áËØÜÁ¨¶
  37:moudels/motor/MImotor/MImotor.c ****     DaemonReload(motor->daemon);
  38:moudels/motor/MImotor/MImotor.c ****     motor->dt = DWT_GetDeltaT(&motor->feed_cnt);
  39:moudels/motor/MImotor/MImotor.c ****     memcpy(&RxCAN_info,&_instance->rxconf.ExtId,4);//Â∞ÜÊâ©Â±ïÊ†áËØÜÁ¨¶ÁöÑÂÜÖÂÆπËß£Á†ÅÂà∞ÁºìÂ≠òÂå∫Ô
  40:moudels/motor/MImotor/MImotor.c ****     if(RxCAN_info.communication_type == 0){//ÈÄö‰ø°Á±ªÂûã0ÁöÑÂèçÈ¶àÂ∏ßËß£Á†Å
  41:moudels/motor/MImotor/MImotor.c ****         RxCAN_info_type_0_s RxCAN_info_type_0;
  42:moudels/motor/MImotor/MImotor.c ****         memcpy(&RxCAN_info_type_0,&_instance->rxconf.ExtId,4);//Â∞ÜÊâ©Â±ïÊ†áËØÜÁ¨¶ÁöÑÂÜÖÂÆπËß£Á†ÅÊà
  43:moudels/motor/MImotor/MImotor.c ****         // memcpy(&RxCAN_info_type_0.MCU_id,&_instance->rxconf.ExtId,8);//Ëé∑ÂèñMCUÊ†áËØÜÁ¨¶
  44:moudels/motor/MImotor/MImotor.c ****         measure->motor_id=RxCAN_info_type_0.motor_id;
  45:moudels/motor/MImotor/MImotor.c ****     }else if(RxCAN_info.communication_type == 2){//ÈÄö‰ø°Á±ªÂûã2ÁöÑÂèçÈ¶àÂ∏ßËß£Á†Å
  46:moudels/motor/MImotor/MImotor.c ****         RxCAN_info_type_2_s RxCAN_info_type_2;
  47:moudels/motor/MImotor/MImotor.c ****         memcpy(&RxCAN_info_type_2,&_instance->rxconf.ExtId,4);//Â∞ÜÊâ©Â±ïÊ†áËØÜÁ¨¶ÁöÑÂÜÖÂÆπËß£Á†ÅÊà
  48:moudels/motor/MImotor/MImotor.c ****         MI_motor_RxDecode(&RxCAN_info_type_2,rxbuff);//ÈÄö‰ø°Á±ªÂûã2ÁöÑÊï∞ÊçÆËß£Á†Å
  49:moudels/motor/MImotor/MImotor.c ****         measure->angle_single_round=RxCAN_info_type_2.angle;
  50:moudels/motor/MImotor/MImotor.c ****         measure->real_current=RxCAN_info_type_2.torque;
  51:moudels/motor/MImotor/MImotor.c ****         measure->speed_aps=RxCAN_info_type_2.speed;
  52:moudels/motor/MImotor/MImotor.c ****         measure->temperature=RxCAN_info_type_2.temperature;
  53:moudels/motor/MImotor/MImotor.c ****     }else if(RxCAN_info.communication_type == 17){//ÈÄö‰ø°Á±ªÂûã17ÁöÑÂèçÈ¶àÂ∏ßËß£Á†Å
  54:moudels/motor/MImotor/MImotor.c ****         RxCAN_info_type_17_s RxCAN_info_type_17;
  55:moudels/motor/MImotor/MImotor.c ****         memcpy(&RxCAN_info_type_17,&_instance->rxconf.ExtId,4);//Â∞ÜÊâ©Â±ïÊ†áËØÜÁ¨¶ÁöÑÂÜÖÂÆπËß£Á†ÅÊ
  56:moudels/motor/MImotor/MImotor.c ****         memcpy(&RxCAN_info_type_17.index,&_instance->rx_buff[0],2);//Ëé∑ÂèñÊü•ÊâæÁöÑÂèÇÊï∞Á¥¢ÂºïÁ†Å
  57:moudels/motor/MImotor/MImotor.c ****         memcpy(&RxCAN_info_type_17.param,&_instance->rx_buff[0],4);//Ëé∑ÂèñÊü•ÊâæÁöÑÂèÇÊï∞‰ø°ÊÅØ
  58:moudels/motor/MImotor/MImotor.c ****         measure->motor_id=RxCAN_info_type_17.motor_id;
  59:moudels/motor/MImotor/MImotor.c ****         measure->index=RxCAN_info_type_17.index;
  60:moudels/motor/MImotor/MImotor.c ****         measure->param=RxCAN_info_type_17.param;
  61:moudels/motor/MImotor/MImotor.c ****     }
  62:moudels/motor/MImotor/MImotor.c **** 
  63:moudels/motor/MImotor/MImotor.c **** 
  64:moudels/motor/MImotor/MImotor.c **** }
  65:moudels/motor/MImotor/MImotor.c **** 
  66:moudels/motor/MImotor/MImotor.c **** static void MIMotorLostCallback(void *motor_ptr)
  67:moudels/motor/MImotor/MImotor.c **** {
  29              		.loc 1 67 1 view -0
  30              		.cfi_startproc
  31              		@ args = 0, pretend = 0, frame = 0
  32              		@ frame_needed = 0, uses_anonymous_args = 0
  33              		@ link register save eliminated.
  68:moudels/motor/MImotor/MImotor.c ****     MIMotorInstance *motor = (MIMotorInstance *)motor_ptr;
  34              		.loc 1 68 5 view .LVU1
  69:moudels/motor/MImotor/MImotor.c ****     uint16_t can_bus = motor->motor_can_instance->can_handle == &hcan1 ? 1 : 2;
  35              		.loc 1 69 5 view .LVU2
  70:moudels/motor/MImotor/MImotor.c ****     LOGWARNING("[mi_motor] Motor lost, can bus [%d] , id [%d]", can_bus, motor->motor_can_instance-
  36              		.loc 1 70 107 view .LVU3
  71:moudels/motor/MImotor/MImotor.c **** }
  37              		.loc 1 71 1 is_stmt 0 view .LVU4
  38 0000 7047     		bx	lr
  39              		.cfi_endproc
  40              	.LFE139:
  42              		.global	__aeabi_f2d
  43              		.global	__aeabi_dsub
  44              		.global	__aeabi_ddiv
  45              		.global	__aeabi_dmul
ARM GAS  C:\Users\Sive\AppData\Local\Temp\ccNX7ZTf.s 			page 3


  46              		.global	__aeabi_d2f
  47              		.section	.text.MI_motor_RxDecode,"ax",%progbits
  48              		.align	1
  49              		.global	MI_motor_RxDecode
  50              		.syntax unified
  51              		.thumb
  52              		.thumb_func
  54              	MI_motor_RxDecode:
  55              	.LVL1:
  56              	.LFB137:
  17:moudels/motor/MImotor/MImotor.c ****     uint16_t decode_temp_mi;//Â∞èÁ±≥ÁîµÊú∫ÂèçÈ¶àÊï∞ÊçÆËß£Á†ÅÁºìÂÜ≤
  57              		.loc 1 17 1 is_stmt 1 view -0
  58              		.cfi_startproc
  59              		@ args = 0, pretend = 0, frame = 0
  60              		@ frame_needed = 0, uses_anonymous_args = 0
  17:moudels/motor/MImotor/MImotor.c ****     uint16_t decode_temp_mi;//Â∞èÁ±≥ÁîµÊú∫ÂèçÈ¶àÊï∞ÊçÆËß£Á†ÅÁºìÂÜ≤
  61              		.loc 1 17 1 is_stmt 0 view .LVU6
  62 0000 38B5     		push	{r3, r4, r5, lr}
  63              		.cfi_def_cfa_offset 16
  64              		.cfi_offset 3, -16
  65              		.cfi_offset 4, -12
  66              		.cfi_offset 5, -8
  67              		.cfi_offset 14, -4
  68 0002 0546     		mov	r5, r0
  69 0004 0C46     		mov	r4, r1
  18:moudels/motor/MImotor/MImotor.c ****     decode_temp_mi = (rx_data[0] << 8 | rx_data[1]);
  70              		.loc 1 18 5 is_stmt 1 view .LVU7
  19:moudels/motor/MImotor/MImotor.c ****     RxCAN_info->angle = ((float)decode_temp_mi-32767.5)/32767.5*4*3.1415926f;//rad  
  71              		.loc 1 19 5 view .LVU8
  19:moudels/motor/MImotor/MImotor.c ****     RxCAN_info->angle = ((float)decode_temp_mi-32767.5)/32767.5*4*3.1415926f;//rad  
  72              		.loc 1 19 30 is_stmt 0 view .LVU9
  73 0006 0B78     		ldrb	r3, [r1]	@ zero_extendqisi2
  19:moudels/motor/MImotor/MImotor.c ****     RxCAN_info->angle = ((float)decode_temp_mi-32767.5)/32767.5*4*3.1415926f;//rad  
  74              		.loc 1 19 48 view .LVU10
  75 0008 4878     		ldrb	r0, [r1, #1]	@ zero_extendqisi2
  76              	.LVL2:
  19:moudels/motor/MImotor/MImotor.c ****     RxCAN_info->angle = ((float)decode_temp_mi-32767.5)/32767.5*4*3.1415926f;//rad  
  77              		.loc 1 19 20 view .LVU11
  78 000a 40EA0320 		orr	r0, r0, r3, lsl #8
  79              	.LVL3:
  20:moudels/motor/MImotor/MImotor.c **** 
  80              		.loc 1 20 5 is_stmt 1 view .LVU12
  20:moudels/motor/MImotor/MImotor.c **** 
  81              		.loc 1 20 26 is_stmt 0 view .LVU13
  82 000e 07EE900A 		vmov	s15, r0	@ int
  83 0012 F8EE677A 		vcvt.f32.u32	s15, s15
  84 0016 17EE900A 		vmov	r0, s15
  85              	.LVL4:
  20:moudels/motor/MImotor/MImotor.c **** 
  86              		.loc 1 20 26 view .LVU14
  87 001a FFF7FEFF 		bl	__aeabi_f2d
  88              	.LVL5:
  20:moudels/motor/MImotor/MImotor.c **** 
  89              		.loc 1 20 47 view .LVU15
  90 001e 0022     		movs	r2, #0
  91 0020 2F4B     		ldr	r3, .L4+8
  92 0022 FFF7FEFF 		bl	__aeabi_dsub
ARM GAS  C:\Users\Sive\AppData\Local\Temp\ccNX7ZTf.s 			page 4


  93              	.LVL6:
  20:moudels/motor/MImotor/MImotor.c **** 
  94              		.loc 1 20 56 view .LVU16
  95 0026 0022     		movs	r2, #0
  96 0028 2D4B     		ldr	r3, .L4+8
  97 002a FFF7FEFF 		bl	__aeabi_ddiv
  98              	.LVL7:
  20:moudels/motor/MImotor/MImotor.c **** 
  99              		.loc 1 20 64 view .LVU17
 100 002e 0022     		movs	r2, #0
 101 0030 2C4B     		ldr	r3, .L4+12
 102 0032 FFF7FEFF 		bl	__aeabi_dmul
 103              	.LVL8:
  20:moudels/motor/MImotor/MImotor.c **** 
 104              		.loc 1 20 66 view .LVU18
 105 0036 28A3     		adr	r3, .L4
 106 0038 D3E90023 		ldrd	r2, [r3]
 107 003c FFF7FEFF 		bl	__aeabi_dmul
 108              	.LVL9:
 109 0040 FFF7FEFF 		bl	__aeabi_d2f
 110              	.LVL10:
  20:moudels/motor/MImotor/MImotor.c **** 
 111              		.loc 1 20 23 view .LVU19
 112 0044 6860     		str	r0, [r5, #4]	@ unaligned
  22:moudels/motor/MImotor/MImotor.c ****     RxCAN_info->speed = ((float)decode_temp_mi-32767.5)/32767.5*30.0f;//Âçï‰Ωçrad/s
 113              		.loc 1 22 5 is_stmt 1 view .LVU20
  22:moudels/motor/MImotor/MImotor.c ****     RxCAN_info->speed = ((float)decode_temp_mi-32767.5)/32767.5*30.0f;//Âçï‰Ωçrad/s
 114              		.loc 1 22 30 is_stmt 0 view .LVU21
 115 0046 A378     		ldrb	r3, [r4, #2]	@ zero_extendqisi2
  22:moudels/motor/MImotor/MImotor.c ****     RxCAN_info->speed = ((float)decode_temp_mi-32767.5)/32767.5*30.0f;//Âçï‰Ωçrad/s
 116              		.loc 1 22 48 view .LVU22
 117 0048 E078     		ldrb	r0, [r4, #3]	@ zero_extendqisi2
  22:moudels/motor/MImotor/MImotor.c ****     RxCAN_info->speed = ((float)decode_temp_mi-32767.5)/32767.5*30.0f;//Âçï‰Ωçrad/s
 118              		.loc 1 22 20 view .LVU23
 119 004a 40EA0320 		orr	r0, r0, r3, lsl #8
 120              	.LVL11:
  23:moudels/motor/MImotor/MImotor.c **** 
 121              		.loc 1 23 5 is_stmt 1 view .LVU24
  23:moudels/motor/MImotor/MImotor.c **** 
 122              		.loc 1 23 26 is_stmt 0 view .LVU25
 123 004e 07EE900A 		vmov	s15, r0	@ int
 124 0052 F8EE677A 		vcvt.f32.u32	s15, s15
 125 0056 17EE900A 		vmov	r0, s15
 126              	.LVL12:
  23:moudels/motor/MImotor/MImotor.c **** 
 127              		.loc 1 23 26 view .LVU26
 128 005a FFF7FEFF 		bl	__aeabi_f2d
 129              	.LVL13:
  23:moudels/motor/MImotor/MImotor.c **** 
 130              		.loc 1 23 47 view .LVU27
 131 005e 0022     		movs	r2, #0
 132 0060 1F4B     		ldr	r3, .L4+8
 133 0062 FFF7FEFF 		bl	__aeabi_dsub
 134              	.LVL14:
  23:moudels/motor/MImotor/MImotor.c **** 
 135              		.loc 1 23 56 view .LVU28
 136 0066 0022     		movs	r2, #0
ARM GAS  C:\Users\Sive\AppData\Local\Temp\ccNX7ZTf.s 			page 5


 137 0068 1D4B     		ldr	r3, .L4+8
 138 006a FFF7FEFF 		bl	__aeabi_ddiv
 139              	.LVL15:
  23:moudels/motor/MImotor/MImotor.c **** 
 140              		.loc 1 23 64 view .LVU29
 141 006e 0022     		movs	r2, #0
 142 0070 1D4B     		ldr	r3, .L4+16
 143 0072 FFF7FEFF 		bl	__aeabi_dmul
 144              	.LVL16:
 145 0076 FFF7FEFF 		bl	__aeabi_d2f
 146              	.LVL17:
  23:moudels/motor/MImotor/MImotor.c **** 
 147              		.loc 1 23 23 view .LVU30
 148 007a A860     		str	r0, [r5, #8]	@ unaligned
  25:moudels/motor/MImotor/MImotor.c ****     RxCAN_info->torque = ((float)decode_temp_mi-32767.5)/32767.5*12.0f;//Nm
 149              		.loc 1 25 5 is_stmt 1 view .LVU31
  25:moudels/motor/MImotor/MImotor.c ****     RxCAN_info->torque = ((float)decode_temp_mi-32767.5)/32767.5*12.0f;//Nm
 150              		.loc 1 25 30 is_stmt 0 view .LVU32
 151 007c 2379     		ldrb	r3, [r4, #4]	@ zero_extendqisi2
  25:moudels/motor/MImotor/MImotor.c ****     RxCAN_info->torque = ((float)decode_temp_mi-32767.5)/32767.5*12.0f;//Nm
 152              		.loc 1 25 48 view .LVU33
 153 007e 6079     		ldrb	r0, [r4, #5]	@ zero_extendqisi2
  25:moudels/motor/MImotor/MImotor.c ****     RxCAN_info->torque = ((float)decode_temp_mi-32767.5)/32767.5*12.0f;//Nm
 154              		.loc 1 25 20 view .LVU34
 155 0080 40EA0320 		orr	r0, r0, r3, lsl #8
 156              	.LVL18:
  26:moudels/motor/MImotor/MImotor.c **** 
 157              		.loc 1 26 5 is_stmt 1 view .LVU35
  26:moudels/motor/MImotor/MImotor.c **** 
 158              		.loc 1 26 27 is_stmt 0 view .LVU36
 159 0084 07EE900A 		vmov	s15, r0	@ int
 160 0088 F8EE677A 		vcvt.f32.u32	s15, s15
 161 008c 17EE900A 		vmov	r0, s15
 162              	.LVL19:
  26:moudels/motor/MImotor/MImotor.c **** 
 163              		.loc 1 26 27 view .LVU37
 164 0090 FFF7FEFF 		bl	__aeabi_f2d
 165              	.LVL20:
  26:moudels/motor/MImotor/MImotor.c **** 
 166              		.loc 1 26 48 view .LVU38
 167 0094 0022     		movs	r2, #0
 168 0096 124B     		ldr	r3, .L4+8
 169 0098 FFF7FEFF 		bl	__aeabi_dsub
 170              	.LVL21:
  26:moudels/motor/MImotor/MImotor.c **** 
 171              		.loc 1 26 57 view .LVU39
 172 009c 0022     		movs	r2, #0
 173 009e 104B     		ldr	r3, .L4+8
 174 00a0 FFF7FEFF 		bl	__aeabi_ddiv
 175              	.LVL22:
  26:moudels/motor/MImotor/MImotor.c **** 
 176              		.loc 1 26 65 view .LVU40
 177 00a4 0022     		movs	r2, #0
 178 00a6 114B     		ldr	r3, .L4+20
 179 00a8 FFF7FEFF 		bl	__aeabi_dmul
 180              	.LVL23:
 181 00ac FFF7FEFF 		bl	__aeabi_d2f
ARM GAS  C:\Users\Sive\AppData\Local\Temp\ccNX7ZTf.s 			page 6


 182              	.LVL24:
  26:moudels/motor/MImotor/MImotor.c **** 
 183              		.loc 1 26 24 view .LVU41
 184 00b0 E860     		str	r0, [r5, #12]	@ unaligned
  28:moudels/motor/MImotor/MImotor.c ****     RxCAN_info->temperature = (float)decode_temp_mi/10.0f;//ÊëÑÊ∞èÂ∫¶
 185              		.loc 1 28 5 is_stmt 1 view .LVU42
  28:moudels/motor/MImotor/MImotor.c ****     RxCAN_info->temperature = (float)decode_temp_mi/10.0f;//ÊëÑÊ∞èÂ∫¶
 186              		.loc 1 28 30 is_stmt 0 view .LVU43
 187 00b2 A279     		ldrb	r2, [r4, #6]	@ zero_extendqisi2
  28:moudels/motor/MImotor/MImotor.c ****     RxCAN_info->temperature = (float)decode_temp_mi/10.0f;//ÊëÑÊ∞èÂ∫¶
 188              		.loc 1 28 48 view .LVU44
 189 00b4 E379     		ldrb	r3, [r4, #7]	@ zero_extendqisi2
  28:moudels/motor/MImotor/MImotor.c ****     RxCAN_info->temperature = (float)decode_temp_mi/10.0f;//ÊëÑÊ∞èÂ∫¶
 190              		.loc 1 28 20 view .LVU45
 191 00b6 43EA0223 		orr	r3, r3, r2, lsl #8
 192              	.LVL25:
  29:moudels/motor/MImotor/MImotor.c ****  }
 193              		.loc 1 29 5 is_stmt 1 view .LVU46
  29:moudels/motor/MImotor/MImotor.c ****  }
 194              		.loc 1 29 31 is_stmt 0 view .LVU47
 195 00ba 07EE903A 		vmov	s15, r3	@ int
 196 00be F8EE677A 		vcvt.f32.u32	s15, s15
  29:moudels/motor/MImotor/MImotor.c ****  }
 197              		.loc 1 29 29 view .LVU48
 198 00c2 B2EE047A 		vmov.f32	s14, #1.0e+1
 199 00c6 C7EE877A 		vdiv.f32	s15, s15, s14
 200 00ca 17EE903A 		vmov	r3, s15
 201              	.LVL26:
  29:moudels/motor/MImotor/MImotor.c ****  }
 202              		.loc 1 29 29 view .LVU49
 203 00ce 2B61     		str	r3, [r5, #16]	@ unaligned
 204              	.LVL27:
  30:moudels/motor/MImotor/MImotor.c **** static void DecodeMIMotor(CANInstance *_instance)
 205              		.loc 1 30 2 view .LVU50
 206 00d0 38BD     		pop	{r3, r4, r5, pc}
 207              	.LVL28:
 208              	.L5:
  30:moudels/motor/MImotor/MImotor.c **** static void DecodeMIMotor(CANInstance *_instance)
 209              		.loc 1 30 2 view .LVU51
 210 00d2 00BFAFF3 		.align	3
 210      0080
 211              	.L4:
 212 00d8 00000040 		.word	1073741824
 213 00dc FB210940 		.word	1074340347
 214 00e0 E0FFDF40 		.word	1088421856
 215 00e4 00001040 		.word	1074790400
 216 00e8 00003E40 		.word	1077805056
 217 00ec 00002840 		.word	1076363264
 218              		.cfi_endproc
 219              	.LFE137:
 221              		.section	.text.DecodeMIMotor,"ax",%progbits
 222              		.align	1
 223              		.syntax unified
 224              		.thumb
 225              		.thumb_func
 227              	DecodeMIMotor:
 228              	.LVL29:
ARM GAS  C:\Users\Sive\AppData\Local\Temp\ccNX7ZTf.s 			page 7


 229              	.LFB138:
  32:moudels/motor/MImotor/MImotor.c ****     uint8_t *rxbuff=_instance->rx_buff;
 230              		.loc 1 32 1 is_stmt 1 view -0
 231              		.cfi_startproc
 232              		@ args = 0, pretend = 0, frame = 24
 233              		@ frame_needed = 0, uses_anonymous_args = 0
  32:moudels/motor/MImotor/MImotor.c ****     uint8_t *rxbuff=_instance->rx_buff;
 234              		.loc 1 32 1 is_stmt 0 view .LVU53
 235 0000 70B5     		push	{r4, r5, r6, lr}
 236              		.cfi_def_cfa_offset 16
 237              		.cfi_offset 4, -16
 238              		.cfi_offset 5, -12
 239              		.cfi_offset 6, -8
 240              		.cfi_offset 14, -4
 241 0002 86B0     		sub	sp, sp, #24
 242              		.cfi_def_cfa_offset 40
 243 0004 0446     		mov	r4, r0
  33:moudels/motor/MImotor/MImotor.c ****     MIMotorInstance *motor = (MIMotorInstance *)_instance->id;
 244              		.loc 1 33 5 is_stmt 1 view .LVU54
  33:moudels/motor/MImotor/MImotor.c ****     MIMotorInstance *motor = (MIMotorInstance *)_instance->id;
 245              		.loc 1 33 14 is_stmt 0 view .LVU55
 246 0006 00F14806 		add	r6, r0, #72
 247              	.LVL30:
  34:moudels/motor/MImotor/MImotor.c ****     MI_Motor_Measure_s *measure = &motor->measure; // measureË¶ÅÂ§öÊ¨°‰ΩøÁî®,‰øùÂ≠òÊåáÈíàÂáèÂ∞èËÆøÂ
 248              		.loc 1 34 5 is_stmt 1 view .LVU56
  34:moudels/motor/MImotor/MImotor.c ****     MI_Motor_Measure_s *measure = &motor->measure; // measureË¶ÅÂ§öÊ¨°‰ΩøÁî®,‰øùÂ≠òÊåáÈíàÂáèÂ∞èËÆøÂ
 249              		.loc 1 34 22 is_stmt 0 view .LVU57
 250 000a D0F85950 		ldr	r5, [r0, #89]	@ unaligned
 251              	.LVL31:
  35:moudels/motor/MImotor/MImotor.c ****     RxCAN_info_s  RxCAN_info;//ÂÇ®Â≠òÊé•ÂèóÁöÑÊ†áËØÜÁ¨¶
 252              		.loc 1 35 5 is_stmt 1 view .LVU58
  36:moudels/motor/MImotor/MImotor.c ****     DaemonReload(motor->daemon);
 253              		.loc 1 36 5 view .LVU59
  37:moudels/motor/MImotor/MImotor.c ****     motor->dt = DWT_GetDeltaT(&motor->feed_cnt);
 254              		.loc 1 37 5 view .LVU60
 255 000e D5F8A801 		ldr	r0, [r5, #424]
 256              	.LVL32:
  37:moudels/motor/MImotor/MImotor.c ****     motor->dt = DWT_GetDeltaT(&motor->feed_cnt);
 257              		.loc 1 37 5 is_stmt 0 view .LVU61
 258 0012 FFF7FEFF 		bl	DaemonReload
 259              	.LVL33:
  38:moudels/motor/MImotor/MImotor.c ****     memcpy(&RxCAN_info,&_instance->rxconf.ExtId,4);//Â∞ÜÊâ©Â±ïÊ†áËØÜÁ¨¶ÁöÑÂÜÖÂÆπËß£Á†ÅÂà∞ÁºìÂ≠òÂå∫Ô
 260              		.loc 1 38 5 is_stmt 1 view .LVU62
  38:moudels/motor/MImotor/MImotor.c ****     memcpy(&RxCAN_info,&_instance->rxconf.ExtId,4);//Â∞ÜÊâ©Â±ïÊ†áËØÜÁ¨¶ÁöÑÂÜÖÂÆπËß£Á†ÅÂà∞ÁºìÂ≠òÂå∫Ô
 261              		.loc 1 38 17 is_stmt 0 view .LVU63
 262 0016 05F5D670 		add	r0, r5, #428
 263 001a FFF7FEFF 		bl	DWT_GetDeltaT
 264              	.LVL34:
  38:moudels/motor/MImotor/MImotor.c ****     memcpy(&RxCAN_info,&_instance->rxconf.ExtId,4);//Â∞ÜÊâ©Â±ïÊ†áËØÜÁ¨¶ÁöÑÂÜÖÂÆπËß£Á†ÅÂà∞ÁºìÂ≠òÂå∫Ô
 265              		.loc 1 38 15 discriminator 1 view .LVU64
 266 001e 85ED6C0A 		vstr.32	s0, [r5, #432]
  39:moudels/motor/MImotor/MImotor.c ****     if(RxCAN_info.communication_type == 0){//ÈÄö‰ø°Á±ªÂûã0ÁöÑÂèçÈ¶àÂ∏ßËß£Á†Å
 267              		.loc 1 39 5 is_stmt 1 view .LVU65
 268 0022 236A     		ldr	r3, [r4, #32]	@ unaligned
 269 0024 0593     		str	r3, [sp, #20]
  40:moudels/motor/MImotor/MImotor.c ****         RxCAN_info_type_0_s RxCAN_info_type_0;
 270              		.loc 1 40 5 view .LVU66
ARM GAS  C:\Users\Sive\AppData\Local\Temp\ccNX7ZTf.s 			page 8


  40:moudels/motor/MImotor/MImotor.c ****         RxCAN_info_type_0_s RxCAN_info_type_0;
 271              		.loc 1 40 38 is_stmt 0 view .LVU67
 272 0026 C3F30462 		ubfx	r2, r3, #24, #5
  40:moudels/motor/MImotor/MImotor.c ****         RxCAN_info_type_0_s RxCAN_info_type_0;
 273              		.loc 1 40 7 view .LVU68
 274 002a 13F0F85F 		tst	r3, #520093696
 275 002e 0AD1     		bne	.L7
 276              	.LBB2:
  41:moudels/motor/MImotor/MImotor.c ****         memcpy(&RxCAN_info_type_0,&_instance->rxconf.ExtId,4);//Â∞ÜÊâ©Â±ïÊ†áËØÜÁ¨¶ÁöÑÂÜÖÂÆπËß£Á†ÅÊà
 277              		.loc 1 41 9 is_stmt 1 view .LVU69
  42:moudels/motor/MImotor/MImotor.c ****         // memcpy(&RxCAN_info_type_0.MCU_id,&_instance->rxconf.ExtId,8);//Ëé∑ÂèñMCUÊ†áËØÜÁ¨¶
 278              		.loc 1 42 9 view .LVU70
 279 0030 0093     		str	r3, [sp]
  44:moudels/motor/MImotor/MImotor.c ****     }else if(RxCAN_info.communication_type == 2){//ÈÄö‰ø°Á±ªÂûã2ÁöÑÂèçÈ¶àÂ∏ßËß£Á†Å
 280              		.loc 1 44 9 view .LVU71
  44:moudels/motor/MImotor/MImotor.c ****     }else if(RxCAN_info.communication_type == 2){//ÈÄö‰ø°Á±ªÂûã2ÁöÑÂèçÈ¶àÂ∏ßËß£Á†Å
 281              		.loc 1 44 26 is_stmt 0 view .LVU72
 282 0032 C3F30F23 		ubfx	r3, r3, #8, #16
 283 0036 07EE903A 		vmov	s15, r3	@ int
 284 003a F8EE677A 		vcvt.f32.u32	s15, s15
 285 003e C5ED037A 		vstr.32	s15, [r5, #12]
 286              	.L6:
 287              	.LBE2:
  64:moudels/motor/MImotor/MImotor.c **** 
 288              		.loc 1 64 1 view .LVU73
 289 0042 06B0     		add	sp, sp, #24
 290              		.cfi_remember_state
 291              		.cfi_def_cfa_offset 16
 292              		@ sp needed
 293 0044 70BD     		pop	{r4, r5, r6, pc}
 294              	.LVL35:
 295              	.L7:
 296              		.cfi_restore_state
  45:moudels/motor/MImotor/MImotor.c ****         RxCAN_info_type_2_s RxCAN_info_type_2;
 297              		.loc 1 45 11 is_stmt 1 view .LVU74
  45:moudels/motor/MImotor/MImotor.c ****         RxCAN_info_type_2_s RxCAN_info_type_2;
 298              		.loc 1 45 13 is_stmt 0 view .LVU75
 299 0046 022A     		cmp	r2, #2
 300 0048 18D0     		beq	.L11
  53:moudels/motor/MImotor/MImotor.c ****         RxCAN_info_type_17_s RxCAN_info_type_17;
 301              		.loc 1 53 11 is_stmt 1 view .LVU76
  53:moudels/motor/MImotor/MImotor.c ****         RxCAN_info_type_17_s RxCAN_info_type_17;
 302              		.loc 1 53 13 is_stmt 0 view .LVU77
 303 004a 112A     		cmp	r2, #17
 304 004c F9D1     		bne	.L6
 305              	.LBB3:
  54:moudels/motor/MImotor/MImotor.c ****         memcpy(&RxCAN_info_type_17,&_instance->rxconf.ExtId,4);//Â∞ÜÊâ©Â±ïÊ†áËØÜÁ¨¶ÁöÑÂÜÖÂÆπËß£Á†ÅÊ
 306              		.loc 1 54 9 is_stmt 1 view .LVU78
  55:moudels/motor/MImotor/MImotor.c ****         memcpy(&RxCAN_info_type_17.index,&_instance->rx_buff[0],2);//Ëé∑ÂèñÊü•ÊâæÁöÑÂèÇÊï∞Á¥¢ÂºïÁ†Å
 307              		.loc 1 55 9 view .LVU79
 308 004e 0093     		str	r3, [sp]
  56:moudels/motor/MImotor/MImotor.c ****         memcpy(&RxCAN_info_type_17.param,&_instance->rx_buff[0],4);//Ëé∑ÂèñÊü•ÊâæÁöÑÂèÇÊï∞‰ø°ÊÅØ
 309              		.loc 1 56 9 view .LVU80
 310 0050 B4F84810 		ldrh	r1, [r4, #72]	@ unaligned
 311 0054 ADF80410 		strh	r1, [sp, #4]	@ movhi
  57:moudels/motor/MImotor/MImotor.c ****         measure->motor_id=RxCAN_info_type_17.motor_id;
 312              		.loc 1 57 9 view .LVU81
ARM GAS  C:\Users\Sive\AppData\Local\Temp\ccNX7ZTf.s 			page 9


 313 0058 A26C     		ldr	r2, [r4, #72]	@ unaligned
 314 005a CDF80620 		str	r2, [sp, #6]	@ unaligned
  58:moudels/motor/MImotor/MImotor.c ****         measure->index=RxCAN_info_type_17.index;
 315              		.loc 1 58 9 view .LVU82
  58:moudels/motor/MImotor/MImotor.c ****         measure->index=RxCAN_info_type_17.index;
 316              		.loc 1 58 26 is_stmt 0 view .LVU83
 317 005e DBB2     		uxtb	r3, r3
 318 0060 07EE903A 		vmov	s15, r3	@ int
 319 0064 F8EE677A 		vcvt.f32.u32	s15, s15
 320 0068 C5ED037A 		vstr.32	s15, [r5, #12]
  59:moudels/motor/MImotor/MImotor.c ****         measure->param=RxCAN_info_type_17.param;
 321              		.loc 1 59 9 is_stmt 1 view .LVU84
  59:moudels/motor/MImotor/MImotor.c ****         measure->param=RxCAN_info_type_17.param;
 322              		.loc 1 59 23 is_stmt 0 view .LVU85
 323 006c 07EE901A 		vmov	s15, r1	@ int
 324 0070 F8EE677A 		vcvt.f32.u32	s15, s15
 325 0074 C5ED047A 		vstr.32	s15, [r5, #16]
  60:moudels/motor/MImotor/MImotor.c ****     }
 326              		.loc 1 60 9 is_stmt 1 view .LVU86
  60:moudels/motor/MImotor/MImotor.c ****     }
 327              		.loc 1 60 23 is_stmt 0 view .LVU87
 328 0078 6A61     		str	r2, [r5, #20]	@ float
 329              	.LBE3:
  64:moudels/motor/MImotor/MImotor.c **** 
 330              		.loc 1 64 1 view .LVU88
 331 007a E2E7     		b	.L6
 332              	.L11:
 333              	.LBB4:
  46:moudels/motor/MImotor/MImotor.c ****         memcpy(&RxCAN_info_type_2,&_instance->rxconf.ExtId,4);//Â∞ÜÊâ©Â±ïÊ†áËØÜÁ¨¶ÁöÑÂÜÖÂÆπËß£Á†ÅÊà
 334              		.loc 1 46 9 is_stmt 1 view .LVU89
  47:moudels/motor/MImotor/MImotor.c ****         MI_motor_RxDecode(&RxCAN_info_type_2,rxbuff);//ÈÄö‰ø°Á±ªÂûã2ÁöÑÊï∞ÊçÆËß£Á†Å
 335              		.loc 1 47 9 view .LVU90
 336 007c 0093     		str	r3, [sp]
  48:moudels/motor/MImotor/MImotor.c ****         measure->angle_single_round=RxCAN_info_type_2.angle;
 337              		.loc 1 48 9 view .LVU91
 338 007e 3146     		mov	r1, r6
 339 0080 6846     		mov	r0, sp
 340 0082 FFF7FEFF 		bl	MI_motor_RxDecode
 341              	.LVL36:
  49:moudels/motor/MImotor/MImotor.c ****         measure->real_current=RxCAN_info_type_2.torque;
 342              		.loc 1 49 9 view .LVU92
  49:moudels/motor/MImotor/MImotor.c ****         measure->real_current=RxCAN_info_type_2.torque;
 343              		.loc 1 49 54 is_stmt 0 view .LVU93
 344 0086 019B     		ldr	r3, [sp, #4]	@ float
  49:moudels/motor/MImotor/MImotor.c ****         measure->real_current=RxCAN_info_type_2.torque;
 345              		.loc 1 49 36 view .LVU94
 346 0088 2B60     		str	r3, [r5]	@ float
  50:moudels/motor/MImotor/MImotor.c ****         measure->speed_aps=RxCAN_info_type_2.speed;
 347              		.loc 1 50 9 is_stmt 1 view .LVU95
  50:moudels/motor/MImotor/MImotor.c ****         measure->speed_aps=RxCAN_info_type_2.speed;
 348              		.loc 1 50 48 is_stmt 0 view .LVU96
 349 008a DDED037A 		vldr.32	s15, [sp, #12]
  50:moudels/motor/MImotor/MImotor.c ****         measure->speed_aps=RxCAN_info_type_2.speed;
 350              		.loc 1 50 30 view .LVU97
 351 008e FDEEE77A 		vcvt.s32.f32	s15, s15
 352 0092 17EE903A 		vmov	r3, s15	@ int
 353 0096 2B81     		strh	r3, [r5, #8]	@ movhi
ARM GAS  C:\Users\Sive\AppData\Local\Temp\ccNX7ZTf.s 			page 10


  51:moudels/motor/MImotor/MImotor.c ****         measure->temperature=RxCAN_info_type_2.temperature;
 354              		.loc 1 51 9 is_stmt 1 view .LVU98
  51:moudels/motor/MImotor/MImotor.c ****         measure->temperature=RxCAN_info_type_2.temperature;
 355              		.loc 1 51 45 is_stmt 0 view .LVU99
 356 0098 029B     		ldr	r3, [sp, #8]	@ float
  51:moudels/motor/MImotor/MImotor.c ****         measure->temperature=RxCAN_info_type_2.temperature;
 357              		.loc 1 51 27 view .LVU100
 358 009a 6B60     		str	r3, [r5, #4]	@ float
  52:moudels/motor/MImotor/MImotor.c ****     }else if(RxCAN_info.communication_type == 17){//ÈÄö‰ø°Á±ªÂûã17ÁöÑÂèçÈ¶àÂ∏ßËß£Á†Å
 359              		.loc 1 52 9 is_stmt 1 view .LVU101
  52:moudels/motor/MImotor/MImotor.c ****     }else if(RxCAN_info.communication_type == 17){//ÈÄö‰ø°Á±ªÂûã17ÁöÑÂèçÈ¶àÂ∏ßËß£Á†Å
 360              		.loc 1 52 47 is_stmt 0 view .LVU102
 361 009c DDED047A 		vldr.32	s15, [sp, #16]
  52:moudels/motor/MImotor/MImotor.c ****     }else if(RxCAN_info.communication_type == 17){//ÈÄö‰ø°Á±ªÂûã17ÁöÑÂèçÈ¶àÂ∏ßËß£Á†Å
 362              		.loc 1 52 29 view .LVU103
 363 00a0 FCEEE77A 		vcvt.u32.f32	s15, s15
 364 00a4 17EE903A 		vmov	r3, s15	@ int
 365 00a8 AB72     		strb	r3, [r5, #10]
 366              	.LBE4:
 367 00aa CAE7     		b	.L6
 368              		.cfi_endproc
 369              	.LFE138:
 371              		.section	.text.MIMotorStop,"ax",%progbits
 372              		.align	1
 373              		.global	MIMotorStop
 374              		.syntax unified
 375              		.thumb
 376              		.thumb_func
 378              	MIMotorStop:
 379              	.LVL37:
 380              	.LFB142:
  72:moudels/motor/MImotor/MImotor.c **** MIMotorInstance *MIMotorInit(Motor_Init_Config_s *config)
  73:moudels/motor/MImotor/MImotor.c **** {
  74:moudels/motor/MImotor/MImotor.c ****     MIMotorInstance *instance = (MIMotorInstance *)malloc(sizeof(MIMotorInstance));
  75:moudels/motor/MImotor/MImotor.c ****     memset(instance, 0, sizeof(MIMotorInstance));
  76:moudels/motor/MImotor/MImotor.c ****     instance->motor_type = config->motor_type;
  77:moudels/motor/MImotor/MImotor.c ****     instance->motor_settings = config->controller_setting_init_config;
  78:moudels/motor/MImotor/MImotor.c **** 
  79:moudels/motor/MImotor/MImotor.c ****     config->can_init_config.rx_id=config->can_init_config.tx_id;
  80:moudels/motor/MImotor/MImotor.c ****     config->can_init_config.can_module_callback=DecodeMIMotor;
  81:moudels/motor/MImotor/MImotor.c ****     config->can_init_config.id=instance;   
  82:moudels/motor/MImotor/MImotor.c ****     config->can_init_config.EXT_ID.motor_id=config->can_init_config.tx_id;
  83:moudels/motor/MImotor/MImotor.c ****     config->can_init_config.EXT_ID.data=0;
  84:moudels/motor/MImotor/MImotor.c ****     config->can_init_config.EXT_ID.mode=3;
  85:moudels/motor/MImotor/MImotor.c ****     config->can_init_config.EXT_ID.res=0;
  86:moudels/motor/MImotor/MImotor.c ****     instance->motor_can_instance = CANRegister(&config->can_init_config);//Ê≥®ÂÜåÂ∞èÁ±≥ÁîµÊú∫Âà∞can
  87:moudels/motor/MImotor/MImotor.c ****     // Ê≥®ÂÜåÂÆàÊä§Á∫øÁ®ã
  88:moudels/motor/MImotor/MImotor.c ****     Daemon_Init_Config_s daemon_config = {
  89:moudels/motor/MImotor/MImotor.c ****         .callback = MIMotorLostCallback,
  90:moudels/motor/MImotor/MImotor.c ****         .owner_id = instance,
  91:moudels/motor/MImotor/MImotor.c ****         .reload_count = 2, // 20msÊú™Êî∂Âà∞Êï∞ÊçÆÂàô‰∏¢Â§±
  92:moudels/motor/MImotor/MImotor.c ****     };
  93:moudels/motor/MImotor/MImotor.c ****     instance->daemon = DaemonRegister(&daemon_config);
  94:moudels/motor/MImotor/MImotor.c **** 
  95:moudels/motor/MImotor/MImotor.c ****     MIMotorEnable(instance);
  96:moudels/motor/MImotor/MImotor.c ****     mi_motor_instance[idx++] = instance;
  97:moudels/motor/MImotor/MImotor.c ****     return instance;
ARM GAS  C:\Users\Sive\AppData\Local\Temp\ccNX7ZTf.s 			page 11


  98:moudels/motor/MImotor/MImotor.c **** }
  99:moudels/motor/MImotor/MImotor.c **** 
 100:moudels/motor/MImotor/MImotor.c **** void MIMotorControl()
 101:moudels/motor/MImotor/MImotor.c **** {
 102:moudels/motor/MImotor/MImotor.c ****     MIMotorInstance *motor;
 103:moudels/motor/MImotor/MImotor.c ****     Motor_Control_Setting_s *motor_setting; // ÁîµÊú∫ÊéßÂà∂ÂèÇÊï∞
 104:moudels/motor/MImotor/MImotor.c ****     // Motor_Controller_s *motor_controller;   // ÁîµÊú∫ÊéßÂà∂Âô®
 105:moudels/motor/MImotor/MImotor.c ****     // MI_Motor_Measure_s *measure;           // ÁîµÊú∫ÊµãÈáèÂÄº
 106:moudels/motor/MImotor/MImotor.c ****     float ref;
 107:moudels/motor/MImotor/MImotor.c ****     for(size_t i=0;i<idx;++i)
 108:moudels/motor/MImotor/MImotor.c ****     {
 109:moudels/motor/MImotor/MImotor.c ****         motor = mi_motor_instance[i];
 110:moudels/motor/MImotor/MImotor.c ****         motor_setting = &motor->motor_settings;
 111:moudels/motor/MImotor/MImotor.c ****         // motor_controller = &motor->motor_controller;
 112:moudels/motor/MImotor/MImotor.c ****         // measure = &motor->measure;
 113:moudels/motor/MImotor/MImotor.c ****         ref = motor->motor_controller.pid_ref; // ‰øùÂ≠òËÆæÂÆöÂÄº,Èò≤Ê≠¢motor_controller->pid_refÂú
 114:moudels/motor/MImotor/MImotor.c ****         if((motor_setting->close_loop_type&&ANGLE_LOOP)){
 115:moudels/motor/MImotor/MImotor.c ****                 MI_motor_LocationControl(motor, ref);
 116:moudels/motor/MImotor/MImotor.c ****         }
 117:moudels/motor/MImotor/MImotor.c ****         if(motor_setting->close_loop_type&&SPEED_LOOP){
 118:moudels/motor/MImotor/MImotor.c ****                 MI_motor_SpeedControl(motor, ref);
 119:moudels/motor/MImotor/MImotor.c ****         }
 120:moudels/motor/MImotor/MImotor.c ****         if(motor_setting->close_loop_type&&CURRENT_LOOP){
 121:moudels/motor/MImotor/MImotor.c ****             MI_motor_TorqueControl(motor, ref);
 122:moudels/motor/MImotor/MImotor.c ****         }
 123:moudels/motor/MImotor/MImotor.c ****     }
 124:moudels/motor/MImotor/MImotor.c **** }
 125:moudels/motor/MImotor/MImotor.c **** void MIMotorStop(MIMotorInstance *motor)
 126:moudels/motor/MImotor/MImotor.c **** {
 381              		.loc 1 126 1 is_stmt 1 view -0
 382              		.cfi_startproc
 383              		@ args = 0, pretend = 0, frame = 0
 384              		@ frame_needed = 0, uses_anonymous_args = 0
 385              		@ link register save eliminated.
 127:moudels/motor/MImotor/MImotor.c ****     motor->stop_flag = MOTOR_STOP;
 386              		.loc 1 127 5 view .LVU105
 387              		.loc 1 127 22 is_stmt 0 view .LVU106
 388 0000 0023     		movs	r3, #0
 389 0002 80F8A531 		strb	r3, [r0, #421]
 128:moudels/motor/MImotor/MImotor.c **** }
 390              		.loc 1 128 1 view .LVU107
 391 0006 7047     		bx	lr
 392              		.cfi_endproc
 393              	.LFE142:
 395              		.section	.text.MIMotorEnable,"ax",%progbits
 396              		.align	1
 397              		.global	MIMotorEnable
 398              		.syntax unified
 399              		.thumb
 400              		.thumb_func
 402              	MIMotorEnable:
 403              	.LVL38:
 404              	.LFB143:
 129:moudels/motor/MImotor/MImotor.c **** 
 130:moudels/motor/MImotor/MImotor.c **** void MIMotorEnable(MIMotorInstance *motor)
 131:moudels/motor/MImotor/MImotor.c **** {
 405              		.loc 1 131 1 is_stmt 1 view -0
ARM GAS  C:\Users\Sive\AppData\Local\Temp\ccNX7ZTf.s 			page 12


 406              		.cfi_startproc
 407              		@ args = 0, pretend = 0, frame = 0
 408              		@ frame_needed = 0, uses_anonymous_args = 0
 409              		@ link register save eliminated.
 132:moudels/motor/MImotor/MImotor.c ****     motor->stop_flag = MOTOR_ENALBED;
 410              		.loc 1 132 5 view .LVU109
 411              		.loc 1 132 22 is_stmt 0 view .LVU110
 412 0000 0123     		movs	r3, #1
 413 0002 80F8A531 		strb	r3, [r0, #421]
 133:moudels/motor/MImotor/MImotor.c **** }
 414              		.loc 1 133 1 view .LVU111
 415 0006 7047     		bx	lr
 416              		.cfi_endproc
 417              	.LFE143:
 419              		.section	.text.MIMotorInit,"ax",%progbits
 420              		.align	1
 421              		.global	MIMotorInit
 422              		.syntax unified
 423              		.thumb
 424              		.thumb_func
 426              	MIMotorInit:
 427              	.LVL39:
 428              	.LFB140:
  73:moudels/motor/MImotor/MImotor.c ****     MIMotorInstance *instance = (MIMotorInstance *)malloc(sizeof(MIMotorInstance));
 429              		.loc 1 73 1 is_stmt 1 view -0
 430              		.cfi_startproc
 431              		@ args = 0, pretend = 0, frame = 16
 432              		@ frame_needed = 0, uses_anonymous_args = 0
  73:moudels/motor/MImotor/MImotor.c ****     MIMotorInstance *instance = (MIMotorInstance *)malloc(sizeof(MIMotorInstance));
 433              		.loc 1 73 1 is_stmt 0 view .LVU113
 434 0000 30B5     		push	{r4, r5, lr}
 435              		.cfi_def_cfa_offset 12
 436              		.cfi_offset 4, -12
 437              		.cfi_offset 5, -8
 438              		.cfi_offset 14, -4
 439 0002 85B0     		sub	sp, sp, #20
 440              		.cfi_def_cfa_offset 32
 441 0004 0446     		mov	r4, r0
  74:moudels/motor/MImotor/MImotor.c ****     memset(instance, 0, sizeof(MIMotorInstance));
 442              		.loc 1 74 5 is_stmt 1 view .LVU114
  74:moudels/motor/MImotor/MImotor.c ****     memset(instance, 0, sizeof(MIMotorInstance));
 443              		.loc 1 74 52 is_stmt 0 view .LVU115
 444 0006 4FF4DC70 		mov	r0, #440
 445              	.LVL40:
  74:moudels/motor/MImotor/MImotor.c ****     memset(instance, 0, sizeof(MIMotorInstance));
 446              		.loc 1 74 52 view .LVU116
 447 000a FFF7FEFF 		bl	malloc
 448              	.LVL41:
 449 000e 0546     		mov	r5, r0
 450              	.LVL42:
  75:moudels/motor/MImotor/MImotor.c ****     instance->motor_type = config->motor_type;
 451              		.loc 1 75 5 is_stmt 1 view .LVU117
 452 0010 4FF4DC72 		mov	r2, #440
 453 0014 0021     		movs	r1, #0
 454 0016 FFF7FEFF 		bl	memset
 455              	.LVL43:
  76:moudels/motor/MImotor/MImotor.c ****     instance->motor_settings = config->controller_setting_init_config;
ARM GAS  C:\Users\Sive\AppData\Local\Temp\ccNX7ZTf.s 			page 13


 456              		.loc 1 76 5 view .LVU118
  76:moudels/motor/MImotor/MImotor.c ****     instance->motor_settings = config->controller_setting_init_config;
 457              		.loc 1 76 34 is_stmt 0 view .LVU119
 458 001a 94F89B30 		ldrb	r3, [r4, #155]	@ zero_extendqisi2
  76:moudels/motor/MImotor/MImotor.c ****     instance->motor_settings = config->controller_setting_init_config;
 459              		.loc 1 76 26 view .LVU120
 460 001e 85F8A431 		strb	r3, [r5, #420]
  77:moudels/motor/MImotor/MImotor.c **** 
 461              		.loc 1 77 5 is_stmt 1 view .LVU121
  77:moudels/motor/MImotor/MImotor.c **** 
 462              		.loc 1 77 30 is_stmt 0 view .LVU122
 463 0022 04F19403 		add	r3, r4, #148
 464 0026 93E80300 		ldm	r3, {r0, r1}
 465 002a A861     		str	r0, [r5, #24]
 466 002c A983     		strh	r1, [r5, #28]	@ movhi
 467 002e 090C     		lsrs	r1, r1, #16
 468 0030 A977     		strb	r1, [r5, #30]
  79:moudels/motor/MImotor/MImotor.c ****     config->can_init_config.can_module_callback=DecodeMIMotor;
 469              		.loc 1 79 5 is_stmt 1 view .LVU123
  79:moudels/motor/MImotor/MImotor.c ****     config->can_init_config.can_module_callback=DecodeMIMotor;
 470              		.loc 1 79 58 is_stmt 0 view .LVU124
 471 0032 D4F8A430 		ldr	r3, [r4, #164]
  79:moudels/motor/MImotor/MImotor.c ****     config->can_init_config.can_module_callback=DecodeMIMotor;
 472              		.loc 1 79 34 view .LVU125
 473 0036 C4F8A830 		str	r3, [r4, #168]
  80:moudels/motor/MImotor/MImotor.c ****     config->can_init_config.id=instance;   
 474              		.loc 1 80 5 is_stmt 1 view .LVU126
  80:moudels/motor/MImotor/MImotor.c ****     config->can_init_config.id=instance;   
 475              		.loc 1 80 48 is_stmt 0 view .LVU127
 476 003a 1D4A     		ldr	r2, .L16
 477 003c C4F8B020 		str	r2, [r4, #176]
  81:moudels/motor/MImotor/MImotor.c ****     config->can_init_config.EXT_ID.motor_id=config->can_init_config.tx_id;
 478              		.loc 1 81 5 is_stmt 1 view .LVU128
  81:moudels/motor/MImotor/MImotor.c ****     config->can_init_config.EXT_ID.motor_id=config->can_init_config.tx_id;
 479              		.loc 1 81 31 is_stmt 0 view .LVU129
 480 0040 C4F8B450 		str	r5, [r4, #180]
  82:moudels/motor/MImotor/MImotor.c ****     config->can_init_config.EXT_ID.data=0;
 481              		.loc 1 82 5 is_stmt 1 view .LVU130
  82:moudels/motor/MImotor/MImotor.c ****     config->can_init_config.EXT_ID.data=0;
 482              		.loc 1 82 44 is_stmt 0 view .LVU131
 483 0044 84F8AC30 		strb	r3, [r4, #172]
  83:moudels/motor/MImotor/MImotor.c ****     config->can_init_config.EXT_ID.mode=3;
 484              		.loc 1 83 5 is_stmt 1 view .LVU132
  83:moudels/motor/MImotor/MImotor.c ****     config->can_init_config.EXT_ID.mode=3;
 485              		.loc 1 83 40 is_stmt 0 view .LVU133
 486 0048 D4F8AC30 		ldr	r3, [r4, #172]
 487 004c 6FF31723 		bfc	r3, #8, #16
 488 0050 C4F8AC30 		str	r3, [r4, #172]
  84:moudels/motor/MImotor/MImotor.c ****     config->can_init_config.EXT_ID.res=0;
 489              		.loc 1 84 5 is_stmt 1 view .LVU134
  84:moudels/motor/MImotor/MImotor.c ****     config->can_init_config.EXT_ID.res=0;
 490              		.loc 1 84 40 is_stmt 0 view .LVU135
 491 0054 94F8AF30 		ldrb	r3, [r4, #175]	@ zero_extendqisi2
 492 0058 0322     		movs	r2, #3
 493 005a 62F30403 		bfi	r3, r2, #0, #5
 494 005e 84F8AF30 		strb	r3, [r4, #175]
  85:moudels/motor/MImotor/MImotor.c ****     instance->motor_can_instance = CANRegister(&config->can_init_config);//Ê≥®ÂÜåÂ∞èÁ±≥ÁîµÊú∫Âà∞can
ARM GAS  C:\Users\Sive\AppData\Local\Temp\ccNX7ZTf.s 			page 14


 495              		.loc 1 85 5 is_stmt 1 view .LVU136
  85:moudels/motor/MImotor/MImotor.c ****     instance->motor_can_instance = CANRegister(&config->can_init_config);//Ê≥®ÂÜåÂ∞èÁ±≥ÁîµÊú∫Âà∞can
 496              		.loc 1 85 39 is_stmt 0 view .LVU137
 497 0062 DBB2     		uxtb	r3, r3
 498 0064 23F0E003 		bic	r3, r3, #224
 499 0068 84F8AF30 		strb	r3, [r4, #175]
  86:moudels/motor/MImotor/MImotor.c ****     // Ê≥®ÂÜåÂÆàÊä§Á∫øÁ®ã
 500              		.loc 1 86 5 is_stmt 1 view .LVU138
  86:moudels/motor/MImotor/MImotor.c ****     // Ê≥®ÂÜåÂÆàÊä§Á∫øÁ®ã
 501              		.loc 1 86 36 is_stmt 0 view .LVU139
 502 006c 04F19C00 		add	r0, r4, #156
 503 0070 FFF7FEFF 		bl	CANRegister
 504              	.LVL44:
  86:moudels/motor/MImotor/MImotor.c ****     // Ê≥®ÂÜåÂÆàÊä§Á∫øÁ®ã
 505              		.loc 1 86 34 discriminator 1 view .LVU140
 506 0074 C5F8A001 		str	r0, [r5, #416]
  88:moudels/motor/MImotor/MImotor.c ****         .callback = MIMotorLostCallback,
 507              		.loc 1 88 5 is_stmt 1 view .LVU141
  88:moudels/motor/MImotor/MImotor.c ****         .callback = MIMotorLostCallback,
 508              		.loc 1 88 26 is_stmt 0 view .LVU142
 509 0078 0023     		movs	r3, #0
 510 007a 0193     		str	r3, [sp, #4]
 511 007c 0293     		str	r3, [sp, #8]
 512 007e 0393     		str	r3, [sp, #12]
 513 0080 0223     		movs	r3, #2
 514 0082 ADF80430 		strh	r3, [sp, #4]	@ movhi
 515 0086 0B4B     		ldr	r3, .L16+4
 516 0088 0293     		str	r3, [sp, #8]
 517 008a 0395     		str	r5, [sp, #12]
  93:moudels/motor/MImotor/MImotor.c **** 
 518              		.loc 1 93 5 is_stmt 1 view .LVU143
  93:moudels/motor/MImotor/MImotor.c **** 
 519              		.loc 1 93 24 is_stmt 0 view .LVU144
 520 008c 01A8     		add	r0, sp, #4
 521 008e FFF7FEFF 		bl	DaemonRegister
 522              	.LVL45:
  93:moudels/motor/MImotor/MImotor.c **** 
 523              		.loc 1 93 22 discriminator 1 view .LVU145
 524 0092 C5F8A801 		str	r0, [r5, #424]
  95:moudels/motor/MImotor/MImotor.c ****     mi_motor_instance[idx++] = instance;
 525              		.loc 1 95 5 is_stmt 1 view .LVU146
 526 0096 2846     		mov	r0, r5
 527 0098 FFF7FEFF 		bl	MIMotorEnable
 528              	.LVL46:
  96:moudels/motor/MImotor/MImotor.c ****     return instance;
 529              		.loc 1 96 5 view .LVU147
  96:moudels/motor/MImotor/MImotor.c ****     return instance;
 530              		.loc 1 96 26 is_stmt 0 view .LVU148
 531 009c 064A     		ldr	r2, .L16+8
 532 009e 1378     		ldrb	r3, [r2]	@ zero_extendqisi2
 533 00a0 591C     		adds	r1, r3, #1
 534 00a2 1170     		strb	r1, [r2]
  96:moudels/motor/MImotor/MImotor.c ****     return instance;
 535              		.loc 1 96 30 view .LVU149
 536 00a4 054A     		ldr	r2, .L16+12
 537 00a6 42F82350 		str	r5, [r2, r3, lsl #2]
  97:moudels/motor/MImotor/MImotor.c **** }
ARM GAS  C:\Users\Sive\AppData\Local\Temp\ccNX7ZTf.s 			page 15


 538              		.loc 1 97 5 is_stmt 1 view .LVU150
  98:moudels/motor/MImotor/MImotor.c **** 
 539              		.loc 1 98 1 is_stmt 0 view .LVU151
 540 00aa 2846     		mov	r0, r5
 541 00ac 05B0     		add	sp, sp, #20
 542              		.cfi_def_cfa_offset 12
 543              		@ sp needed
 544 00ae 30BD     		pop	{r4, r5, pc}
 545              	.LVL47:
 546              	.L17:
  98:moudels/motor/MImotor/MImotor.c **** 
 547              		.loc 1 98 1 view .LVU152
 548              		.align	2
 549              	.L16:
 550 00b0 00000000 		.word	DecodeMIMotor
 551 00b4 00000000 		.word	MIMotorLostCallback
 552 00b8 00000000 		.word	idx
 553 00bc 00000000 		.word	mi_motor_instance
 554              		.cfi_endproc
 555              	.LFE140:
 557              		.section	.text.MIMotorOuterLoop,"ax",%progbits
 558              		.align	1
 559              		.global	MIMotorOuterLoop
 560              		.syntax unified
 561              		.thumb
 562              		.thumb_func
 564              	MIMotorOuterLoop:
 565              	.LVL48:
 566              	.LFB144:
 134:moudels/motor/MImotor/MImotor.c **** 
 135:moudels/motor/MImotor/MImotor.c **** /* ‰øÆÊîπÁîµÊú∫ÁöÑÂÆûÈôÖÈó≠ÁéØÂØπË±° */
 136:moudels/motor/MImotor/MImotor.c **** void MIMotorOuterLoop(MIMotorInstance *motor, Closeloop_Type_e outer_loop)
 137:moudels/motor/MImotor/MImotor.c **** {
 567              		.loc 1 137 1 is_stmt 1 view -0
 568              		.cfi_startproc
 569              		@ args = 0, pretend = 0, frame = 0
 570              		@ frame_needed = 0, uses_anonymous_args = 0
 571              		@ link register save eliminated.
 138:moudels/motor/MImotor/MImotor.c ****     motor->motor_settings.outer_loop_type = outer_loop;
 572              		.loc 1 138 5 view .LVU154
 573              		.loc 1 138 43 is_stmt 0 view .LVU155
 574 0000 0176     		strb	r1, [r0, #24]
 139:moudels/motor/MImotor/MImotor.c **** }
 575              		.loc 1 139 1 view .LVU156
 576 0002 7047     		bx	lr
 577              		.cfi_endproc
 578              	.LFE144:
 580              		.section	.text.MIMotorSetRef,"ax",%progbits
 581              		.align	1
 582              		.global	MIMotorSetRef
 583              		.syntax unified
 584              		.thumb
 585              		.thumb_func
 587              	MIMotorSetRef:
 588              	.LVL49:
 589              	.LFB145:
 140:moudels/motor/MImotor/MImotor.c **** 
ARM GAS  C:\Users\Sive\AppData\Local\Temp\ccNX7ZTf.s 			page 16


 141:moudels/motor/MImotor/MImotor.c **** // ËÆæÁΩÆÂèÇËÄÉÂÄº
 142:moudels/motor/MImotor/MImotor.c **** void MIMotorSetRef(MIMotorInstance *motor, float ref)
 143:moudels/motor/MImotor/MImotor.c **** {
 590              		.loc 1 143 1 is_stmt 1 view -0
 591              		.cfi_startproc
 592              		@ args = 0, pretend = 0, frame = 0
 593              		@ frame_needed = 0, uses_anonymous_args = 0
 594              		@ link register save eliminated.
 144:moudels/motor/MImotor/MImotor.c ****     motor->motor_controller.pid_ref = ref;
 595              		.loc 1 144 5 view .LVU158
 596              		.loc 1 144 37 is_stmt 0 view .LVU159
 597 0000 80ED660A 		vstr.32	s0, [r0, #408]
 145:moudels/motor/MImotor/MImotor.c **** }
 598              		.loc 1 145 1 view .LVU160
 599 0004 7047     		bx	lr
 600              		.cfi_endproc
 601              	.LFE145:
 603              		.section	.text.FloatToUint,"ax",%progbits
 604              		.align	1
 605              		.global	FloatToUint
 606              		.syntax unified
 607              		.thumb
 608              		.thumb_func
 610              	FloatToUint:
 611              	.LVL50:
 612              	.LFB146:
 146:moudels/motor/MImotor/MImotor.c **** 
 147:moudels/motor/MImotor/MImotor.c **** // ‰∏∫ÊâÄÊúâÁîµÊú∫ÂÆû‰æãËÆ°ÁÆó‰∏âÁéØPID,ÂèëÈÄÅÊéßÂà∂Êä•Êñá
 148:moudels/motor/MImotor/MImotor.c **** 
 149:moudels/motor/MImotor/MImotor.c **** //--------
 150:moudels/motor/MImotor/MImotor.c **** /**
 151:moudels/motor/MImotor/MImotor.c ****   * @brief          floatËΩ¨intÔºåÊï∞ÊçÆÊâìÂåÖÁî®
 152:moudels/motor/MImotor/MImotor.c ****   * @param[in]      x floatÊï∞ÂÄº
 153:moudels/motor/MImotor/MImotor.c ****   * @param[in]      x_min floatÊï∞ÂÄºÁöÑÊúÄÂ∞èÂÄº
 154:moudels/motor/MImotor/MImotor.c ****   * @param[in]      x_max floatÊï∞ÂÄºÁöÑÊúÄÂ§ßÂÄº
 155:moudels/motor/MImotor/MImotor.c ****   * @param[in]      bits  intÁöÑÊï∞ÊçÆ‰ΩçÊï∞
 156:moudels/motor/MImotor/MImotor.c ****   * @retval         none
 157:moudels/motor/MImotor/MImotor.c ****   */
 158:moudels/motor/MImotor/MImotor.c **** uint32_t FloatToUint(float x, float x_min, float x_max, int bits)
 159:moudels/motor/MImotor/MImotor.c **** {
 613              		.loc 1 159 1 is_stmt 1 view -0
 614              		.cfi_startproc
 615              		@ args = 0, pretend = 0, frame = 0
 616              		@ frame_needed = 0, uses_anonymous_args = 0
 617              		@ link register save eliminated.
 160:moudels/motor/MImotor/MImotor.c ****     float span = x_max - x_min;
 618              		.loc 1 160 5 view .LVU162
 619              		.loc 1 160 11 is_stmt 0 view .LVU163
 620 0000 31EE607A 		vsub.f32	s14, s2, s1
 621              	.LVL51:
 161:moudels/motor/MImotor/MImotor.c ****     float offset = x_min;
 622              		.loc 1 161 5 is_stmt 1 view .LVU164
 162:moudels/motor/MImotor/MImotor.c ****     if(x > x_max) x=x_max;
 623              		.loc 1 162 5 view .LVU165
 624              		.loc 1 162 7 is_stmt 0 view .LVU166
 625 0004 B4EEC01A 		vcmpe.f32	s2, s0
 626 0008 F1EE10FA 		vmrs	APSR_nzcv, FPSCR
ARM GAS  C:\Users\Sive\AppData\Local\Temp\ccNX7ZTf.s 			page 17


 627 000c 06D4     		bmi	.L21
 163:moudels/motor/MImotor/MImotor.c ****     else if(x < x_min) x=x_min;
 628              		.loc 1 163 10 is_stmt 1 view .LVU167
 629              		.loc 1 163 12 is_stmt 0 view .LVU168
 630 000e F4EEC00A 		vcmpe.f32	s1, s0
 631 0012 F1EE10FA 		vmrs	APSR_nzcv, FPSCR
 632 0016 14DC     		bgt	.L22
 633 0018 B0EE401A 		vmov.f32	s2, s0
 634              	.LVL52:
 635              	.L21:
 164:moudels/motor/MImotor/MImotor.c ****     return (uint32_t) ((x-offset)*((float)((1<<bits)-1))/span);
 636              		.loc 1 164 5 is_stmt 1 view .LVU169
 637              		.loc 1 164 26 is_stmt 0 view .LVU170
 638 001c 31EE601A 		vsub.f32	s2, s2, s1
 639              	.LVL53:
 640              		.loc 1 164 46 view .LVU171
 641 0020 0123     		movs	r3, #1
 642 0022 03FA00F0 		lsl	r0, r3, r0
 643              	.LVL54:
 644              		.loc 1 164 53 view .LVU172
 645 0026 0138     		subs	r0, r0, #1
 646              		.loc 1 164 36 view .LVU173
 647 0028 07EE900A 		vmov	s15, r0	@ int
 648 002c F8EEE77A 		vcvt.f32.s32	s15, s15
 649              		.loc 1 164 34 view .LVU174
 650 0030 21EE271A 		vmul.f32	s2, s2, s15
 651              		.loc 1 164 57 view .LVU175
 652 0034 C1EE077A 		vdiv.f32	s15, s2, s14
 165:moudels/motor/MImotor/MImotor.c **** }
 653              		.loc 1 165 1 view .LVU176
 654 0038 FCEEE77A 		vcvt.u32.f32	s15, s15
 655 003c 17EE900A 		vmov	r0, s15	@ int
 656 0040 7047     		bx	lr
 657              	.LVL55:
 658              	.L22:
 163:moudels/motor/MImotor/MImotor.c ****     else if(x < x_min) x=x_min;
 659              		.loc 1 163 25 discriminator 1 view .LVU177
 660 0042 B0EE601A 		vmov.f32	s2, s1
 661              	.LVL56:
 163:moudels/motor/MImotor/MImotor.c ****     else if(x < x_min) x=x_min;
 662              		.loc 1 163 25 discriminator 1 view .LVU178
 663 0046 E9E7     		b	.L21
 664              		.cfi_endproc
 665              	.LFE146:
 667              		.section	.text.RangeRestrict,"ax",%progbits
 668              		.align	1
 669              		.global	RangeRestrict
 670              		.syntax unified
 671              		.thumb
 672              		.thumb_func
 674              	RangeRestrict:
 675              	.LVL57:
 676              	.LFB147:
 166:moudels/motor/MImotor/MImotor.c **** 
 167:moudels/motor/MImotor/MImotor.c **** /**
 168:moudels/motor/MImotor/MImotor.c ****   * @brief          ËæìÂÖ•ËåÉÂõ¥ÈôêÂà∂
 169:moudels/motor/MImotor/MImotor.c ****   * @param[in]      x ËæìÂÖ•Êï∞ÂÄº
ARM GAS  C:\Users\Sive\AppData\Local\Temp\ccNX7ZTf.s 			page 18


 170:moudels/motor/MImotor/MImotor.c ****   * @param[in]      x_min ËæìÂÖ•Êï∞ÂÄºÁöÑÊúÄÂ∞èÂÄº
 171:moudels/motor/MImotor/MImotor.c ****   * @param[in]      x_max ËæìÂÖ•Êï∞ÂÄºÁöÑÊúÄÂ§ßÂÄº
 172:moudels/motor/MImotor/MImotor.c ****   * @retval         none
 173:moudels/motor/MImotor/MImotor.c ****   */
 174:moudels/motor/MImotor/MImotor.c **** float RangeRestrict(float x, float x_min, float x_max)
 175:moudels/motor/MImotor/MImotor.c **** {
 677              		.loc 1 175 1 is_stmt 1 view -0
 678              		.cfi_startproc
 679              		@ args = 0, pretend = 0, frame = 0
 680              		@ frame_needed = 0, uses_anonymous_args = 0
 681              		@ link register save eliminated.
 682              		.loc 1 175 1 is_stmt 0 view .LVU180
 683 0000 F0EE407A 		vmov.f32	s15, s0
 684 0004 B0EE410A 		vmov.f32	s0, s2
 685              	.LVL58:
 176:moudels/motor/MImotor/MImotor.c ****     float res;
 686              		.loc 1 176 5 is_stmt 1 view .LVU181
 177:moudels/motor/MImotor/MImotor.c ****     if(x > x_max) res=x_max;
 687              		.loc 1 177 5 view .LVU182
 688              		.loc 1 177 7 is_stmt 0 view .LVU183
 689 0008 F4EEC17A 		vcmpe.f32	s15, s2
 690 000c F1EE10FA 		vmrs	APSR_nzcv, FPSCR
 691 0010 09DC     		bgt	.L24
 178:moudels/motor/MImotor/MImotor.c ****     else if(x < x_min) res=x_min;
 692              		.loc 1 178 10 is_stmt 1 view .LVU184
 693              		.loc 1 178 12 is_stmt 0 view .LVU185
 694 0012 F4EEE07A 		vcmpe.f32	s15, s1
 695 0016 F1EE10FA 		vmrs	APSR_nzcv, FPSCR
 696 001a 02D5     		bpl	.L28
 697              		.loc 1 178 27 discriminator 1 view .LVU186
 698 001c B0EE600A 		vmov.f32	s0, s1
 699 0020 7047     		bx	lr
 700              	.LVL59:
 701              	.L28:
 179:moudels/motor/MImotor/MImotor.c ****     else res = x;
 702              		.loc 1 179 14 view .LVU187
 703 0022 B0EE670A 		vmov.f32	s0, s15
 704              	.LVL60:
 705              	.L24:
 180:moudels/motor/MImotor/MImotor.c ****     return res;
 706              		.loc 1 180 5 is_stmt 1 view .LVU188
 181:moudels/motor/MImotor/MImotor.c **** }
 707              		.loc 1 181 1 is_stmt 0 view .LVU189
 708 0026 7047     		bx	lr
 709              		.cfi_endproc
 710              	.LFE147:
 712              		.section	.text.MI_motor_GetID,"ax",%progbits
 713              		.align	1
 714              		.global	MI_motor_GetID
 715              		.syntax unified
 716              		.thumb
 717              		.thumb_func
 719              	MI_motor_GetID:
 720              	.LVL61:
 721              	.LFB148:
 182:moudels/motor/MImotor/MImotor.c **** 
 183:moudels/motor/MImotor/MImotor.c **** //------------------ÈÄöËÆØÁ±ªÂûãÈ≠îÊîπÂ∞èÁ±≥ÊñáÊ°£-------------
ARM GAS  C:\Users\Sive\AppData\Local\Temp\ccNX7ZTf.s 			page 19


 184:moudels/motor/MImotor/MImotor.c **** /**
 185:moudels/motor/MImotor/MImotor.c ****   * @brief          Ëé∑ÂèñËÆæÂ§áID ÔºàÈÄö‰ø°Á±ªÂûã0ÔºâÔºåÈúÄÂú®ÁîµÊú∫‰ΩøËÉΩÂâç‰ΩøÁî®
 186:moudels/motor/MImotor/MImotor.c ****   * @param[in]      hmotor ÁîµÊú∫ÁªìÊûÑ‰Ωì
 187:moudels/motor/MImotor/MImotor.c ****   * @retval         none
 188:moudels/motor/MImotor/MImotor.c ****   */
 189:moudels/motor/MImotor/MImotor.c **** void MI_motor_GetID(MIMotorInstance  *hmotor)
 190:moudels/motor/MImotor/MImotor.c **** {   
 722              		.loc 1 190 1 is_stmt 1 view -0
 723              		.cfi_startproc
 724              		@ args = 0, pretend = 0, frame = 0
 725              		@ frame_needed = 0, uses_anonymous_args = 0
 726              		.loc 1 190 1 is_stmt 0 view .LVU191
 727 0000 08B5     		push	{r3, lr}
 728              		.cfi_def_cfa_offset 8
 729              		.cfi_offset 3, -8
 730              		.cfi_offset 14, -4
 191:moudels/motor/MImotor/MImotor.c ****     static EXT_ID_T *EXT;
 731              		.loc 1 191 5 is_stmt 1 view .LVU192
 192:moudels/motor/MImotor/MImotor.c ****     EXT->mode=0;
 732              		.loc 1 192 5 view .LVU193
 733              		.loc 1 192 14 is_stmt 0 view .LVU194
 734 0002 0023     		movs	r3, #0
 735 0004 DA78     		ldrb	r2, [r3, #3]	@ zero_extendqisi2
 736 0006 63F30402 		bfi	r2, r3, #0, #5
 737 000a DA70     		strb	r2, [r3, #3]
 193:moudels/motor/MImotor/MImotor.c ****     EXT->data=0;
 738              		.loc 1 193 5 is_stmt 1 view .LVU195
 739              		.loc 1 193 14 is_stmt 0 view .LVU196
 740 000c 1A68     		ldr	r2, [r3]
 741 000e 63F31722 		bfi	r2, r3, #8, #16
 742 0012 1A60     		str	r2, [r3]
 194:moudels/motor/MImotor/MImotor.c ****     EXT->motor_id=0;
 743              		.loc 1 194 5 is_stmt 1 view .LVU197
 744              		.loc 1 194 18 is_stmt 0 view .LVU198
 745 0014 1B70     		strb	r3, [r3]
 195:moudels/motor/MImotor/MImotor.c ****     EXT->res=0;
 746              		.loc 1 195 5 is_stmt 1 view .LVU199
 747              		.loc 1 195 13 is_stmt 0 view .LVU200
 748 0016 DA78     		ldrb	r2, [r3, #3]	@ zero_extendqisi2
 749 0018 63F34712 		bfi	r2, r3, #5, #3
 750 001c DA70     		strb	r2, [r3, #3]
 196:moudels/motor/MImotor/MImotor.c ****     hmotor->motor_can_instance->txconf.ExtId=((uint32_t)(EXT));
 751              		.loc 1 196 5 is_stmt 1 view .LVU201
 752              		.loc 1 196 11 is_stmt 0 view .LVU202
 753 001e D0F8A021 		ldr	r2, [r0, #416]
 754              		.loc 1 196 45 view .LVU203
 755 0022 1372     		strb	r3, [r2, #8]
 756 0024 5372     		strb	r3, [r2, #9]
 757 0026 9372     		strb	r3, [r2, #10]
 758 0028 D372     		strb	r3, [r2, #11]
 197:moudels/motor/MImotor/MImotor.c ****     // hmotor->EXT_ID.mode = 0;
 198:moudels/motor/MImotor/MImotor.c ****     // hmotor->EXT_ID.data = 0;
 199:moudels/motor/MImotor/MImotor.c ****     // hmotor->EXT_ID.motor_id = 0;
 200:moudels/motor/MImotor/MImotor.c ****     // hmotor->EXT_ID.res = 0;
 201:moudels/motor/MImotor/MImotor.c ****  
 202:moudels/motor/MImotor/MImotor.c ****     for(uint8_t i=0; i<8; i++)
 759              		.loc 1 202 5 is_stmt 1 view .LVU204
ARM GAS  C:\Users\Sive\AppData\Local\Temp\ccNX7ZTf.s 			page 20


 760              	.LBB5:
 761              		.loc 1 202 9 view .LVU205
 762              	.LVL62:
 763              		.loc 1 202 5 is_stmt 0 view .LVU206
 764 002a 07E0     		b	.L30
 765              	.LVL63:
 766              	.L31:
 203:moudels/motor/MImotor/MImotor.c ****     {
 204:moudels/motor/MImotor/MImotor.c ****         hmotor->motor_can_instance->tx_buff[i]=0;
 767              		.loc 1 204 9 is_stmt 1 view .LVU207
 768              		.loc 1 204 15 is_stmt 0 view .LVU208
 769 002c D0F8A021 		ldr	r2, [r0, #416]
 770              		.loc 1 204 47 view .LVU209
 771 0030 1A44     		add	r2, r2, r3
 772 0032 0021     		movs	r1, #0
 773 0034 82F84010 		strb	r1, [r2, #64]
 202:moudels/motor/MImotor/MImotor.c ****     {
 774              		.loc 1 202 28 is_stmt 1 discriminator 3 view .LVU210
 775 0038 0133     		adds	r3, r3, #1
 776              	.LVL64:
 202:moudels/motor/MImotor/MImotor.c ****     {
 777              		.loc 1 202 28 is_stmt 0 discriminator 3 view .LVU211
 778 003a DBB2     		uxtb	r3, r3
 779              	.LVL65:
 780              	.L30:
 202:moudels/motor/MImotor/MImotor.c ****     {
 781              		.loc 1 202 23 is_stmt 1 discriminator 1 view .LVU212
 782 003c 072B     		cmp	r3, #7
 783 003e F5D9     		bls	.L31
 784              	.LBE5:
 205:moudels/motor/MImotor/MImotor.c ****     }
 206:moudels/motor/MImotor/MImotor.c ****     CANTransmit(hmotor->motor_can_instance,1);
 785              		.loc 1 206 5 view .LVU213
 786 0040 B7EE000A 		vmov.f32	s0, #1.0e+0
 787 0044 D0F8A001 		ldr	r0, [r0, #416]
 788              	.LVL66:
 789              		.loc 1 206 5 is_stmt 0 view .LVU214
 790 0048 FFF7FEFF 		bl	CANTransmit
 791              	.LVL67:
 207:moudels/motor/MImotor/MImotor.c ****     
 208:moudels/motor/MImotor/MImotor.c **** }
 792              		.loc 1 208 1 view .LVU215
 793 004c 08BD     		pop	{r3, pc}
 794              		.cfi_endproc
 795              	.LFE148:
 797              		.section	.text.MI_motor_Control,"ax",%progbits
 798              		.align	1
 799              		.global	MI_motor_Control
 800              		.syntax unified
 801              		.thumb
 802              		.thumb_func
 804              	MI_motor_Control:
 805              	.LVL68:
 806              	.LFB149:
 209:moudels/motor/MImotor/MImotor.c **** 
 210:moudels/motor/MImotor/MImotor.c **** /**
 211:moudels/motor/MImotor/MImotor.c ****   * @brief          ËøêÊéßÊ®°ÂºèÁîµÊú∫ÊéßÂà∂Êåá‰ª§ÔºàÈÄö‰ø°Á±ªÂûã1Ôºâ
ARM GAS  C:\Users\Sive\AppData\Local\Temp\ccNX7ZTf.s 			page 21


 212:moudels/motor/MImotor/MImotor.c ****   * @param[in]      hmotor ÁîµÊú∫ÁªìÊûÑ‰Ωì
 213:moudels/motor/MImotor/MImotor.c ****   * @param[in]      torque ÁõÆÊ†áÂäõÁü©
 214:moudels/motor/MImotor/MImotor.c ****   * @param[in]      MechPosition 
 215:moudels/motor/MImotor/MImotor.c ****   * @param[in]      speed 
 216:moudels/motor/MImotor/MImotor.c ****   * @param[in]      kp 
 217:moudels/motor/MImotor/MImotor.c ****   * @param[in]      kd 
 218:moudels/motor/MImotor/MImotor.c ****   * @retval         none
 219:moudels/motor/MImotor/MImotor.c ****   */
 220:moudels/motor/MImotor/MImotor.c **** void MI_motor_Control(MIMotorInstance* hmotor, float torque, float MechPosition , float speed , flo
 221:moudels/motor/MImotor/MImotor.c **** {  
 807              		.loc 1 221 1 is_stmt 1 view -0
 808              		.cfi_startproc
 809              		@ args = 0, pretend = 0, frame = 0
 810              		@ frame_needed = 0, uses_anonymous_args = 0
 811              		.loc 1 221 1 is_stmt 0 view .LVU217
 812 0000 38B5     		push	{r3, r4, r5, lr}
 813              		.cfi_def_cfa_offset 16
 814              		.cfi_offset 3, -16
 815              		.cfi_offset 4, -12
 816              		.cfi_offset 5, -8
 817              		.cfi_offset 14, -4
 818 0002 2DED048B 		vpush.64	{d8, d9}
 819              		.cfi_def_cfa_offset 32
 820              		.cfi_offset 80, -32
 821              		.cfi_offset 81, -28
 822              		.cfi_offset 82, -24
 823              		.cfi_offset 83, -20
 824 0006 0446     		mov	r4, r0
 825 0008 F0EE609A 		vmov.f32	s19, s1
 826 000c B0EE419A 		vmov.f32	s18, s2
 827 0010 F0EE618A 		vmov.f32	s17, s3
 828 0014 B0EE428A 		vmov.f32	s16, s4
 222:moudels/motor/MImotor/MImotor.c ****     static EXT_ID_T *EXT;
 829              		.loc 1 222 5 is_stmt 1 view .LVU218
 223:moudels/motor/MImotor/MImotor.c ****     EXT->mode=1;
 830              		.loc 1 223 5 view .LVU219
 831              		.loc 1 223 14 is_stmt 0 view .LVU220
 832 0018 0025     		movs	r5, #0
 833 001a EB78     		ldrb	r3, [r5, #3]	@ zero_extendqisi2
 834 001c 0122     		movs	r2, #1
 835 001e 62F30403 		bfi	r3, r2, #0, #5
 836 0022 EB70     		strb	r3, [r5, #3]
 224:moudels/motor/MImotor/MImotor.c ****     EXT->data=FloatToUint(torque,T_MIN,T_MAX,16);
 837              		.loc 1 224 5 is_stmt 1 view .LVU221
 838              		.loc 1 224 15 is_stmt 0 view .LVU222
 839 0024 1020     		movs	r0, #16
 840              	.LVL69:
 841              		.loc 1 224 15 view .LVU223
 842 0026 B2EE081A 		vmov.f32	s2, #1.2e+1
 843              	.LVL70:
 844              		.loc 1 224 15 view .LVU224
 845 002a FAEE080A 		vmov.f32	s1, #-1.2e+1
 846              	.LVL71:
 847              		.loc 1 224 15 view .LVU225
 848 002e FFF7FEFF 		bl	FloatToUint
 849              	.LVL72:
 850              		.loc 1 224 14 discriminator 1 view .LVU226
ARM GAS  C:\Users\Sive\AppData\Local\Temp\ccNX7ZTf.s 			page 22


 851 0032 A5F80100 		strh	r0, [r5, #1]	@ unaligned
 225:moudels/motor/MImotor/MImotor.c ****     EXT->motor_id=hmotor->motor_can_instance->tx_id;
 852              		.loc 1 225 5 is_stmt 1 view .LVU227
 853              		.loc 1 225 25 is_stmt 0 view .LVU228
 854 0036 D4F8A031 		ldr	r3, [r4, #416]
 855              		.loc 1 225 45 view .LVU229
 856 003a 9B6B     		ldr	r3, [r3, #56]	@ unaligned
 857              		.loc 1 225 18 view .LVU230
 858 003c 2B70     		strb	r3, [r5]
 226:moudels/motor/MImotor/MImotor.c ****     EXT->res=0;
 859              		.loc 1 226 5 is_stmt 1 view .LVU231
 860              		.loc 1 226 13 is_stmt 0 view .LVU232
 861 003e EB78     		ldrb	r3, [r5, #3]	@ zero_extendqisi2
 862 0040 65F34713 		bfi	r3, r5, #5, #3
 863 0044 EB70     		strb	r3, [r5, #3]
 227:moudels/motor/MImotor/MImotor.c ****     hmotor->motor_can_instance->txconf.ExtId=((uint32_t)(EXT));
 864              		.loc 1 227 5 is_stmt 1 view .LVU233
 865              		.loc 1 227 11 is_stmt 0 view .LVU234
 866 0046 D4F8A031 		ldr	r3, [r4, #416]
 867              		.loc 1 227 45 view .LVU235
 868 004a 1D72     		strb	r5, [r3, #8]
 869 004c 5D72     		strb	r5, [r3, #9]
 870 004e 9D72     		strb	r5, [r3, #10]
 871 0050 DD72     		strb	r5, [r3, #11]
 228:moudels/motor/MImotor/MImotor.c ****     // hmotor->EXT_ID.mode = 1;
 229:moudels/motor/MImotor/MImotor.c ****     // hmotor->EXT_ID.motor_id = hmotor->motor_id;
 230:moudels/motor/MImotor/MImotor.c ****     // hmotor->EXT_ID.data = FloatToUint(torque,T_MIN,T_MAX,16);
 231:moudels/motor/MImotor/MImotor.c ****     // hmotor->EXT_ID.res = 0;
 232:moudels/motor/MImotor/MImotor.c ****     hmotor->motor_can_instance->tx_buff[0]=FloatToUint(MechPosition,P_MIN,P_MAX,16)>>8;
 872              		.loc 1 232 5 is_stmt 1 view .LVU236
 873              		.loc 1 232 44 is_stmt 0 view .LVU237
 874 0052 1020     		movs	r0, #16
 875 0054 B2EE091A 		vmov.f32	s2, #1.25e+1
 876 0058 FAEE090A 		vmov.f32	s1, #-1.25e+1
 877 005c B0EE690A 		vmov.f32	s0, s19
 878 0060 FFF7FEFF 		bl	FloatToUint
 879              	.LVL73:
 880              		.loc 1 232 84 discriminator 1 view .LVU238
 881 0064 020A     		lsrs	r2, r0, #8
 882              		.loc 1 232 11 discriminator 1 view .LVU239
 883 0066 D4F8A031 		ldr	r3, [r4, #416]
 884              		.loc 1 232 43 discriminator 1 view .LVU240
 885 006a 83F84020 		strb	r2, [r3, #64]
 233:moudels/motor/MImotor/MImotor.c ****     hmotor->motor_can_instance->tx_buff[1]=FloatToUint(MechPosition,P_MIN,P_MAX,16);
 886              		.loc 1 233 5 is_stmt 1 view .LVU241
 887              		.loc 1 233 11 is_stmt 0 discriminator 1 view .LVU242
 888 006e D4F8A031 		ldr	r3, [r4, #416]
 889              		.loc 1 233 43 discriminator 1 view .LVU243
 890 0072 83F84100 		strb	r0, [r3, #65]
 234:moudels/motor/MImotor/MImotor.c ****     hmotor->motor_can_instance->tx_buff[2]=FloatToUint(speed,V_MIN,V_MAX,16)>>8;
 891              		.loc 1 234 5 is_stmt 1 view .LVU244
 892              		.loc 1 234 44 is_stmt 0 view .LVU245
 893 0076 1020     		movs	r0, #16
 894 0078 B3EE0E1A 		vmov.f32	s2, #3.0e+1
 895 007c FBEE0E0A 		vmov.f32	s1, #-3.0e+1
 896 0080 B0EE490A 		vmov.f32	s0, s18
 897 0084 FFF7FEFF 		bl	FloatToUint
ARM GAS  C:\Users\Sive\AppData\Local\Temp\ccNX7ZTf.s 			page 23


 898              	.LVL74:
 899              		.loc 1 234 77 discriminator 1 view .LVU246
 900 0088 020A     		lsrs	r2, r0, #8
 901              		.loc 1 234 11 discriminator 1 view .LVU247
 902 008a D4F8A031 		ldr	r3, [r4, #416]
 903              		.loc 1 234 43 discriminator 1 view .LVU248
 904 008e 83F84220 		strb	r2, [r3, #66]
 235:moudels/motor/MImotor/MImotor.c ****     hmotor->motor_can_instance->tx_buff[3]=FloatToUint(speed,V_MIN,V_MAX,16);
 905              		.loc 1 235 5 is_stmt 1 view .LVU249
 906              		.loc 1 235 11 is_stmt 0 discriminator 1 view .LVU250
 907 0092 D4F8A031 		ldr	r3, [r4, #416]
 908              		.loc 1 235 43 discriminator 1 view .LVU251
 909 0096 83F84300 		strb	r0, [r3, #67]
 236:moudels/motor/MImotor/MImotor.c ****     hmotor->motor_can_instance->tx_buff[4]=FloatToUint(kp,KP_MIN,KP_MAX,16)>>8;
 910              		.loc 1 236 5 is_stmt 1 view .LVU252
 911              		.loc 1 236 44 is_stmt 0 view .LVU253
 912 009a 9FED179A 		vldr.32	s18, .L35
 913              	.LVL75:
 914              		.loc 1 236 44 view .LVU254
 915 009e 1020     		movs	r0, #16
 916 00a0 9FED161A 		vldr.32	s2, .L35+4
 917 00a4 F0EE490A 		vmov.f32	s1, s18
 918 00a8 B0EE680A 		vmov.f32	s0, s17
 919 00ac FFF7FEFF 		bl	FloatToUint
 920              	.LVL76:
 921              		.loc 1 236 76 discriminator 1 view .LVU255
 922 00b0 020A     		lsrs	r2, r0, #8
 923              		.loc 1 236 11 discriminator 1 view .LVU256
 924 00b2 D4F8A031 		ldr	r3, [r4, #416]
 925              		.loc 1 236 43 discriminator 1 view .LVU257
 926 00b6 83F84420 		strb	r2, [r3, #68]
 237:moudels/motor/MImotor/MImotor.c ****     hmotor->motor_can_instance->tx_buff[5]=FloatToUint(kp,KP_MIN,KP_MAX,16);
 927              		.loc 1 237 5 is_stmt 1 view .LVU258
 928              		.loc 1 237 11 is_stmt 0 discriminator 1 view .LVU259
 929 00ba D4F8A031 		ldr	r3, [r4, #416]
 930              		.loc 1 237 43 discriminator 1 view .LVU260
 931 00be 83F84500 		strb	r0, [r3, #69]
 238:moudels/motor/MImotor/MImotor.c ****     hmotor->motor_can_instance->tx_buff[6]=FloatToUint(kd,KD_MIN,KD_MAX,16)>>8;
 932              		.loc 1 238 5 is_stmt 1 view .LVU261
 933              		.loc 1 238 44 is_stmt 0 view .LVU262
 934 00c2 1020     		movs	r0, #16
 935 00c4 B1EE041A 		vmov.f32	s2, #5.0e+0
 936 00c8 F0EE490A 		vmov.f32	s1, s18
 937 00cc B0EE480A 		vmov.f32	s0, s16
 938 00d0 FFF7FEFF 		bl	FloatToUint
 939              	.LVL77:
 940              		.loc 1 238 76 discriminator 1 view .LVU263
 941 00d4 020A     		lsrs	r2, r0, #8
 942              		.loc 1 238 11 discriminator 1 view .LVU264
 943 00d6 D4F8A031 		ldr	r3, [r4, #416]
 944              		.loc 1 238 43 discriminator 1 view .LVU265
 945 00da 83F84620 		strb	r2, [r3, #70]
 239:moudels/motor/MImotor/MImotor.c ****     hmotor->motor_can_instance->tx_buff[7]=FloatToUint(kd,KD_MIN,KD_MAX,16);
 946              		.loc 1 239 5 is_stmt 1 view .LVU266
 947              		.loc 1 239 11 is_stmt 0 discriminator 1 view .LVU267
 948 00de D4F8A031 		ldr	r3, [r4, #416]
 949              		.loc 1 239 43 discriminator 1 view .LVU268
ARM GAS  C:\Users\Sive\AppData\Local\Temp\ccNX7ZTf.s 			page 24


 950 00e2 83F84700 		strb	r0, [r3, #71]
 240:moudels/motor/MImotor/MImotor.c ****     CANTransmit(hmotor->motor_can_instance,1);
 951              		.loc 1 240 5 is_stmt 1 view .LVU269
 952 00e6 B7EE000A 		vmov.f32	s0, #1.0e+0
 953 00ea D4F8A001 		ldr	r0, [r4, #416]
 954 00ee FFF7FEFF 		bl	CANTransmit
 955              	.LVL78:
 241:moudels/motor/MImotor/MImotor.c **** }
 956              		.loc 1 241 1 is_stmt 0 view .LVU270
 957 00f2 BDEC048B 		vldm	sp!, {d8-d9}
 958              		.cfi_restore 82
 959              		.cfi_restore 83
 960              		.cfi_restore 80
 961              		.cfi_restore 81
 962              		.cfi_def_cfa_offset 16
 963              	.LVL79:
 964              		.loc 1 241 1 view .LVU271
 965 00f6 38BD     		pop	{r3, r4, r5, pc}
 966              	.LVL80:
 967              	.L36:
 968              		.loc 1 241 1 view .LVU272
 969              		.align	2
 970              	.L35:
 971 00f8 00000000 		.word	0
 972 00fc 0000FA43 		.word	1140457472
 973              		.cfi_endproc
 974              	.LFE149:
 976              		.section	.text.MI_motor_Enable,"ax",%progbits
 977              		.align	1
 978              		.global	MI_motor_Enable
 979              		.syntax unified
 980              		.thumb
 981              		.thumb_func
 983              	MI_motor_Enable:
 984              	.LVL81:
 985              	.LFB150:
 242:moudels/motor/MImotor/MImotor.c **** 
 243:moudels/motor/MImotor/MImotor.c **** /**
 244:moudels/motor/MImotor/MImotor.c ****   * @brief          Â∞èÁ±≥ÁîµÊú∫‰ΩøËÉΩÔºàÈÄö‰ø°Á±ªÂûã 3Ôºâ
 245:moudels/motor/MImotor/MImotor.c ****   * @param[in]      hmotor ÁîµÊú∫ÁªìÊûÑ‰Ωì
 246:moudels/motor/MImotor/MImotor.c ****   * @param[in]      id ÁîµÊú∫id
 247:moudels/motor/MImotor/MImotor.c ****   * @retval         none
 248:moudels/motor/MImotor/MImotor.c ****   */
 249:moudels/motor/MImotor/MImotor.c ****  void MI_motor_Enable(MIMotorInstance* hmotor)
 250:moudels/motor/MImotor/MImotor.c **** {   
 986              		.loc 1 250 1 is_stmt 1 view -0
 987              		.cfi_startproc
 988              		@ args = 0, pretend = 0, frame = 0
 989              		@ frame_needed = 0, uses_anonymous_args = 0
 990              		.loc 1 250 1 is_stmt 0 view .LVU274
 991 0000 08B5     		push	{r3, lr}
 992              		.cfi_def_cfa_offset 8
 993              		.cfi_offset 3, -8
 994              		.cfi_offset 14, -4
 251:moudels/motor/MImotor/MImotor.c ****     
 252:moudels/motor/MImotor/MImotor.c ****     static EXT_ID_T *EXT;
 995              		.loc 1 252 5 is_stmt 1 view .LVU275
ARM GAS  C:\Users\Sive\AppData\Local\Temp\ccNX7ZTf.s 			page 25


 253:moudels/motor/MImotor/MImotor.c ****     EXT->mode=3;
 996              		.loc 1 253 5 view .LVU276
 997              		.loc 1 253 14 is_stmt 0 view .LVU277
 998 0002 0023     		movs	r3, #0
 999 0004 DA78     		ldrb	r2, [r3, #3]	@ zero_extendqisi2
 1000 0006 0321     		movs	r1, #3
 1001 0008 61F30402 		bfi	r2, r1, #0, #5
 1002 000c DA70     		strb	r2, [r3, #3]
 254:moudels/motor/MImotor/MImotor.c ****     EXT->data=MI_MASTERID;
 1003              		.loc 1 254 5 is_stmt 1 view .LVU278
 1004              		.loc 1 254 14 is_stmt 0 view .LVU279
 1005 000e 124A     		ldr	r2, .L41
 1006 0010 1278     		ldrb	r2, [r2]	@ zero_extendqisi2
 1007 0012 A3F80120 		strh	r2, [r3, #1]	@ unaligned
 255:moudels/motor/MImotor/MImotor.c ****     EXT->motor_id=hmotor->motor_can_instance->tx_id;
 1008              		.loc 1 255 5 is_stmt 1 view .LVU280
 1009              		.loc 1 255 25 is_stmt 0 view .LVU281
 1010 0016 D0F8A021 		ldr	r2, [r0, #416]
 1011              		.loc 1 255 45 view .LVU282
 1012 001a 926B     		ldr	r2, [r2, #56]	@ unaligned
 1013              		.loc 1 255 18 view .LVU283
 1014 001c 1A70     		strb	r2, [r3]
 256:moudels/motor/MImotor/MImotor.c ****     EXT->res=0;
 1015              		.loc 1 256 5 is_stmt 1 view .LVU284
 1016              		.loc 1 256 13 is_stmt 0 view .LVU285
 1017 001e DA78     		ldrb	r2, [r3, #3]	@ zero_extendqisi2
 1018 0020 63F34712 		bfi	r2, r3, #5, #3
 1019 0024 DA70     		strb	r2, [r3, #3]
 257:moudels/motor/MImotor/MImotor.c ****     hmotor->motor_can_instance->txconf.ExtId=((uint32_t)(EXT));
 1020              		.loc 1 257 5 is_stmt 1 view .LVU286
 1021              		.loc 1 257 11 is_stmt 0 view .LVU287
 1022 0026 D0F8A021 		ldr	r2, [r0, #416]
 1023              		.loc 1 257 45 view .LVU288
 1024 002a 1372     		strb	r3, [r2, #8]
 1025 002c 5372     		strb	r3, [r2, #9]
 1026 002e 9372     		strb	r3, [r2, #10]
 1027 0030 D372     		strb	r3, [r2, #11]
 258:moudels/motor/MImotor/MImotor.c ****     for(uint8_t i=0; i<8; i++)
 1028              		.loc 1 258 5 is_stmt 1 view .LVU289
 1029              	.LBB6:
 1030              		.loc 1 258 9 view .LVU290
 1031              	.LVL82:
 1032              		.loc 1 258 5 is_stmt 0 view .LVU291
 1033 0032 07E0     		b	.L38
 1034              	.LVL83:
 1035              	.L39:
 259:moudels/motor/MImotor/MImotor.c ****     {
 260:moudels/motor/MImotor/MImotor.c ****         hmotor->motor_can_instance->tx_buff[i]=0;
 1036              		.loc 1 260 9 is_stmt 1 view .LVU292
 1037              		.loc 1 260 15 is_stmt 0 view .LVU293
 1038 0034 D0F8A021 		ldr	r2, [r0, #416]
 1039              		.loc 1 260 47 view .LVU294
 1040 0038 1A44     		add	r2, r2, r3
 1041 003a 0021     		movs	r1, #0
 1042 003c 82F84010 		strb	r1, [r2, #64]
 258:moudels/motor/MImotor/MImotor.c ****     for(uint8_t i=0; i<8; i++)
 1043              		.loc 1 258 28 is_stmt 1 discriminator 3 view .LVU295
ARM GAS  C:\Users\Sive\AppData\Local\Temp\ccNX7ZTf.s 			page 26


 1044 0040 0133     		adds	r3, r3, #1
 1045              	.LVL84:
 258:moudels/motor/MImotor/MImotor.c ****     for(uint8_t i=0; i<8; i++)
 1046              		.loc 1 258 28 is_stmt 0 discriminator 3 view .LVU296
 1047 0042 DBB2     		uxtb	r3, r3
 1048              	.LVL85:
 1049              	.L38:
 258:moudels/motor/MImotor/MImotor.c ****     for(uint8_t i=0; i<8; i++)
 1050              		.loc 1 258 23 is_stmt 1 discriminator 1 view .LVU297
 1051 0044 072B     		cmp	r3, #7
 1052 0046 F5D9     		bls	.L39
 1053              	.LBE6:
 261:moudels/motor/MImotor/MImotor.c ****     }
 262:moudels/motor/MImotor/MImotor.c **** 
 263:moudels/motor/MImotor/MImotor.c ****     CANTransmit(hmotor->motor_can_instance,1);
 1054              		.loc 1 263 5 view .LVU298
 1055 0048 B7EE000A 		vmov.f32	s0, #1.0e+0
 1056 004c D0F8A001 		ldr	r0, [r0, #416]
 1057              	.LVL86:
 1058              		.loc 1 263 5 is_stmt 0 view .LVU299
 1059 0050 FFF7FEFF 		bl	CANTransmit
 1060              	.LVL87:
 264:moudels/motor/MImotor/MImotor.c **** }
 1061              		.loc 1 264 1 view .LVU300
 1062 0054 08BD     		pop	{r3, pc}
 1063              	.L42:
 1064 0056 00BF     		.align	2
 1065              	.L41:
 1066 0058 00000000 		.word	MI_MASTERID
 1067              		.cfi_endproc
 1068              	.LFE150:
 1070              		.section	.text.MI_motor_Stop,"ax",%progbits
 1071              		.align	1
 1072              		.global	MI_motor_Stop
 1073              		.syntax unified
 1074              		.thumb
 1075              		.thumb_func
 1077              	MI_motor_Stop:
 1078              	.LVL88:
 1079              	.LFB151:
 265:moudels/motor/MImotor/MImotor.c **** /**
 266:moudels/motor/MImotor/MImotor.c ****   * @brief          ÁîµÊú∫ÂÅúÊ≠¢ËøêË°åÂ∏ßÔºàÈÄö‰ø°Á±ªÂûã4Ôºâ
 267:moudels/motor/MImotor/MImotor.c ****   * @param[in]      hmotor ÁîµÊú∫ÁªìÊûÑ‰Ωì
 268:moudels/motor/MImotor/MImotor.c ****   * @retval         none
 269:moudels/motor/MImotor/MImotor.c ****   */
 270:moudels/motor/MImotor/MImotor.c **** void MI_motor_Stop(MIMotorInstance* hmotor)
 271:moudels/motor/MImotor/MImotor.c **** 
 272:moudels/motor/MImotor/MImotor.c **** {   
 1080              		.loc 1 272 1 is_stmt 1 view -0
 1081              		.cfi_startproc
 1082              		@ args = 0, pretend = 0, frame = 0
 1083              		@ frame_needed = 0, uses_anonymous_args = 0
 1084              		.loc 1 272 1 is_stmt 0 view .LVU302
 1085 0000 08B5     		push	{r3, lr}
 1086              		.cfi_def_cfa_offset 8
 1087              		.cfi_offset 3, -8
 1088              		.cfi_offset 14, -4
ARM GAS  C:\Users\Sive\AppData\Local\Temp\ccNX7ZTf.s 			page 27


 273:moudels/motor/MImotor/MImotor.c ****     static EXT_ID_T *EXT;
 1089              		.loc 1 273 5 is_stmt 1 view .LVU303
 274:moudels/motor/MImotor/MImotor.c ****     EXT->mode=4;
 1090              		.loc 1 274 5 view .LVU304
 1091              		.loc 1 274 14 is_stmt 0 view .LVU305
 1092 0002 0023     		movs	r3, #0
 1093 0004 DA78     		ldrb	r2, [r3, #3]	@ zero_extendqisi2
 1094 0006 0421     		movs	r1, #4
 1095 0008 61F30402 		bfi	r2, r1, #0, #5
 1096 000c DA70     		strb	r2, [r3, #3]
 275:moudels/motor/MImotor/MImotor.c ****     EXT->data=MI_MASTERID;
 1097              		.loc 1 275 5 is_stmt 1 view .LVU306
 1098              		.loc 1 275 14 is_stmt 0 view .LVU307
 1099 000e 124A     		ldr	r2, .L47
 1100 0010 1278     		ldrb	r2, [r2]	@ zero_extendqisi2
 1101 0012 A3F80120 		strh	r2, [r3, #1]	@ unaligned
 276:moudels/motor/MImotor/MImotor.c ****     EXT->motor_id=hmotor->motor_can_instance->tx_id;
 1102              		.loc 1 276 5 is_stmt 1 view .LVU308
 1103              		.loc 1 276 25 is_stmt 0 view .LVU309
 1104 0016 D0F8A021 		ldr	r2, [r0, #416]
 1105              		.loc 1 276 45 view .LVU310
 1106 001a 926B     		ldr	r2, [r2, #56]	@ unaligned
 1107              		.loc 1 276 18 view .LVU311
 1108 001c 1A70     		strb	r2, [r3]
 277:moudels/motor/MImotor/MImotor.c ****     EXT->res=0;
 1109              		.loc 1 277 5 is_stmt 1 view .LVU312
 1110              		.loc 1 277 13 is_stmt 0 view .LVU313
 1111 001e DA78     		ldrb	r2, [r3, #3]	@ zero_extendqisi2
 1112 0020 63F34712 		bfi	r2, r3, #5, #3
 1113 0024 DA70     		strb	r2, [r3, #3]
 278:moudels/motor/MImotor/MImotor.c ****     hmotor->motor_can_instance->txconf.ExtId=((uint32_t)(EXT));
 1114              		.loc 1 278 5 is_stmt 1 view .LVU314
 1115              		.loc 1 278 11 is_stmt 0 view .LVU315
 1116 0026 D0F8A021 		ldr	r2, [r0, #416]
 1117              		.loc 1 278 45 view .LVU316
 1118 002a 1372     		strb	r3, [r2, #8]
 1119 002c 5372     		strb	r3, [r2, #9]
 1120 002e 9372     		strb	r3, [r2, #10]
 1121 0030 D372     		strb	r3, [r2, #11]
 279:moudels/motor/MImotor/MImotor.c ****     for(uint8_t i=0; i<8; i++)
 1122              		.loc 1 279 5 is_stmt 1 view .LVU317
 1123              	.LBB7:
 1124              		.loc 1 279 9 view .LVU318
 1125              	.LVL89:
 1126              		.loc 1 279 5 is_stmt 0 view .LVU319
 1127 0032 07E0     		b	.L44
 1128              	.LVL90:
 1129              	.L45:
 280:moudels/motor/MImotor/MImotor.c ****     {
 281:moudels/motor/MImotor/MImotor.c ****         hmotor->motor_can_instance->tx_buff[i]=0;
 1130              		.loc 1 281 9 is_stmt 1 view .LVU320
 1131              		.loc 1 281 15 is_stmt 0 view .LVU321
 1132 0034 D0F8A021 		ldr	r2, [r0, #416]
 1133              		.loc 1 281 47 view .LVU322
 1134 0038 1A44     		add	r2, r2, r3
 1135 003a 0021     		movs	r1, #0
 1136 003c 82F84010 		strb	r1, [r2, #64]
ARM GAS  C:\Users\Sive\AppData\Local\Temp\ccNX7ZTf.s 			page 28


 279:moudels/motor/MImotor/MImotor.c ****     for(uint8_t i=0; i<8; i++)
 1137              		.loc 1 279 28 is_stmt 1 discriminator 3 view .LVU323
 1138 0040 0133     		adds	r3, r3, #1
 1139              	.LVL91:
 279:moudels/motor/MImotor/MImotor.c ****     for(uint8_t i=0; i<8; i++)
 1140              		.loc 1 279 28 is_stmt 0 discriminator 3 view .LVU324
 1141 0042 DBB2     		uxtb	r3, r3
 1142              	.LVL92:
 1143              	.L44:
 279:moudels/motor/MImotor/MImotor.c ****     for(uint8_t i=0; i<8; i++)
 1144              		.loc 1 279 23 is_stmt 1 discriminator 1 view .LVU325
 1145 0044 072B     		cmp	r3, #7
 1146 0046 F5D9     		bls	.L45
 1147              	.LBE7:
 282:moudels/motor/MImotor/MImotor.c ****     }
 283:moudels/motor/MImotor/MImotor.c **** 
 284:moudels/motor/MImotor/MImotor.c ****     CANTransmit(hmotor->motor_can_instance,1);
 1148              		.loc 1 284 5 view .LVU326
 1149 0048 B7EE000A 		vmov.f32	s0, #1.0e+0
 1150 004c D0F8A001 		ldr	r0, [r0, #416]
 1151              	.LVL93:
 1152              		.loc 1 284 5 is_stmt 0 view .LVU327
 1153 0050 FFF7FEFF 		bl	CANTransmit
 1154              	.LVL94:
 285:moudels/motor/MImotor/MImotor.c **** }
 1155              		.loc 1 285 1 view .LVU328
 1156 0054 08BD     		pop	{r3, pc}
 1157              	.L48:
 1158 0056 00BF     		.align	2
 1159              	.L47:
 1160 0058 00000000 		.word	MI_MASTERID
 1161              		.cfi_endproc
 1162              	.LFE151:
 1164              		.section	.text.MI_motor_SetMechPositionToZero,"ax",%progbits
 1165              		.align	1
 1166              		.global	MI_motor_SetMechPositionToZero
 1167              		.syntax unified
 1168              		.thumb
 1169              		.thumb_func
 1171              	MI_motor_SetMechPositionToZero:
 1172              	.LVL95:
 1173              	.LFB152:
 286:moudels/motor/MImotor/MImotor.c **** /**
 287:moudels/motor/MImotor/MImotor.c ****   * @brief          ËÆæÁΩÆÁîµÊú∫Êú∫Ê¢∞Èõ∂‰ΩçÔºàÈÄö‰ø°Á±ªÂûã6Ôºâ‰ºöÊääÂΩìÂâçÁîµÊú∫‰ΩçÁΩÆËÆæ‰∏∫Êú∫Ê¢∞
 288:moudels/motor/MImotor/MImotor.c ****   * @param[in]      hmotor ÁîµÊú∫ÁªìÊûÑ‰Ωì
 289:moudels/motor/MImotor/MImotor.c ****   * @retval         none
 290:moudels/motor/MImotor/MImotor.c ****   */
 291:moudels/motor/MImotor/MImotor.c **** void MI_motor_SetMechPositionToZero(MIMotorInstance* hmotor)
 292:moudels/motor/MImotor/MImotor.c **** {
 1174              		.loc 1 292 1 is_stmt 1 view -0
 1175              		.cfi_startproc
 1176              		@ args = 0, pretend = 0, frame = 0
 1177              		@ frame_needed = 0, uses_anonymous_args = 0
 1178              		.loc 1 292 1 is_stmt 0 view .LVU330
 1179 0000 08B5     		push	{r3, lr}
 1180              		.cfi_def_cfa_offset 8
 1181              		.cfi_offset 3, -8
ARM GAS  C:\Users\Sive\AppData\Local\Temp\ccNX7ZTf.s 			page 29


 1182              		.cfi_offset 14, -4
 293:moudels/motor/MImotor/MImotor.c ****     static EXT_ID_T *EXT;
 1183              		.loc 1 293 5 is_stmt 1 view .LVU331
 294:moudels/motor/MImotor/MImotor.c ****     EXT->mode=6;
 1184              		.loc 1 294 5 view .LVU332
 1185              		.loc 1 294 14 is_stmt 0 view .LVU333
 1186 0002 0023     		movs	r3, #0
 1187 0004 DA78     		ldrb	r2, [r3, #3]	@ zero_extendqisi2
 1188 0006 0621     		movs	r1, #6
 1189 0008 61F30402 		bfi	r2, r1, #0, #5
 1190 000c DA70     		strb	r2, [r3, #3]
 295:moudels/motor/MImotor/MImotor.c ****     EXT->data=MI_MASTERID;
 1191              		.loc 1 295 5 is_stmt 1 view .LVU334
 1192              		.loc 1 295 14 is_stmt 0 view .LVU335
 1193 000e 144A     		ldr	r2, .L53
 1194 0010 1278     		ldrb	r2, [r2]	@ zero_extendqisi2
 1195 0012 A3F80120 		strh	r2, [r3, #1]	@ unaligned
 296:moudels/motor/MImotor/MImotor.c ****     EXT->motor_id=hmotor->motor_can_instance->tx_id;
 1196              		.loc 1 296 5 is_stmt 1 view .LVU336
 1197              		.loc 1 296 25 is_stmt 0 view .LVU337
 1198 0016 D0F8A021 		ldr	r2, [r0, #416]
 1199              		.loc 1 296 45 view .LVU338
 1200 001a 926B     		ldr	r2, [r2, #56]	@ unaligned
 1201              		.loc 1 296 18 view .LVU339
 1202 001c 1A70     		strb	r2, [r3]
 297:moudels/motor/MImotor/MImotor.c ****     EXT->res=0;
 1203              		.loc 1 297 5 is_stmt 1 view .LVU340
 1204              		.loc 1 297 13 is_stmt 0 view .LVU341
 1205 001e DA78     		ldrb	r2, [r3, #3]	@ zero_extendqisi2
 1206 0020 63F34712 		bfi	r2, r3, #5, #3
 1207 0024 DA70     		strb	r2, [r3, #3]
 298:moudels/motor/MImotor/MImotor.c ****     hmotor->motor_can_instance->txconf.ExtId=((uint32_t)(EXT));
 1208              		.loc 1 298 5 is_stmt 1 view .LVU342
 1209              		.loc 1 298 11 is_stmt 0 view .LVU343
 1210 0026 D0F8A021 		ldr	r2, [r0, #416]
 1211              		.loc 1 298 45 view .LVU344
 1212 002a 1372     		strb	r3, [r2, #8]
 1213 002c 5372     		strb	r3, [r2, #9]
 1214 002e 9372     		strb	r3, [r2, #10]
 1215 0030 D372     		strb	r3, [r2, #11]
 299:moudels/motor/MImotor/MImotor.c ****     hmotor->motor_can_instance->tx_buff[0]=1;
 1216              		.loc 1 299 5 is_stmt 1 view .LVU345
 1217              		.loc 1 299 11 is_stmt 0 view .LVU346
 1218 0032 D0F8A021 		ldr	r2, [r0, #416]
 1219              		.loc 1 299 43 view .LVU347
 1220 0036 0123     		movs	r3, #1
 1221 0038 82F84030 		strb	r3, [r2, #64]
 300:moudels/motor/MImotor/MImotor.c ****     for(uint8_t i=1; i<8; i++)
 1222              		.loc 1 300 5 is_stmt 1 view .LVU348
 1223              	.LBB8:
 1224              		.loc 1 300 9 view .LVU349
 1225              	.LVL96:
 1226              		.loc 1 300 5 is_stmt 0 view .LVU350
 1227 003c 07E0     		b	.L50
 1228              	.LVL97:
 1229              	.L51:
 301:moudels/motor/MImotor/MImotor.c ****     {
ARM GAS  C:\Users\Sive\AppData\Local\Temp\ccNX7ZTf.s 			page 30


 302:moudels/motor/MImotor/MImotor.c ****         hmotor->motor_can_instance->tx_buff[i]=0;
 1230              		.loc 1 302 9 is_stmt 1 view .LVU351
 1231              		.loc 1 302 15 is_stmt 0 view .LVU352
 1232 003e D0F8A021 		ldr	r2, [r0, #416]
 1233              		.loc 1 302 47 view .LVU353
 1234 0042 1A44     		add	r2, r2, r3
 1235 0044 0021     		movs	r1, #0
 1236 0046 82F84010 		strb	r1, [r2, #64]
 300:moudels/motor/MImotor/MImotor.c ****     for(uint8_t i=1; i<8; i++)
 1237              		.loc 1 300 28 is_stmt 1 discriminator 3 view .LVU354
 1238 004a 0133     		adds	r3, r3, #1
 1239              	.LVL98:
 300:moudels/motor/MImotor/MImotor.c ****     for(uint8_t i=1; i<8; i++)
 1240              		.loc 1 300 28 is_stmt 0 discriminator 3 view .LVU355
 1241 004c DBB2     		uxtb	r3, r3
 1242              	.LVL99:
 1243              	.L50:
 300:moudels/motor/MImotor/MImotor.c ****     for(uint8_t i=1; i<8; i++)
 1244              		.loc 1 300 23 is_stmt 1 discriminator 1 view .LVU356
 1245 004e 072B     		cmp	r3, #7
 1246 0050 F5D9     		bls	.L51
 1247              	.LBE8:
 303:moudels/motor/MImotor/MImotor.c ****     }
 304:moudels/motor/MImotor/MImotor.c **** 
 305:moudels/motor/MImotor/MImotor.c ****     CANTransmit(hmotor->motor_can_instance,1);
 1248              		.loc 1 305 5 view .LVU357
 1249 0052 B7EE000A 		vmov.f32	s0, #1.0e+0
 1250 0056 D0F8A001 		ldr	r0, [r0, #416]
 1251              	.LVL100:
 1252              		.loc 1 305 5 is_stmt 0 view .LVU358
 1253 005a FFF7FEFF 		bl	CANTransmit
 1254              	.LVL101:
 306:moudels/motor/MImotor/MImotor.c **** }
 1255              		.loc 1 306 1 view .LVU359
 1256 005e 08BD     		pop	{r3, pc}
 1257              	.L54:
 1258              		.align	2
 1259              	.L53:
 1260 0060 00000000 		.word	MI_MASTERID
 1261              		.cfi_endproc
 1262              	.LFE152:
 1264              		.section	.text.MI_motor_ReadParam,"ax",%progbits
 1265              		.align	1
 1266              		.global	MI_motor_ReadParam
 1267              		.syntax unified
 1268              		.thumb
 1269              		.thumb_func
 1271              	MI_motor_ReadParam:
 1272              	.LVL102:
 1273              	.LFB153:
 307:moudels/motor/MImotor/MImotor.c **** 
 308:moudels/motor/MImotor/MImotor.c **** /**
 309:moudels/motor/MImotor/MImotor.c ****   * @brief          Âçï‰∏™ÂèÇÊï∞ËØªÂèñÔºàÈÄö‰ø°Á±ªÂûã17Ôºâ
 310:moudels/motor/MImotor/MImotor.c ****   * @param[in]      hmotor ÁîµÊú∫ÁªìÊûÑ‰Ωì
 311:moudels/motor/MImotor/MImotor.c ****   * @param[in]      index ÂäüËÉΩÁ†Å
 312:moudels/motor/MImotor/MImotor.c ****   * @retval         none
 313:moudels/motor/MImotor/MImotor.c ****   */
ARM GAS  C:\Users\Sive\AppData\Local\Temp\ccNX7ZTf.s 			page 31


 314:moudels/motor/MImotor/MImotor.c **** void MI_motor_ReadParam(MIMotorInstance* hmotor,uint16_t index)
 315:moudels/motor/MImotor/MImotor.c **** {
 1274              		.loc 1 315 1 is_stmt 1 view -0
 1275              		.cfi_startproc
 1276              		@ args = 0, pretend = 0, frame = 0
 1277              		@ frame_needed = 0, uses_anonymous_args = 0
 1278              		.loc 1 315 1 is_stmt 0 view .LVU361
 1279 0000 08B5     		push	{r3, lr}
 1280              		.cfi_def_cfa_offset 8
 1281              		.cfi_offset 3, -8
 1282              		.cfi_offset 14, -4
 316:moudels/motor/MImotor/MImotor.c ****     static EXT_ID_T *EXT;
 1283              		.loc 1 316 5 is_stmt 1 view .LVU362
 317:moudels/motor/MImotor/MImotor.c ****     EXT->mode=17;
 1284              		.loc 1 317 5 view .LVU363
 1285              		.loc 1 317 14 is_stmt 0 view .LVU364
 1286 0002 0023     		movs	r3, #0
 1287 0004 DA78     		ldrb	r2, [r3, #3]	@ zero_extendqisi2
 1288 0006 4FF0110C 		mov	ip, #17
 1289 000a 6CF30402 		bfi	r2, ip, #0, #5
 1290 000e DA70     		strb	r2, [r3, #3]
 318:moudels/motor/MImotor/MImotor.c ****     EXT->data=MI_MASTERID;
 1291              		.loc 1 318 5 is_stmt 1 view .LVU365
 1292              		.loc 1 318 14 is_stmt 0 view .LVU366
 1293 0010 144A     		ldr	r2, .L59
 1294 0012 1278     		ldrb	r2, [r2]	@ zero_extendqisi2
 1295 0014 A3F80120 		strh	r2, [r3, #1]	@ unaligned
 319:moudels/motor/MImotor/MImotor.c ****     EXT->motor_id=hmotor->motor_can_instance->tx_id;
 1296              		.loc 1 319 5 is_stmt 1 view .LVU367
 1297              		.loc 1 319 25 is_stmt 0 view .LVU368
 1298 0018 D0F8A021 		ldr	r2, [r0, #416]
 1299              		.loc 1 319 45 view .LVU369
 1300 001c 926B     		ldr	r2, [r2, #56]	@ unaligned
 1301              		.loc 1 319 18 view .LVU370
 1302 001e 1A70     		strb	r2, [r3]
 320:moudels/motor/MImotor/MImotor.c ****     EXT->res=0;
 1303              		.loc 1 320 5 is_stmt 1 view .LVU371
 1304              		.loc 1 320 13 is_stmt 0 view .LVU372
 1305 0020 DA78     		ldrb	r2, [r3, #3]	@ zero_extendqisi2
 1306 0022 63F34712 		bfi	r2, r3, #5, #3
 1307 0026 DA70     		strb	r2, [r3, #3]
 321:moudels/motor/MImotor/MImotor.c ****     hmotor->motor_can_instance->txconf.ExtId=((uint32_t)(EXT));
 1308              		.loc 1 321 5 is_stmt 1 view .LVU373
 1309              		.loc 1 321 11 is_stmt 0 view .LVU374
 1310 0028 D0F8A021 		ldr	r2, [r0, #416]
 1311              		.loc 1 321 45 view .LVU375
 1312 002c 1372     		strb	r3, [r2, #8]
 1313 002e 5372     		strb	r3, [r2, #9]
 1314 0030 9372     		strb	r3, [r2, #10]
 1315 0032 D372     		strb	r3, [r2, #11]
 322:moudels/motor/MImotor/MImotor.c **** 
 323:moudels/motor/MImotor/MImotor.c ****     memcpy(&hmotor->motor_can_instance->tx_buff[0],&index,2);
 1316              		.loc 1 323 5 is_stmt 1 view .LVU376
 1317              		.loc 1 323 19 is_stmt 0 view .LVU377
 1318 0034 D0F8A031 		ldr	r3, [r0, #416]
 1319              		.loc 1 323 5 view .LVU378
 1320 0038 A3F84010 		strh	r1, [r3, #64]	@ unaligned
ARM GAS  C:\Users\Sive\AppData\Local\Temp\ccNX7ZTf.s 			page 32


 324:moudels/motor/MImotor/MImotor.c ****     for(uint8_t i=2; i<8; i++)
 1321              		.loc 1 324 5 is_stmt 1 view .LVU379
 1322              	.LBB9:
 1323              		.loc 1 324 9 view .LVU380
 1324              	.LVL103:
 1325              		.loc 1 324 17 is_stmt 0 view .LVU381
 1326 003c 0223     		movs	r3, #2
 1327              		.loc 1 324 5 view .LVU382
 1328 003e 07E0     		b	.L56
 1329              	.LVL104:
 1330              	.L57:
 325:moudels/motor/MImotor/MImotor.c ****     {
 326:moudels/motor/MImotor/MImotor.c ****         hmotor->motor_can_instance->tx_buff[i]=0;
 1331              		.loc 1 326 9 is_stmt 1 view .LVU383
 1332              		.loc 1 326 15 is_stmt 0 view .LVU384
 1333 0040 D0F8A021 		ldr	r2, [r0, #416]
 1334              		.loc 1 326 47 view .LVU385
 1335 0044 1A44     		add	r2, r2, r3
 1336 0046 0021     		movs	r1, #0
 1337 0048 82F84010 		strb	r1, [r2, #64]
 324:moudels/motor/MImotor/MImotor.c ****     for(uint8_t i=2; i<8; i++)
 1338              		.loc 1 324 28 is_stmt 1 discriminator 3 view .LVU386
 1339 004c 0133     		adds	r3, r3, #1
 1340              	.LVL105:
 324:moudels/motor/MImotor/MImotor.c ****     for(uint8_t i=2; i<8; i++)
 1341              		.loc 1 324 28 is_stmt 0 discriminator 3 view .LVU387
 1342 004e DBB2     		uxtb	r3, r3
 1343              	.LVL106:
 1344              	.L56:
 324:moudels/motor/MImotor/MImotor.c ****     for(uint8_t i=2; i<8; i++)
 1345              		.loc 1 324 23 is_stmt 1 discriminator 1 view .LVU388
 1346 0050 072B     		cmp	r3, #7
 1347 0052 F5D9     		bls	.L57
 1348              	.LBE9:
 327:moudels/motor/MImotor/MImotor.c ****     }
 328:moudels/motor/MImotor/MImotor.c **** 
 329:moudels/motor/MImotor/MImotor.c ****     CANTransmit(hmotor->motor_can_instance,1);
 1349              		.loc 1 329 5 view .LVU389
 1350 0054 B7EE000A 		vmov.f32	s0, #1.0e+0
 1351 0058 D0F8A001 		ldr	r0, [r0, #416]
 1352              	.LVL107:
 1353              		.loc 1 329 5 is_stmt 0 view .LVU390
 1354 005c FFF7FEFF 		bl	CANTransmit
 1355              	.LVL108:
 330:moudels/motor/MImotor/MImotor.c **** }
 1356              		.loc 1 330 1 view .LVU391
 1357 0060 08BD     		pop	{r3, pc}
 1358              	.L60:
 1359 0062 00BF     		.align	2
 1360              	.L59:
 1361 0064 00000000 		.word	MI_MASTERID
 1362              		.cfi_endproc
 1363              	.LFE153:
 1365              		.section	.text.MI_motor_ModeSwitch,"ax",%progbits
 1366              		.align	1
 1367              		.global	MI_motor_ModeSwitch
 1368              		.syntax unified
ARM GAS  C:\Users\Sive\AppData\Local\Temp\ccNX7ZTf.s 			page 33


 1369              		.thumb
 1370              		.thumb_func
 1372              	MI_motor_ModeSwitch:
 1373              	.LVL109:
 1374              	.LFB154:
 331:moudels/motor/MImotor/MImotor.c **** 
 332:moudels/motor/MImotor/MImotor.c **** /**
 333:moudels/motor/MImotor/MImotor.c ****   * @brief          Â∞èÁ±≥ÁîµÊú∫ËøêË°åÊ®°ÂºèÂàáÊç¢
 334:moudels/motor/MImotor/MImotor.c ****   * @param[in]      hmotor ÁîµÊú∫ÁªìÊûÑ‰Ωì
 335:moudels/motor/MImotor/MImotor.c ****   * @param[in]      run_mode Êõ¥ÊîπÁöÑÊ®°Âºè
 336:moudels/motor/MImotor/MImotor.c ****   * @note           ÈÄö‰ø°Á±ªÂûã18 ÔºàÊéâÁîµ‰∏¢Â§±Ôºâ
 337:moudels/motor/MImotor/MImotor.c ****   * @retval         none
 338:moudels/motor/MImotor/MImotor.c ****   */
 339:moudels/motor/MImotor/MImotor.c **** void MI_motor_ModeSwitch(MIMotorInstance* hmotor, uint8_t run_mode,uint16_t index)
 340:moudels/motor/MImotor/MImotor.c **** {
 1375              		.loc 1 340 1 is_stmt 1 view -0
 1376              		.cfi_startproc
 1377              		@ args = 0, pretend = 0, frame = 0
 1378              		@ frame_needed = 0, uses_anonymous_args = 0
 1379              		.loc 1 340 1 is_stmt 0 view .LVU393
 1380 0000 10B5     		push	{r4, lr}
 1381              		.cfi_def_cfa_offset 8
 1382              		.cfi_offset 4, -8
 1383              		.cfi_offset 14, -4
 341:moudels/motor/MImotor/MImotor.c ****     static EXT_ID_T *EXT;
 1384              		.loc 1 341 5 is_stmt 1 view .LVU394
 342:moudels/motor/MImotor/MImotor.c ****     EXT->mode=18;
 1385              		.loc 1 342 5 view .LVU395
 1386              		.loc 1 342 14 is_stmt 0 view .LVU396
 1387 0002 0023     		movs	r3, #0
 1388 0004 DC78     		ldrb	r4, [r3, #3]	@ zero_extendqisi2
 1389 0006 4FF0120C 		mov	ip, #18
 1390 000a 6CF30404 		bfi	r4, ip, #0, #5
 1391 000e DC70     		strb	r4, [r3, #3]
 343:moudels/motor/MImotor/MImotor.c ****     EXT->data=MI_MASTERID;
 1392              		.loc 1 343 5 is_stmt 1 view .LVU397
 1393              		.loc 1 343 14 is_stmt 0 view .LVU398
 1394 0010 174C     		ldr	r4, .L65
 1395 0012 2478     		ldrb	r4, [r4]	@ zero_extendqisi2
 1396 0014 A3F80140 		strh	r4, [r3, #1]	@ unaligned
 344:moudels/motor/MImotor/MImotor.c ****     EXT->motor_id=hmotor->motor_can_instance->tx_id;
 1397              		.loc 1 344 5 is_stmt 1 view .LVU399
 1398              		.loc 1 344 25 is_stmt 0 view .LVU400
 1399 0018 D0F8A041 		ldr	r4, [r0, #416]
 1400              		.loc 1 344 45 view .LVU401
 1401 001c A46B     		ldr	r4, [r4, #56]	@ unaligned
 1402              		.loc 1 344 18 view .LVU402
 1403 001e 1C70     		strb	r4, [r3]
 345:moudels/motor/MImotor/MImotor.c ****     EXT->res=0;
 1404              		.loc 1 345 5 is_stmt 1 view .LVU403
 1405              		.loc 1 345 13 is_stmt 0 view .LVU404
 1406 0020 DC78     		ldrb	r4, [r3, #3]	@ zero_extendqisi2
 1407 0022 63F34714 		bfi	r4, r3, #5, #3
 1408 0026 DC70     		strb	r4, [r3, #3]
 346:moudels/motor/MImotor/MImotor.c ****     hmotor->motor_can_instance->txconf.ExtId=((uint32_t)(EXT));
 1409              		.loc 1 346 5 is_stmt 1 view .LVU405
 1410              		.loc 1 346 11 is_stmt 0 view .LVU406
ARM GAS  C:\Users\Sive\AppData\Local\Temp\ccNX7ZTf.s 			page 34


 1411 0028 D0F8A041 		ldr	r4, [r0, #416]
 1412              		.loc 1 346 45 view .LVU407
 1413 002c 2372     		strb	r3, [r4, #8]
 1414 002e 6372     		strb	r3, [r4, #9]
 1415 0030 A372     		strb	r3, [r4, #10]
 1416 0032 E372     		strb	r3, [r4, #11]
 347:moudels/motor/MImotor/MImotor.c **** 
 348:moudels/motor/MImotor/MImotor.c ****     
 349:moudels/motor/MImotor/MImotor.c ****     for(uint8_t i=2; i<8; i++)
 1417              		.loc 1 349 5 is_stmt 1 view .LVU408
 1418              	.LBB10:
 1419              		.loc 1 349 9 view .LVU409
 1420              	.LVL110:
 1421              		.loc 1 349 17 is_stmt 0 view .LVU410
 1422 0034 0223     		movs	r3, #2
 1423              		.loc 1 349 5 view .LVU411
 1424 0036 09E0     		b	.L62
 1425              	.LVL111:
 1426              	.L63:
 350:moudels/motor/MImotor/MImotor.c ****     {
 351:moudels/motor/MImotor/MImotor.c ****         hmotor->motor_can_instance->tx_buff[i]=0;
 1427              		.loc 1 351 9 is_stmt 1 view .LVU412
 1428              		.loc 1 351 47 is_stmt 0 view .LVU413
 1429 0038 D0F8A041 		ldr	r4, [r0, #416]
 1430 003c 04EB030C 		add	ip, r4, r3
 1431 0040 4FF0000E 		mov	lr, #0
 1432 0044 8CF840E0 		strb	lr, [ip, #64]
 349:moudels/motor/MImotor/MImotor.c ****     {
 1433              		.loc 1 349 28 is_stmt 1 discriminator 3 view .LVU414
 1434 0048 0133     		adds	r3, r3, #1
 1435              	.LVL112:
 349:moudels/motor/MImotor/MImotor.c ****     {
 1436              		.loc 1 349 28 is_stmt 0 discriminator 3 view .LVU415
 1437 004a DBB2     		uxtb	r3, r3
 1438              	.LVL113:
 1439              	.L62:
 349:moudels/motor/MImotor/MImotor.c ****     {
 1440              		.loc 1 349 23 is_stmt 1 discriminator 1 view .LVU416
 1441 004c 072B     		cmp	r3, #7
 1442 004e F3D9     		bls	.L63
 1443              	.LBE10:
 352:moudels/motor/MImotor/MImotor.c ****     }
 353:moudels/motor/MImotor/MImotor.c ****     memcpy(&hmotor->motor_can_instance->tx_buff[0],&index,2);
 1444              		.loc 1 353 5 view .LVU417
 1445              		.loc 1 353 19 is_stmt 0 view .LVU418
 1446 0050 D0F8A031 		ldr	r3, [r0, #416]
 1447              	.LVL114:
 1448              		.loc 1 353 5 view .LVU419
 1449 0054 A3F84020 		strh	r2, [r3, #64]	@ unaligned
 354:moudels/motor/MImotor/MImotor.c ****     memcpy(&hmotor->motor_can_instance->tx_buff[4],&run_mode,1);
 1450              		.loc 1 354 5 is_stmt 1 view .LVU420
 1451              		.loc 1 354 19 is_stmt 0 view .LVU421
 1452 0058 D0F8A031 		ldr	r3, [r0, #416]
 1453              		.loc 1 354 5 view .LVU422
 1454 005c 83F84410 		strb	r1, [r3, #68]
 355:moudels/motor/MImotor/MImotor.c ****     CANTransmit(hmotor->motor_can_instance,1);
 1455              		.loc 1 355 5 is_stmt 1 view .LVU423
ARM GAS  C:\Users\Sive\AppData\Local\Temp\ccNX7ZTf.s 			page 35


 1456 0060 B7EE000A 		vmov.f32	s0, #1.0e+0
 1457 0064 D0F8A001 		ldr	r0, [r0, #416]
 1458              	.LVL115:
 1459              		.loc 1 355 5 is_stmt 0 view .LVU424
 1460 0068 FFF7FEFF 		bl	CANTransmit
 1461              	.LVL116:
 356:moudels/motor/MImotor/MImotor.c **** }
 1462              		.loc 1 356 1 view .LVU425
 1463 006c 10BD     		pop	{r4, pc}
 1464              	.L66:
 1465 006e 00BF     		.align	2
 1466              	.L65:
 1467 0070 00000000 		.word	MI_MASTERID
 1468              		.cfi_endproc
 1469              	.LFE154:
 1471              		.section	.text.MI_motor_Modeset,"ax",%progbits
 1472              		.align	1
 1473              		.global	MI_motor_Modeset
 1474              		.syntax unified
 1475              		.thumb
 1476              		.thumb_func
 1478              	MI_motor_Modeset:
 1479              	.LVL117:
 1480              	.LFB155:
 357:moudels/motor/MImotor/MImotor.c **** void MI_motor_Modeset(MIMotorInstance* hmotor,float param,uint16_t index)
 358:moudels/motor/MImotor/MImotor.c **** {
 1481              		.loc 1 358 1 is_stmt 1 view -0
 1482              		.cfi_startproc
 1483              		@ args = 0, pretend = 0, frame = 0
 1484              		@ frame_needed = 0, uses_anonymous_args = 0
 1485              		.loc 1 358 1 is_stmt 0 view .LVU427
 1486 0000 08B5     		push	{r3, lr}
 1487              		.cfi_def_cfa_offset 8
 1488              		.cfi_offset 3, -8
 1489              		.cfi_offset 14, -4
 1490 0002 10EE10EA 		vmov	lr, s0
 359:moudels/motor/MImotor/MImotor.c ****     static EXT_ID_T *EXT;
 1491              		.loc 1 359 5 is_stmt 1 view .LVU428
 360:moudels/motor/MImotor/MImotor.c ****     EXT->mode=18;
 1492              		.loc 1 360 5 view .LVU429
 1493              		.loc 1 360 14 is_stmt 0 view .LVU430
 1494 0006 0023     		movs	r3, #0
 1495 0008 DA78     		ldrb	r2, [r3, #3]	@ zero_extendqisi2
 1496 000a 4FF0120C 		mov	ip, #18
 1497 000e 6CF30402 		bfi	r2, ip, #0, #5
 1498 0012 DA70     		strb	r2, [r3, #3]
 361:moudels/motor/MImotor/MImotor.c ****     EXT->data=MI_MASTERID;
 1499              		.loc 1 361 5 is_stmt 1 view .LVU431
 1500              		.loc 1 361 14 is_stmt 0 view .LVU432
 1501 0014 164A     		ldr	r2, .L71
 1502 0016 1278     		ldrb	r2, [r2]	@ zero_extendqisi2
 1503 0018 A3F80120 		strh	r2, [r3, #1]	@ unaligned
 362:moudels/motor/MImotor/MImotor.c ****     EXT->motor_id=hmotor->motor_can_instance->tx_id;
 1504              		.loc 1 362 5 is_stmt 1 view .LVU433
 1505              		.loc 1 362 25 is_stmt 0 view .LVU434
 1506 001c D0F8A021 		ldr	r2, [r0, #416]
 1507              		.loc 1 362 45 view .LVU435
ARM GAS  C:\Users\Sive\AppData\Local\Temp\ccNX7ZTf.s 			page 36


 1508 0020 926B     		ldr	r2, [r2, #56]	@ unaligned
 1509              		.loc 1 362 18 view .LVU436
 1510 0022 1A70     		strb	r2, [r3]
 363:moudels/motor/MImotor/MImotor.c ****     EXT->res=0;
 1511              		.loc 1 363 5 is_stmt 1 view .LVU437
 1512              		.loc 1 363 13 is_stmt 0 view .LVU438
 1513 0024 DA78     		ldrb	r2, [r3, #3]	@ zero_extendqisi2
 1514 0026 63F34712 		bfi	r2, r3, #5, #3
 1515 002a DA70     		strb	r2, [r3, #3]
 364:moudels/motor/MImotor/MImotor.c ****     hmotor->motor_can_instance->txconf.ExtId=((uint32_t)(EXT));
 1516              		.loc 1 364 5 is_stmt 1 view .LVU439
 1517              		.loc 1 364 11 is_stmt 0 view .LVU440
 1518 002c D0F8A021 		ldr	r2, [r0, #416]
 1519              		.loc 1 364 45 view .LVU441
 1520 0030 1372     		strb	r3, [r2, #8]
 1521 0032 5372     		strb	r3, [r2, #9]
 1522 0034 9372     		strb	r3, [r2, #10]
 1523 0036 D372     		strb	r3, [r2, #11]
 365:moudels/motor/MImotor/MImotor.c **** 
 366:moudels/motor/MImotor/MImotor.c ****     
 367:moudels/motor/MImotor/MImotor.c ****     for(uint8_t i=2; i<8; i++)
 1524              		.loc 1 367 5 is_stmt 1 view .LVU442
 1525              	.LBB11:
 1526              		.loc 1 367 9 view .LVU443
 1527              	.LVL118:
 1528              		.loc 1 367 17 is_stmt 0 view .LVU444
 1529 0038 0223     		movs	r3, #2
 1530              		.loc 1 367 5 view .LVU445
 1531 003a 08E0     		b	.L68
 1532              	.LVL119:
 1533              	.L69:
 368:moudels/motor/MImotor/MImotor.c ****     {
 369:moudels/motor/MImotor/MImotor.c ****         hmotor->motor_can_instance->tx_buff[i]=0;
 1534              		.loc 1 369 9 is_stmt 1 view .LVU446
 1535              		.loc 1 369 15 is_stmt 0 view .LVU447
 1536 003c D0F8A021 		ldr	r2, [r0, #416]
 1537              		.loc 1 369 47 view .LVU448
 1538 0040 1A44     		add	r2, r2, r3
 1539 0042 4FF0000C 		mov	ip, #0
 1540 0046 82F840C0 		strb	ip, [r2, #64]
 367:moudels/motor/MImotor/MImotor.c ****     {
 1541              		.loc 1 367 28 is_stmt 1 discriminator 3 view .LVU449
 1542 004a 0133     		adds	r3, r3, #1
 1543              	.LVL120:
 367:moudels/motor/MImotor/MImotor.c ****     {
 1544              		.loc 1 367 28 is_stmt 0 discriminator 3 view .LVU450
 1545 004c DBB2     		uxtb	r3, r3
 1546              	.LVL121:
 1547              	.L68:
 367:moudels/motor/MImotor/MImotor.c ****     {
 1548              		.loc 1 367 23 is_stmt 1 discriminator 1 view .LVU451
 1549 004e 072B     		cmp	r3, #7
 1550 0050 F4D9     		bls	.L69
 1551              	.LBE11:
 370:moudels/motor/MImotor/MImotor.c ****     }
 371:moudels/motor/MImotor/MImotor.c ****     memcpy(&hmotor->motor_can_instance->tx_buff[0],&index,2);
 1552              		.loc 1 371 5 view .LVU452
ARM GAS  C:\Users\Sive\AppData\Local\Temp\ccNX7ZTf.s 			page 37


 1553              		.loc 1 371 19 is_stmt 0 view .LVU453
 1554 0052 D0F8A031 		ldr	r3, [r0, #416]
 1555              	.LVL122:
 1556              		.loc 1 371 5 view .LVU454
 1557 0056 A3F84010 		strh	r1, [r3, #64]	@ unaligned
 372:moudels/motor/MImotor/MImotor.c ****     memcpy(&hmotor->motor_can_instance->tx_buff[4],&param,4);
 1558              		.loc 1 372 5 is_stmt 1 view .LVU455
 1559              		.loc 1 372 19 is_stmt 0 view .LVU456
 1560 005a D0F8A031 		ldr	r3, [r0, #416]
 1561              		.loc 1 372 5 view .LVU457
 1562 005e C3F844E0 		str	lr, [r3, #68]	@ unaligned
 373:moudels/motor/MImotor/MImotor.c ****     CANTransmit(hmotor->motor_can_instance,1);
 1563              		.loc 1 373 5 is_stmt 1 view .LVU458
 1564 0062 B7EE000A 		vmov.f32	s0, #1.0e+0
 1565              	.LVL123:
 1566              		.loc 1 373 5 is_stmt 0 view .LVU459
 1567 0066 D0F8A001 		ldr	r0, [r0, #416]
 1568              	.LVL124:
 1569              		.loc 1 373 5 view .LVU460
 1570 006a FFF7FEFF 		bl	CANTransmit
 1571              	.LVL125:
 374:moudels/motor/MImotor/MImotor.c **** }
 1572              		.loc 1 374 1 view .LVU461
 1573 006e 08BD     		pop	{r3, pc}
 1574              	.L72:
 1575              		.align	2
 1576              	.L71:
 1577 0070 00000000 		.word	MI_MASTERID
 1578              		.cfi_endproc
 1579              	.LFE155:
 1581              		.section	.text.MI_motor_TorqueControl,"ax",%progbits
 1582              		.align	1
 1583              		.global	MI_motor_TorqueControl
 1584              		.syntax unified
 1585              		.thumb
 1586              		.thumb_func
 1588              	MI_motor_TorqueControl:
 1589              	.LVL126:
 1590              	.LFB156:
 375:moudels/motor/MImotor/MImotor.c **** /*-------------------- Â∞ÅË£ÖÁöÑ‰∏Ä‰∫õÊéßÂà∂ÂáΩÊï∞ --------------------*/
 376:moudels/motor/MImotor/MImotor.c **** 
 377:moudels/motor/MImotor/MImotor.c **** /**
 378:moudels/motor/MImotor/MImotor.c ****   * @brief          Â∞èÁ±≥ÁîµÊú∫ÂäõÁü©ÊéßÂà∂Ê®°ÂºèÊéßÂà∂Êåá‰ª§
 379:moudels/motor/MImotor/MImotor.c ****   * @param[in]      hmotor ÁîµÊú∫ÁªìÊûÑ‰Ωì
 380:moudels/motor/MImotor/MImotor.c ****   * @param[in]      torque ÁõÆÊ†áÂäõÁü©
 381:moudels/motor/MImotor/MImotor.c ****   * @retval         none
 382:moudels/motor/MImotor/MImotor.c ****   */
 383:moudels/motor/MImotor/MImotor.c **** void MI_motor_TorqueControl(MIMotorInstance* hmotor, float torque)
 384:moudels/motor/MImotor/MImotor.c **** {
 1591              		.loc 1 384 1 is_stmt 1 view -0
 1592              		.cfi_startproc
 1593              		@ args = 0, pretend = 0, frame = 0
 1594              		@ frame_needed = 0, uses_anonymous_args = 0
 1595              		.loc 1 384 1 is_stmt 0 view .LVU463
 1596 0000 10B5     		push	{r4, lr}
 1597              		.cfi_def_cfa_offset 8
 1598              		.cfi_offset 4, -8
ARM GAS  C:\Users\Sive\AppData\Local\Temp\ccNX7ZTf.s 			page 38


 1599              		.cfi_offset 14, -4
 1600 0002 0446     		mov	r4, r0
 385:moudels/motor/MImotor/MImotor.c ****     MI_motor_ModeSwitch(hmotor, 3,0x7005);
 1601              		.loc 1 385 5 is_stmt 1 view .LVU464
 1602 0004 47F20502 		movw	r2, #28677
 1603 0008 0321     		movs	r1, #3
 1604 000a FFF7FEFF 		bl	MI_motor_ModeSwitch
 1605              	.LVL127:
 386:moudels/motor/MImotor/MImotor.c ****     MI_motor_Enable ( hmotor);
 1606              		.loc 1 386 5 view .LVU465
 1607 000e 2046     		mov	r0, r4
 1608 0010 FFF7FEFF 		bl	MI_motor_Enable
 1609              	.LVL128:
 387:moudels/motor/MImotor/MImotor.c ****     MI_motor_Modeset(hmotor, 2,0x7006);
 1610              		.loc 1 387 5 view .LVU466
 1611 0014 47F20601 		movw	r1, #28678
 1612 0018 B0EE000A 		vmov.f32	s0, #2.0e+0
 1613 001c 2046     		mov	r0, r4
 1614 001e FFF7FEFF 		bl	MI_motor_Modeset
 1615              	.LVL129:
 388:moudels/motor/MImotor/MImotor.c **** }
 1616              		.loc 1 388 1 is_stmt 0 view .LVU467
 1617 0022 10BD     		pop	{r4, pc}
 1618              		.loc 1 388 1 view .LVU468
 1619              		.cfi_endproc
 1620              	.LFE156:
 1622              		.section	.text.MI_motor_LocationControl,"ax",%progbits
 1623              		.align	1
 1624              		.global	MI_motor_LocationControl
 1625              		.syntax unified
 1626              		.thumb
 1627              		.thumb_func
 1629              	MI_motor_LocationControl:
 1630              	.LVL130:
 1631              	.LFB157:
 389:moudels/motor/MImotor/MImotor.c **** 
 390:moudels/motor/MImotor/MImotor.c **** /**
 391:moudels/motor/MImotor/MImotor.c ****   * @brief          Â∞èÁ±≥ÁîµÊú∫‰ΩçÁΩÆÊ®°ÂºèÊéßÂà∂Êåá‰ª§
 392:moudels/motor/MImotor/MImotor.c ****   * @param[in]      hmotor ÁîµÊú∫ÁªìÊûÑ‰Ωì
 393:moudels/motor/MImotor/MImotor.c ****   * @param[in]      location ÊéßÂà∂‰ΩçÁΩÆ rad
 394:moudels/motor/MImotor/MImotor.c ****   * @param[in]      kp ÂìçÂ∫îÈÄüÂ∫¶(Âà∞Ëææ‰ΩçÁΩÆÂø´ÊÖ¢)Ôºå‰∏ÄËà¨Âèñ1-10
 395:moudels/motor/MImotor/MImotor.c ****   * @param[in]      kd ÁîµÊú∫ÈòªÂ∞ºÔºåËøáÂ∞è‰ºöÈúáËç°ÔºåËøáÂ§ßÁîµÊú∫‰ºöÈúáÂä®ÊòéÊòæ„ÄÇ‰∏ÄËà¨Âèñ0.5Â
 396:moudels/motor/MImotor/MImotor.c ****   * @retval         none
 397:moudels/motor/MImotor/MImotor.c ****   */
 398:moudels/motor/MImotor/MImotor.c **** void MI_motor_LocationControl(MIMotorInstance* hmotor, float location)
 399:moudels/motor/MImotor/MImotor.c **** {
 1632              		.loc 1 399 1 is_stmt 1 view -0
 1633              		.cfi_startproc
 1634              		@ args = 0, pretend = 0, frame = 0
 1635              		@ frame_needed = 0, uses_anonymous_args = 0
 1636              		.loc 1 399 1 is_stmt 0 view .LVU470
 1637 0000 10B5     		push	{r4, lr}
 1638              		.cfi_def_cfa_offset 8
 1639              		.cfi_offset 4, -8
 1640              		.cfi_offset 14, -4
 1641 0002 2DED028B 		vpush.64	{d8}
 1642              		.cfi_def_cfa_offset 16
ARM GAS  C:\Users\Sive\AppData\Local\Temp\ccNX7ZTf.s 			page 39


 1643              		.cfi_offset 80, -16
 1644              		.cfi_offset 81, -12
 1645 0006 0446     		mov	r4, r0
 1646 0008 B0EE408A 		vmov.f32	s16, s0
 400:moudels/motor/MImotor/MImotor.c ****    MI_motor_ModeSwitch(hmotor, 1,0x7005);
 1647              		.loc 1 400 4 is_stmt 1 view .LVU471
 1648 000c 47F20502 		movw	r2, #28677
 1649 0010 0121     		movs	r1, #1
 1650 0012 FFF7FEFF 		bl	MI_motor_ModeSwitch
 1651              	.LVL131:
 401:moudels/motor/MImotor/MImotor.c ****    MI_motor_Enable ( hmotor);
 1652              		.loc 1 401 4 view .LVU472
 1653 0016 2046     		mov	r0, r4
 1654 0018 FFF7FEFF 		bl	MI_motor_Enable
 1655              	.LVL132:
 402:moudels/motor/MImotor/MImotor.c ****    MI_motor_Modeset(hmotor, 30,0x7017);//ÊúÄÂ§ßÈÄüÂ∫¶
 1656              		.loc 1 402 4 view .LVU473
 1657 001c 47F21701 		movw	r1, #28695
 1658 0020 B3EE0E0A 		vmov.f32	s0, #3.0e+1
 1659 0024 2046     		mov	r0, r4
 1660 0026 FFF7FEFF 		bl	MI_motor_Modeset
 1661              	.LVL133:
 403:moudels/motor/MImotor/MImotor.c ****     MI_motor_Modeset(hmotor, location,0x7016);//ÈÄüÂ∫¶
 1662              		.loc 1 403 5 view .LVU474
 1663 002a 47F21601 		movw	r1, #28694
 1664 002e B0EE480A 		vmov.f32	s0, s16
 1665 0032 2046     		mov	r0, r4
 1666 0034 FFF7FEFF 		bl	MI_motor_Modeset
 1667              	.LVL134:
 404:moudels/motor/MImotor/MImotor.c **** 
 405:moudels/motor/MImotor/MImotor.c **** }
 1668              		.loc 1 405 1 is_stmt 0 view .LVU475
 1669 0038 BDEC028B 		vldm	sp!, {d8}
 1670              		.cfi_restore 80
 1671              		.cfi_restore 81
 1672              		.cfi_def_cfa_offset 8
 1673              	.LVL135:
 1674              		.loc 1 405 1 view .LVU476
 1675 003c 10BD     		pop	{r4, pc}
 1676              		.loc 1 405 1 view .LVU477
 1677              		.cfi_endproc
 1678              	.LFE157:
 1680              		.section	.text.MI_motor_SpeedControl,"ax",%progbits
 1681              		.align	1
 1682              		.global	MI_motor_SpeedControl
 1683              		.syntax unified
 1684              		.thumb
 1685              		.thumb_func
 1687              	MI_motor_SpeedControl:
 1688              	.LVL136:
 1689              	.LFB158:
 406:moudels/motor/MImotor/MImotor.c **** 
 407:moudels/motor/MImotor/MImotor.c **** /**
 408:moudels/motor/MImotor/MImotor.c ****   * @brief          Â∞èÁ±≥ÁîµÊú∫ÈÄüÂ∫¶Ê®°ÂºèÊéßÂà∂Êåá‰ª§
 409:moudels/motor/MImotor/MImotor.c ****   * @param[in]      hmotor ÁîµÊú∫ÁªìÊûÑ‰Ωì
 410:moudels/motor/MImotor/MImotor.c ****   * @param[in]      speed ÊéßÂà∂ÈÄüÂ∫¶
 411:moudels/motor/MImotor/MImotor.c ****   * @param[in]      kd ÂìçÂ∫îÈÄüÂ∫¶Ôºå‰∏ÄËà¨Âèñ0.1-1
ARM GAS  C:\Users\Sive\AppData\Local\Temp\ccNX7ZTf.s 			page 40


 412:moudels/motor/MImotor/MImotor.c ****   * @retval         none
 413:moudels/motor/MImotor/MImotor.c ****   */
 414:moudels/motor/MImotor/MImotor.c **** void MI_motor_SpeedControl(MIMotorInstance* hmotor, float speed)
 415:moudels/motor/MImotor/MImotor.c **** {
 1690              		.loc 1 415 1 is_stmt 1 view -0
 1691              		.cfi_startproc
 1692              		@ args = 0, pretend = 0, frame = 0
 1693              		@ frame_needed = 0, uses_anonymous_args = 0
 1694              		.loc 1 415 1 is_stmt 0 view .LVU479
 1695 0000 10B5     		push	{r4, lr}
 1696              		.cfi_def_cfa_offset 8
 1697              		.cfi_offset 4, -8
 1698              		.cfi_offset 14, -4
 1699 0002 2DED028B 		vpush.64	{d8}
 1700              		.cfi_def_cfa_offset 16
 1701              		.cfi_offset 80, -16
 1702              		.cfi_offset 81, -12
 1703 0006 0446     		mov	r4, r0
 1704 0008 B0EE408A 		vmov.f32	s16, s0
 416:moudels/motor/MImotor/MImotor.c ****     MI_motor_ModeSwitch(hmotor, 2,0x7005);
 1705              		.loc 1 416 5 is_stmt 1 view .LVU480
 1706 000c 47F20502 		movw	r2, #28677
 1707 0010 0221     		movs	r1, #2
 1708 0012 FFF7FEFF 		bl	MI_motor_ModeSwitch
 1709              	.LVL137:
 417:moudels/motor/MImotor/MImotor.c ****    MI_motor_Enable ( hmotor);
 1710              		.loc 1 417 4 view .LVU481
 1711 0016 2046     		mov	r0, r4
 1712 0018 FFF7FEFF 		bl	MI_motor_Enable
 1713              	.LVL138:
 418:moudels/motor/MImotor/MImotor.c ****    MI_motor_Modeset(hmotor, 23,0x7018);//ÊúÄÂ§ßdianliu
 1714              		.loc 1 418 4 view .LVU482
 1715 001c 47F21801 		movw	r1, #28696
 1716 0020 B3EE070A 		vmov.f32	s0, #2.3e+1
 1717 0024 2046     		mov	r0, r4
 1718 0026 FFF7FEFF 		bl	MI_motor_Modeset
 1719              	.LVL139:
 419:moudels/motor/MImotor/MImotor.c ****     MI_motor_Modeset(hmotor,speed,0x700A);//ÈÄüÂ∫¶
 1720              		.loc 1 419 5 view .LVU483
 1721 002a 47F20A01 		movw	r1, #28682
 1722 002e B0EE480A 		vmov.f32	s0, s16
 1723 0032 2046     		mov	r0, r4
 1724 0034 FFF7FEFF 		bl	MI_motor_Modeset
 1725              	.LVL140:
 420:moudels/motor/MImotor/MImotor.c **** }
 1726              		.loc 1 420 1 is_stmt 0 view .LVU484
 1727 0038 BDEC028B 		vldm	sp!, {d8}
 1728              		.cfi_restore 80
 1729              		.cfi_restore 81
 1730              		.cfi_def_cfa_offset 8
 1731              	.LVL141:
 1732              		.loc 1 420 1 view .LVU485
 1733 003c 10BD     		pop	{r4, pc}
 1734              		.loc 1 420 1 view .LVU486
 1735              		.cfi_endproc
 1736              	.LFE158:
 1738              		.section	.text.MIMotorControl,"ax",%progbits
ARM GAS  C:\Users\Sive\AppData\Local\Temp\ccNX7ZTf.s 			page 41


 1739              		.align	1
 1740              		.global	MIMotorControl
 1741              		.syntax unified
 1742              		.thumb
 1743              		.thumb_func
 1745              	MIMotorControl:
 1746              	.LFB141:
 101:moudels/motor/MImotor/MImotor.c ****     MIMotorInstance *motor;
 1747              		.loc 1 101 1 is_stmt 1 view -0
 1748              		.cfi_startproc
 1749              		@ args = 0, pretend = 0, frame = 0
 1750              		@ frame_needed = 0, uses_anonymous_args = 0
 1751 0000 38B5     		push	{r3, r4, r5, lr}
 1752              		.cfi_def_cfa_offset 16
 1753              		.cfi_offset 3, -16
 1754              		.cfi_offset 4, -12
 1755              		.cfi_offset 5, -8
 1756              		.cfi_offset 14, -4
 1757 0002 2DED028B 		vpush.64	{d8}
 1758              		.cfi_def_cfa_offset 24
 1759              		.cfi_offset 80, -24
 1760              		.cfi_offset 81, -20
 102:moudels/motor/MImotor/MImotor.c ****     Motor_Control_Setting_s *motor_setting; // ÁîµÊú∫ÊéßÂà∂ÂèÇÊï∞
 1761              		.loc 1 102 5 view .LVU488
 103:moudels/motor/MImotor/MImotor.c ****     // Motor_Controller_s *motor_controller;   // ÁîµÊú∫ÊéßÂà∂Âô®
 1762              		.loc 1 103 5 view .LVU489
 106:moudels/motor/MImotor/MImotor.c ****     for(size_t i=0;i<idx;++i)
 1763              		.loc 1 106 5 view .LVU490
 107:moudels/motor/MImotor/MImotor.c ****     {
 1764              		.loc 1 107 5 view .LVU491
 1765              	.LBB12:
 107:moudels/motor/MImotor/MImotor.c ****     {
 1766              		.loc 1 107 9 view .LVU492
 1767              	.LVL142:
 107:moudels/motor/MImotor/MImotor.c ****     {
 1768              		.loc 1 107 16 is_stmt 0 view .LVU493
 1769 0006 0025     		movs	r5, #0
 107:moudels/motor/MImotor/MImotor.c ****     {
 1770              		.loc 1 107 5 view .LVU494
 1771 0008 04E0     		b	.L80
 1772              	.LVL143:
 1773              	.L81:
 117:moudels/motor/MImotor/MImotor.c ****                 MI_motor_SpeedControl(motor, ref);
 1774              		.loc 1 117 9 is_stmt 1 view .LVU495
 117:moudels/motor/MImotor/MImotor.c ****                 MI_motor_SpeedControl(motor, ref);
 1775              		.loc 1 117 25 is_stmt 0 view .LVU496
 1776 000a 637E     		ldrb	r3, [r4, #25]	@ zero_extendqisi2
 117:moudels/motor/MImotor/MImotor.c ****                 MI_motor_SpeedControl(motor, ref);
 1777              		.loc 1 117 11 view .LVU497
 1778 000c A3B9     		cbnz	r3, .L86
 1779              	.L82:
 120:moudels/motor/MImotor/MImotor.c ****             MI_motor_TorqueControl(motor, ref);
 1780              		.loc 1 120 9 is_stmt 1 view .LVU498
 120:moudels/motor/MImotor/MImotor.c ****             MI_motor_TorqueControl(motor, ref);
 1781              		.loc 1 120 25 is_stmt 0 view .LVU499
 1782 000e 637E     		ldrb	r3, [r4, #25]	@ zero_extendqisi2
 120:moudels/motor/MImotor/MImotor.c ****             MI_motor_TorqueControl(motor, ref);
ARM GAS  C:\Users\Sive\AppData\Local\Temp\ccNX7ZTf.s 			page 42


 1783              		.loc 1 120 11 view .LVU500
 1784 0010 C3B9     		cbnz	r3, .L87
 1785              	.L83:
 107:moudels/motor/MImotor/MImotor.c ****     {
 1786              		.loc 1 107 26 is_stmt 1 discriminator 2 view .LVU501
 1787 0012 0135     		adds	r5, r5, #1
 1788              	.LVL144:
 1789              	.L80:
 107:moudels/motor/MImotor/MImotor.c ****     {
 1790              		.loc 1 107 21 discriminator 1 view .LVU502
 1791 0014 104B     		ldr	r3, .L89
 1792 0016 1B78     		ldrb	r3, [r3]	@ zero_extendqisi2
 1793 0018 AB42     		cmp	r3, r5
 1794 001a 19D9     		bls	.L88
 109:moudels/motor/MImotor/MImotor.c ****         motor_setting = &motor->motor_settings;
 1795              		.loc 1 109 9 view .LVU503
 109:moudels/motor/MImotor/MImotor.c ****         motor_setting = &motor->motor_settings;
 1796              		.loc 1 109 15 is_stmt 0 view .LVU504
 1797 001c 0F4B     		ldr	r3, .L89+4
 1798 001e 53F82540 		ldr	r4, [r3, r5, lsl #2]
 1799              	.LVL145:
 110:moudels/motor/MImotor/MImotor.c ****         // motor_controller = &motor->motor_controller;
 1800              		.loc 1 110 9 is_stmt 1 view .LVU505
 113:moudels/motor/MImotor/MImotor.c ****         if((motor_setting->close_loop_type&&ANGLE_LOOP)){
 1801              		.loc 1 113 9 view .LVU506
 113:moudels/motor/MImotor/MImotor.c ****         if((motor_setting->close_loop_type&&ANGLE_LOOP)){
 1802              		.loc 1 113 13 is_stmt 0 view .LVU507
 1803 0022 94ED668A 		vldr.32	s16, [r4, #408]
 1804              	.LVL146:
 114:moudels/motor/MImotor/MImotor.c ****                 MI_motor_LocationControl(motor, ref);
 1805              		.loc 1 114 9 is_stmt 1 view .LVU508
 114:moudels/motor/MImotor/MImotor.c ****                 MI_motor_LocationControl(motor, ref);
 1806              		.loc 1 114 26 is_stmt 0 view .LVU509
 1807 0026 637E     		ldrb	r3, [r4, #25]	@ zero_extendqisi2
 114:moudels/motor/MImotor/MImotor.c ****                 MI_motor_LocationControl(motor, ref);
 1808              		.loc 1 114 11 view .LVU510
 1809 0028 002B     		cmp	r3, #0
 1810 002a EED0     		beq	.L81
 115:moudels/motor/MImotor/MImotor.c ****         }
 1811              		.loc 1 115 17 is_stmt 1 view .LVU511
 1812 002c B0EE480A 		vmov.f32	s0, s16
 1813 0030 2046     		mov	r0, r4
 1814 0032 FFF7FEFF 		bl	MI_motor_LocationControl
 1815              	.LVL147:
 1816 0036 E8E7     		b	.L81
 1817              	.L86:
 118:moudels/motor/MImotor/MImotor.c ****         }
 1818              		.loc 1 118 17 view .LVU512
 1819 0038 B0EE480A 		vmov.f32	s0, s16
 1820 003c 2046     		mov	r0, r4
 1821 003e FFF7FEFF 		bl	MI_motor_SpeedControl
 1822              	.LVL148:
 1823 0042 E4E7     		b	.L82
 1824              	.L87:
 121:moudels/motor/MImotor/MImotor.c ****         }
 1825              		.loc 1 121 13 view .LVU513
 1826 0044 B0EE480A 		vmov.f32	s0, s16
ARM GAS  C:\Users\Sive\AppData\Local\Temp\ccNX7ZTf.s 			page 43


 1827 0048 2046     		mov	r0, r4
 1828 004a FFF7FEFF 		bl	MI_motor_TorqueControl
 1829              	.LVL149:
 1830 004e E0E7     		b	.L83
 1831              	.LVL150:
 1832              	.L88:
 121:moudels/motor/MImotor/MImotor.c ****         }
 1833              		.loc 1 121 13 is_stmt 0 view .LVU514
 1834              	.LBE12:
 124:moudels/motor/MImotor/MImotor.c **** void MIMotorStop(MIMotorInstance *motor)
 1835              		.loc 1 124 1 view .LVU515
 1836 0050 BDEC028B 		vldm	sp!, {d8}
 1837              		.cfi_restore 80
 1838              		.cfi_restore 81
 1839              		.cfi_def_cfa_offset 16
 1840 0054 38BD     		pop	{r3, r4, r5, pc}
 1841              	.LVL151:
 1842              	.L90:
 124:moudels/motor/MImotor/MImotor.c **** void MIMotorStop(MIMotorInstance *motor)
 1843              		.loc 1 124 1 view .LVU516
 1844 0056 00BF     		.align	2
 1845              	.L89:
 1846 0058 00000000 		.word	idx
 1847 005c 00000000 		.word	mi_motor_instance
 1848              		.cfi_endproc
 1849              	.LFE141:
 1851              		.global	MI_MASTERID
 1852              		.section	.data.MI_MASTERID,"aw"
 1855              	MI_MASTERID:
 1856 0000 01       		.byte	1
 1857              		.section	.bss.mi_motor_instance,"aw",%nobits
 1858              		.align	2
 1861              	mi_motor_instance:
 1862 0000 00000000 		.space	8
 1862      00000000 
 1863              		.section	.bss.idx,"aw",%nobits
 1866              	idx:
 1867 0000 00       		.space	1
 1868              		.text
 1869              	.Letext0:
 1870              		.file 2 "C:/Users/Sive/AppData/Roaming/Code/User/globalStorage/bmd.stm32-for-vscode/@xpack-dev-too
 1871              		.file 3 "C:/Users/Sive/AppData/Roaming/Code/User/globalStorage/bmd.stm32-for-vscode/@xpack-dev-too
 1872              		.file 4 "Drivers/CMSIS/Device/ST/STM32F4xx/Include/stm32f407xx.h"
 1873              		.file 5 "Drivers/CMSIS/Device/ST/STM32F4xx/Include/stm32f4xx.h"
 1874              		.file 6 "C:/Users/Sive/AppData/Roaming/Code/User/globalStorage/bmd.stm32-for-vscode/@xpack-dev-too
 1875              		.file 7 "Drivers/STM32F4xx_HAL_Driver/Inc/stm32f4xx_hal_can.h"
 1876              		.file 8 "bsp/can/bsp_can.h"
 1877              		.file 9 "moudels/algorithm/controller.h"
 1878              		.file 10 "moudels/motor/motor_def.h"
 1879              		.file 11 "moudels/daemon/daemon.h"
 1880              		.file 12 "moudels/motor/MImotor/MImotor.h"
 1881              		.file 13 "Core/Inc/can.h"
 1882              		.file 14 "bsp/dwt/bsp_dwt.h"
 1883              		.file 15 "C:/Users/Sive/AppData/Roaming/Code/User/globalStorage/bmd.stm32-for-vscode/@xpack-dev-to
 1884              		.file 16 "C:/Users/Sive/AppData/Roaming/Code/User/globalStorage/bmd.stm32-for-vscode/@xpack-dev-to
 1885              		.file 17 "<built-in>"
ARM GAS  C:\Users\Sive\AppData\Local\Temp\ccNX7ZTf.s 			page 44


DEFINED SYMBOLS
                            *ABS*:00000000 MImotor.c
C:\Users\Sive\AppData\Local\Temp\ccNX7ZTf.s:21     .text.MIMotorLostCallback:00000000 $t
C:\Users\Sive\AppData\Local\Temp\ccNX7ZTf.s:26     .text.MIMotorLostCallback:00000000 MIMotorLostCallback
C:\Users\Sive\AppData\Local\Temp\ccNX7ZTf.s:48     .text.MI_motor_RxDecode:00000000 $t
C:\Users\Sive\AppData\Local\Temp\ccNX7ZTf.s:54     .text.MI_motor_RxDecode:00000000 MI_motor_RxDecode
C:\Users\Sive\AppData\Local\Temp\ccNX7ZTf.s:212    .text.MI_motor_RxDecode:000000d8 $d
C:\Users\Sive\AppData\Local\Temp\ccNX7ZTf.s:222    .text.DecodeMIMotor:00000000 $t
C:\Users\Sive\AppData\Local\Temp\ccNX7ZTf.s:227    .text.DecodeMIMotor:00000000 DecodeMIMotor
C:\Users\Sive\AppData\Local\Temp\ccNX7ZTf.s:372    .text.MIMotorStop:00000000 $t
C:\Users\Sive\AppData\Local\Temp\ccNX7ZTf.s:378    .text.MIMotorStop:00000000 MIMotorStop
C:\Users\Sive\AppData\Local\Temp\ccNX7ZTf.s:396    .text.MIMotorEnable:00000000 $t
C:\Users\Sive\AppData\Local\Temp\ccNX7ZTf.s:402    .text.MIMotorEnable:00000000 MIMotorEnable
C:\Users\Sive\AppData\Local\Temp\ccNX7ZTf.s:420    .text.MIMotorInit:00000000 $t
C:\Users\Sive\AppData\Local\Temp\ccNX7ZTf.s:426    .text.MIMotorInit:00000000 MIMotorInit
C:\Users\Sive\AppData\Local\Temp\ccNX7ZTf.s:550    .text.MIMotorInit:000000b0 $d
C:\Users\Sive\AppData\Local\Temp\ccNX7ZTf.s:1866   .bss.idx:00000000 idx
C:\Users\Sive\AppData\Local\Temp\ccNX7ZTf.s:1861   .bss.mi_motor_instance:00000000 mi_motor_instance
C:\Users\Sive\AppData\Local\Temp\ccNX7ZTf.s:558    .text.MIMotorOuterLoop:00000000 $t
C:\Users\Sive\AppData\Local\Temp\ccNX7ZTf.s:564    .text.MIMotorOuterLoop:00000000 MIMotorOuterLoop
C:\Users\Sive\AppData\Local\Temp\ccNX7ZTf.s:581    .text.MIMotorSetRef:00000000 $t
C:\Users\Sive\AppData\Local\Temp\ccNX7ZTf.s:587    .text.MIMotorSetRef:00000000 MIMotorSetRef
C:\Users\Sive\AppData\Local\Temp\ccNX7ZTf.s:604    .text.FloatToUint:00000000 $t
C:\Users\Sive\AppData\Local\Temp\ccNX7ZTf.s:610    .text.FloatToUint:00000000 FloatToUint
C:\Users\Sive\AppData\Local\Temp\ccNX7ZTf.s:668    .text.RangeRestrict:00000000 $t
C:\Users\Sive\AppData\Local\Temp\ccNX7ZTf.s:674    .text.RangeRestrict:00000000 RangeRestrict
C:\Users\Sive\AppData\Local\Temp\ccNX7ZTf.s:713    .text.MI_motor_GetID:00000000 $t
C:\Users\Sive\AppData\Local\Temp\ccNX7ZTf.s:719    .text.MI_motor_GetID:00000000 MI_motor_GetID
C:\Users\Sive\AppData\Local\Temp\ccNX7ZTf.s:798    .text.MI_motor_Control:00000000 $t
C:\Users\Sive\AppData\Local\Temp\ccNX7ZTf.s:804    .text.MI_motor_Control:00000000 MI_motor_Control
C:\Users\Sive\AppData\Local\Temp\ccNX7ZTf.s:971    .text.MI_motor_Control:000000f8 $d
C:\Users\Sive\AppData\Local\Temp\ccNX7ZTf.s:977    .text.MI_motor_Enable:00000000 $t
C:\Users\Sive\AppData\Local\Temp\ccNX7ZTf.s:983    .text.MI_motor_Enable:00000000 MI_motor_Enable
C:\Users\Sive\AppData\Local\Temp\ccNX7ZTf.s:1066   .text.MI_motor_Enable:00000058 $d
C:\Users\Sive\AppData\Local\Temp\ccNX7ZTf.s:1855   .data.MI_MASTERID:00000000 MI_MASTERID
C:\Users\Sive\AppData\Local\Temp\ccNX7ZTf.s:1071   .text.MI_motor_Stop:00000000 $t
C:\Users\Sive\AppData\Local\Temp\ccNX7ZTf.s:1077   .text.MI_motor_Stop:00000000 MI_motor_Stop
C:\Users\Sive\AppData\Local\Temp\ccNX7ZTf.s:1160   .text.MI_motor_Stop:00000058 $d
C:\Users\Sive\AppData\Local\Temp\ccNX7ZTf.s:1165   .text.MI_motor_SetMechPositionToZero:00000000 $t
C:\Users\Sive\AppData\Local\Temp\ccNX7ZTf.s:1171   .text.MI_motor_SetMechPositionToZero:00000000 MI_motor_SetMechPositionToZero
C:\Users\Sive\AppData\Local\Temp\ccNX7ZTf.s:1260   .text.MI_motor_SetMechPositionToZero:00000060 $d
C:\Users\Sive\AppData\Local\Temp\ccNX7ZTf.s:1265   .text.MI_motor_ReadParam:00000000 $t
C:\Users\Sive\AppData\Local\Temp\ccNX7ZTf.s:1271   .text.MI_motor_ReadParam:00000000 MI_motor_ReadParam
C:\Users\Sive\AppData\Local\Temp\ccNX7ZTf.s:1361   .text.MI_motor_ReadParam:00000064 $d
C:\Users\Sive\AppData\Local\Temp\ccNX7ZTf.s:1366   .text.MI_motor_ModeSwitch:00000000 $t
C:\Users\Sive\AppData\Local\Temp\ccNX7ZTf.s:1372   .text.MI_motor_ModeSwitch:00000000 MI_motor_ModeSwitch
C:\Users\Sive\AppData\Local\Temp\ccNX7ZTf.s:1467   .text.MI_motor_ModeSwitch:00000070 $d
C:\Users\Sive\AppData\Local\Temp\ccNX7ZTf.s:1472   .text.MI_motor_Modeset:00000000 $t
C:\Users\Sive\AppData\Local\Temp\ccNX7ZTf.s:1478   .text.MI_motor_Modeset:00000000 MI_motor_Modeset
C:\Users\Sive\AppData\Local\Temp\ccNX7ZTf.s:1577   .text.MI_motor_Modeset:00000070 $d
C:\Users\Sive\AppData\Local\Temp\ccNX7ZTf.s:1582   .text.MI_motor_TorqueControl:00000000 $t
C:\Users\Sive\AppData\Local\Temp\ccNX7ZTf.s:1588   .text.MI_motor_TorqueControl:00000000 MI_motor_TorqueControl
C:\Users\Sive\AppData\Local\Temp\ccNX7ZTf.s:1623   .text.MI_motor_LocationControl:00000000 $t
C:\Users\Sive\AppData\Local\Temp\ccNX7ZTf.s:1629   .text.MI_motor_LocationControl:00000000 MI_motor_LocationControl
C:\Users\Sive\AppData\Local\Temp\ccNX7ZTf.s:1681   .text.MI_motor_SpeedControl:00000000 $t
C:\Users\Sive\AppData\Local\Temp\ccNX7ZTf.s:1687   .text.MI_motor_SpeedControl:00000000 MI_motor_SpeedControl
C:\Users\Sive\AppData\Local\Temp\ccNX7ZTf.s:1739   .text.MIMotorControl:00000000 $t
ARM GAS  C:\Users\Sive\AppData\Local\Temp\ccNX7ZTf.s 			page 45


C:\Users\Sive\AppData\Local\Temp\ccNX7ZTf.s:1745   .text.MIMotorControl:00000000 MIMotorControl
C:\Users\Sive\AppData\Local\Temp\ccNX7ZTf.s:1846   .text.MIMotorControl:00000058 $d
C:\Users\Sive\AppData\Local\Temp\ccNX7ZTf.s:1858   .bss.mi_motor_instance:00000000 $d
C:\Users\Sive\AppData\Local\Temp\ccNX7ZTf.s:1867   .bss.idx:00000000 $d

UNDEFINED SYMBOLS
__aeabi_f2d
__aeabi_dsub
__aeabi_ddiv
__aeabi_dmul
__aeabi_d2f
DaemonReload
DWT_GetDeltaT
malloc
memset
CANRegister
DaemonRegister
CANTransmit
