ARM GAS  C:\Users\Sive\AppData\Local\Temp\ccX6Z0WA.s 			page 1


   1              		.cpu cortex-m4
   2              		.arch armv7e-m
   3              		.fpu fpv4-sp-d16
   4              		.eabi_attribute 27, 1
   5              		.eabi_attribute 28, 1
   6              		.eabi_attribute 20, 1
   7              		.eabi_attribute 21, 1
   8              		.eabi_attribute 23, 3
   9              		.eabi_attribute 24, 1
  10              		.eabi_attribute 25, 1
  11              		.eabi_attribute 26, 1
  12              		.eabi_attribute 30, 1
  13              		.eabi_attribute 34, 1
  14              		.eabi_attribute 18, 4
  15              		.file	"MImotor.c"
  16              		.text
  17              	.Ltext0:
  18              		.cfi_sections	.debug_frame
  19              		.file 1 "moudels/motor/MImotor/MImotor.c"
  20              		.section	.text.MIMotorLostCallback,"ax",%progbits
  21              		.align	1
  22              		.syntax unified
  23              		.thumb
  24              		.thumb_func
  26              	MIMotorLostCallback:
  27              	.LVL0:
  28              	.LFB139:
   1:moudels/motor/MImotor/MImotor.c **** #include "MImotor.h"
   2:moudels/motor/MImotor/MImotor.c **** #include "general_def.h"
   3:moudels/motor/MImotor/MImotor.c **** #include "bsp_dwt.h"
   4:moudels/motor/MImotor/MImotor.c **** #include "bsp_log.h"
   5:moudels/motor/MImotor/MImotor.c **** #include "string.h"
   6:moudels/motor/MImotor/MImotor.c **** 
   7:moudels/motor/MImotor/MImotor.c **** static uint8_t idx=0 ; 
   8:moudels/motor/MImotor/MImotor.c **** static MIMotorInstance *mi_motor_instance[MI_MOTOR_CNT] = {NULL}; 
   9:moudels/motor/MImotor/MImotor.c **** uint8_t MI_MASTERID = 0; //master id ÂèëÈÄÅÊåá‰ª§Êó∂EXTIDÁöÑbit8:15,ÂèçÈ¶àÁöÑbit0:7
  10:moudels/motor/MImotor/MImotor.c **** /**
  11:moudels/motor/MImotor/MImotor.c ****   * @brief          Â∞èÁ±≥ÁîµÊú∫ÂèçÈ¶àÂ∏ßËß£Á†ÅÔºàÈÄö‰ø°Á±ªÂûã2Ôºâ
  12:moudels/motor/MImotor/MImotor.c ****   * @param[in]      Rx_can_info Êé•ÂèóÂà∞ÁöÑÁîµÊú∫Êï∞ÊçÆÁªìÊûÑ‰Ωì
  13:moudels/motor/MImotor/MImotor.c ****   * @param[in]      rx_data[8] CANÁ∫øÊé•Êî∂Âà∞ÁöÑÊï∞ÊçÆ
  14:moudels/motor/MImotor/MImotor.c ****   * @note           Â∞ÜÊé•Êî∂Âà∞ÁöÑCANÁ∫øÊï∞ÊçÆËß£Á†ÅÂà∞ÁîµÊú∫Êï∞ÊçÆÁªìÊûÑ‰Ωì‰∏≠
  15:moudels/motor/MImotor/MImotor.c ****   * @retval         none
  16:moudels/motor/MImotor/MImotor.c ****   */
  17:moudels/motor/MImotor/MImotor.c **** void MI_motor_RxDecode(RxCAN_info_type_2_s* RxCAN_info,uint8_t rx_data[8])
  18:moudels/motor/MImotor/MImotor.c **** {
  19:moudels/motor/MImotor/MImotor.c ****     uint16_t decode_temp_mi;//Â∞èÁ±≥ÁîµÊú∫ÂèçÈ¶àÊï∞ÊçÆËß£Á†ÅÁºìÂÜ≤
  20:moudels/motor/MImotor/MImotor.c ****     decode_temp_mi = (rx_data[0] << 8 | rx_data[1]);
  21:moudels/motor/MImotor/MImotor.c ****     RxCAN_info->angle = ((float)decode_temp_mi-32767.5)/32767.5*4*3.1415926f;//rad  
  22:moudels/motor/MImotor/MImotor.c **** 
  23:moudels/motor/MImotor/MImotor.c ****     decode_temp_mi = (rx_data[2] << 8 | rx_data[3]);
  24:moudels/motor/MImotor/MImotor.c ****     RxCAN_info->speed = ((float)decode_temp_mi-32767.5)/32767.5*30.0f;//Âçï‰Ωçrad/s
  25:moudels/motor/MImotor/MImotor.c **** 
  26:moudels/motor/MImotor/MImotor.c ****     decode_temp_mi = (rx_data[4] << 8 | rx_data[5]);
  27:moudels/motor/MImotor/MImotor.c ****     RxCAN_info->torque = ((float)decode_temp_mi-32767.5)/32767.5*12.0f;//Nm
  28:moudels/motor/MImotor/MImotor.c **** 
  29:moudels/motor/MImotor/MImotor.c ****     decode_temp_mi = (rx_data[6] << 8 | rx_data[7]);
  30:moudels/motor/MImotor/MImotor.c ****     RxCAN_info->temperature = (float)decode_temp_mi/10.0f;//ÊëÑÊ∞èÂ∫¶
ARM GAS  C:\Users\Sive\AppData\Local\Temp\ccX6Z0WA.s 			page 2


  31:moudels/motor/MImotor/MImotor.c ****  }
  32:moudels/motor/MImotor/MImotor.c **** static void DecodeMIMotor(CANInstance *_instance)
  33:moudels/motor/MImotor/MImotor.c **** {
  34:moudels/motor/MImotor/MImotor.c ****     uint8_t *rxbuff=_instance->rx_buff;
  35:moudels/motor/MImotor/MImotor.c ****     MIMotorInstance *motor = (MIMotorInstance *)_instance->id;
  36:moudels/motor/MImotor/MImotor.c ****     MI_Motor_Measure_s *measure = &motor->measure; // measureË¶ÅÂ§öÊ¨°‰ΩøÁî®,‰øùÂ≠òÊåáÈíàÂáèÂ∞èËÆøÂ
  37:moudels/motor/MImotor/MImotor.c ****     RxCAN_info_s  RxCAN_info;//ÂÇ®Â≠òÊé•ÂèóÁöÑÊ†áËØÜÁ¨¶
  38:moudels/motor/MImotor/MImotor.c ****     DaemonReload(motor->daemon);
  39:moudels/motor/MImotor/MImotor.c ****     motor->dt = DWT_GetDeltaT(&motor->feed_cnt);
  40:moudels/motor/MImotor/MImotor.c ****     memcpy(&RxCAN_info,&_instance->rxconf.ExtId,4);//Â∞ÜÊâ©Â±ïÊ†áËØÜÁ¨¶ÁöÑÂÜÖÂÆπËß£Á†ÅÂà∞ÁºìÂ≠òÂå∫Ô
  41:moudels/motor/MImotor/MImotor.c ****     if(RxCAN_info.communication_type == 0){//ÈÄö‰ø°Á±ªÂûã0ÁöÑÂèçÈ¶àÂ∏ßËß£Á†Å
  42:moudels/motor/MImotor/MImotor.c ****         RxCAN_info_type_0_s RxCAN_info_type_0;
  43:moudels/motor/MImotor/MImotor.c ****         memcpy(&RxCAN_info_type_0,&_instance->rxconf.ExtId,4);//Â∞ÜÊâ©Â±ïÊ†áËØÜÁ¨¶ÁöÑÂÜÖÂÆπËß£Á†ÅÊà
  44:moudels/motor/MImotor/MImotor.c ****         // memcpy(&RxCAN_info_type_0.MCU_id,&_instance->rxconf.ExtId,8);//Ëé∑ÂèñMCUÊ†áËØÜÁ¨¶
  45:moudels/motor/MImotor/MImotor.c ****         measure->motor_id=RxCAN_info_type_0.motor_id;
  46:moudels/motor/MImotor/MImotor.c ****     }else if(RxCAN_info.communication_type == 2){//ÈÄö‰ø°Á±ªÂûã2ÁöÑÂèçÈ¶àÂ∏ßËß£Á†Å
  47:moudels/motor/MImotor/MImotor.c ****         RxCAN_info_type_2_s RxCAN_info_type_2;
  48:moudels/motor/MImotor/MImotor.c ****         memcpy(&RxCAN_info_type_2,&_instance->rxconf.ExtId,4);//Â∞ÜÊâ©Â±ïÊ†áËØÜÁ¨¶ÁöÑÂÜÖÂÆπËß£Á†ÅÊà
  49:moudels/motor/MImotor/MImotor.c ****         MI_motor_RxDecode(&RxCAN_info_type_2,rxbuff);//ÈÄö‰ø°Á±ªÂûã2ÁöÑÊï∞ÊçÆËß£Á†Å
  50:moudels/motor/MImotor/MImotor.c ****         measure->angle_single_round=RxCAN_info_type_2.angle;
  51:moudels/motor/MImotor/MImotor.c ****         measure->real_current=RxCAN_info_type_2.torque;
  52:moudels/motor/MImotor/MImotor.c ****         measure->speed_aps=RxCAN_info_type_2.speed;
  53:moudels/motor/MImotor/MImotor.c ****         measure->temperature=RxCAN_info_type_2.temperature;
  54:moudels/motor/MImotor/MImotor.c ****     }else if(RxCAN_info.communication_type == 17){//ÈÄö‰ø°Á±ªÂûã17ÁöÑÂèçÈ¶àÂ∏ßËß£Á†Å
  55:moudels/motor/MImotor/MImotor.c ****         RxCAN_info_type_17_s RxCAN_info_type_17;
  56:moudels/motor/MImotor/MImotor.c ****         memcpy(&RxCAN_info_type_17,&_instance->rxconf.ExtId,4);//Â∞ÜÊâ©Â±ïÊ†áËØÜÁ¨¶ÁöÑÂÜÖÂÆπËß£Á†ÅÊ
  57:moudels/motor/MImotor/MImotor.c ****         memcpy(&RxCAN_info_type_17.index,&_instance->rx_buff[0],2);//Ëé∑ÂèñÊü•ÊâæÁöÑÂèÇÊï∞Á¥¢ÂºïÁ†Å
  58:moudels/motor/MImotor/MImotor.c ****         memcpy(&RxCAN_info_type_17.param,&_instance->rx_buff[0],4);//Ëé∑ÂèñÊü•ÊâæÁöÑÂèÇÊï∞‰ø°ÊÅØ
  59:moudels/motor/MImotor/MImotor.c ****         measure->motor_id=RxCAN_info_type_17.motor_id;
  60:moudels/motor/MImotor/MImotor.c ****         measure->index=RxCAN_info_type_17.index;
  61:moudels/motor/MImotor/MImotor.c ****         measure->param=RxCAN_info_type_17.param;
  62:moudels/motor/MImotor/MImotor.c ****     }
  63:moudels/motor/MImotor/MImotor.c **** 
  64:moudels/motor/MImotor/MImotor.c **** 
  65:moudels/motor/MImotor/MImotor.c **** }
  66:moudels/motor/MImotor/MImotor.c **** 
  67:moudels/motor/MImotor/MImotor.c **** static void MIMotorLostCallback(void *motor_ptr)
  68:moudels/motor/MImotor/MImotor.c **** {
  29              		.loc 1 68 1 view -0
  30              		.cfi_startproc
  31              		@ args = 0, pretend = 0, frame = 0
  32              		@ frame_needed = 0, uses_anonymous_args = 0
  33              		@ link register save eliminated.
  69:moudels/motor/MImotor/MImotor.c ****     MIMotorInstance *motor = (MIMotorInstance *)motor_ptr;
  34              		.loc 1 69 5 view .LVU1
  70:moudels/motor/MImotor/MImotor.c ****     uint16_t can_bus = motor->motor_can_instance->can_handle == &hcan1 ? 1 : 2;
  35              		.loc 1 70 5 view .LVU2
  71:moudels/motor/MImotor/MImotor.c ****     LOGWARNING("[mi_motor] Motor lost, can bus [%d] , id [%d]", can_bus, motor->motor_can_instance-
  36              		.loc 1 71 107 view .LVU3
  72:moudels/motor/MImotor/MImotor.c **** }
  37              		.loc 1 72 1 is_stmt 0 view .LVU4
  38 0000 7047     		bx	lr
  39              		.cfi_endproc
  40              	.LFE139:
  42              		.section	.text.MI_motor_ModeSwitch,"ax",%progbits
  43              		.align	1
  44              		.syntax unified
ARM GAS  C:\Users\Sive\AppData\Local\Temp\ccX6Z0WA.s 			page 3


  45              		.thumb
  46              		.thumb_func
  48              	MI_motor_ModeSwitch:
  49              	.LVL1:
  50              	.LFB154:
  73:moudels/motor/MImotor/MImotor.c **** MIMotorInstance *MIMotorInit(Motor_Init_Config_s *config)
  74:moudels/motor/MImotor/MImotor.c **** {
  75:moudels/motor/MImotor/MImotor.c ****     MIMotorInstance *instance = (MIMotorInstance *)malloc(sizeof(MIMotorInstance));
  76:moudels/motor/MImotor/MImotor.c ****     memset(instance, 0, sizeof(MIMotorInstance));
  77:moudels/motor/MImotor/MImotor.c ****     instance->motor_type = config->motor_type;
  78:moudels/motor/MImotor/MImotor.c ****     instance->motor_settings = config->controller_setting_init_config;
  79:moudels/motor/MImotor/MImotor.c **** 
  80:moudels/motor/MImotor/MImotor.c ****     config->can_init_config.rx_id=config->can_init_config.tx_id;
  81:moudels/motor/MImotor/MImotor.c ****     config->can_init_config.can_module_callback=DecodeMIMotor;
  82:moudels/motor/MImotor/MImotor.c ****     config->can_init_config.id=instance;   
  83:moudels/motor/MImotor/MImotor.c ****     config->can_init_config.EXT_ID.fields.motor_id=config->can_init_config.tx_id;
  84:moudels/motor/MImotor/MImotor.c ****     config->can_init_config.EXT_ID.fields.data=0;
  85:moudels/motor/MImotor/MImotor.c ****     config->can_init_config.EXT_ID.fields.mode=3;
  86:moudels/motor/MImotor/MImotor.c ****     config->can_init_config.EXT_ID.fields.res=0;
  87:moudels/motor/MImotor/MImotor.c ****     instance->motor_can_instance = CANRegister(&config->can_init_config);//Ê≥®ÂÜåÂ∞èÁ±≥ÁîµÊú∫Âà∞can
  88:moudels/motor/MImotor/MImotor.c ****     // Ê≥®ÂÜåÂÆàÊä§Á∫øÁ®ã
  89:moudels/motor/MImotor/MImotor.c ****     Daemon_Init_Config_s daemon_config = {
  90:moudels/motor/MImotor/MImotor.c ****         .callback = MIMotorLostCallback,
  91:moudels/motor/MImotor/MImotor.c ****         .owner_id = instance,
  92:moudels/motor/MImotor/MImotor.c ****         .reload_count = 2, // 20msÊú™Êî∂Âà∞Êï∞ÊçÆÂàô‰∏¢Â§±
  93:moudels/motor/MImotor/MImotor.c ****     };
  94:moudels/motor/MImotor/MImotor.c ****     instance->daemon = DaemonRegister(&daemon_config);
  95:moudels/motor/MImotor/MImotor.c **** 
  96:moudels/motor/MImotor/MImotor.c ****     MIMotorEnable(instance);
  97:moudels/motor/MImotor/MImotor.c ****     mi_motor_instance[idx++] = instance;
  98:moudels/motor/MImotor/MImotor.c ****     return instance;
  99:moudels/motor/MImotor/MImotor.c **** }
 100:moudels/motor/MImotor/MImotor.c **** 
 101:moudels/motor/MImotor/MImotor.c **** void MIMotorControl()
 102:moudels/motor/MImotor/MImotor.c **** {
 103:moudels/motor/MImotor/MImotor.c ****     MIMotorInstance *motor;
 104:moudels/motor/MImotor/MImotor.c ****     Motor_Control_Setting_s *motor_setting;// ÁîµÊú∫ÊéßÂà∂ÂèÇÊï∞
 105:moudels/motor/MImotor/MImotor.c ****     // Motor_Controller_s *motor_controller;   // ÁîµÊú∫ÊéßÂà∂Âô®
 106:moudels/motor/MImotor/MImotor.c ****     // MI_Motor_Measure_s *measure;           // ÁîµÊú∫ÊµãÈáèÂÄº
 107:moudels/motor/MImotor/MImotor.c ****     static float ref;
 108:moudels/motor/MImotor/MImotor.c ****     for(size_t i=0;i<idx;i++)
 109:moudels/motor/MImotor/MImotor.c ****     {
 110:moudels/motor/MImotor/MImotor.c ****         motor = mi_motor_instance[i];
 111:moudels/motor/MImotor/MImotor.c ****         motor_setting = &motor->motor_settings;
 112:moudels/motor/MImotor/MImotor.c ****         // motor_controller = &motor->motor_controller;
 113:moudels/motor/MImotor/MImotor.c ****         // measure = &motor->measure;
 114:moudels/motor/MImotor/MImotor.c ****         ref = motor->motor_controller.pid_ref; // ‰øùÂ≠òËÆæÂÆöÂÄº,Èò≤Ê≠¢motor_controller->pid_refÂú
 115:moudels/motor/MImotor/MImotor.c ****         if(motor->stop_flag == MOTOR_STOP){
 116:moudels/motor/MImotor/MImotor.c ****               MI_motor_stop(motor);
 117:moudels/motor/MImotor/MImotor.c ****               motor_setting->ifsetflag=0;
 118:moudels/motor/MImotor/MImotor.c ****         }else if(motor->stop_flag == MOTOR_ENALBED&&motor_setting->ifsetflag==0){
 119:moudels/motor/MImotor/MImotor.c ****             if((motor_setting->close_loop_type==ANGLE_LOOP&&motor_setting->ifsetflag==0)){
 120:moudels/motor/MImotor/MImotor.c ****                     MI_motor_LocationControl(motor);
 121:moudels/motor/MImotor/MImotor.c ****                     motor_setting->ifsetflag=1;
 122:moudels/motor/MImotor/MImotor.c ****             }else if(motor_setting->close_loop_type==SPEED_LOOP&&motor_setting->ifsetflag==0)
 123:moudels/motor/MImotor/MImotor.c ****             {
 124:moudels/motor/MImotor/MImotor.c ****                     MI_motor_SpeedControl(motor);
ARM GAS  C:\Users\Sive\AppData\Local\Temp\ccX6Z0WA.s 			page 4


 125:moudels/motor/MImotor/MImotor.c ****                     motor_setting->ifsetflag=1;
 126:moudels/motor/MImotor/MImotor.c ****             }else if(motor_setting->close_loop_type==CURRENT_LOOP&&motor_setting->ifsetflag==0)
 127:moudels/motor/MImotor/MImotor.c ****            {
 128:moudels/motor/MImotor/MImotor.c ****                     MI_motor_TorqueControl(motor);
 129:moudels/motor/MImotor/MImotor.c ****                     motor_setting->ifsetflag=1;
 130:moudels/motor/MImotor/MImotor.c ****             }
 131:moudels/motor/MImotor/MImotor.c ****          }
 132:moudels/motor/MImotor/MImotor.c ****          if(motor->stop_flag == MOTOR_ENALBED&&motor_setting->ifsetflag==1){
 133:moudels/motor/MImotor/MImotor.c ****             if((motor_setting->close_loop_type==ANGLE_LOOP)){
 134:moudels/motor/MImotor/MImotor.c ****                     MI_motor_Modeset(motor,ref,0x7016);
 135:moudels/motor/MImotor/MImotor.c ****             }else if(motor_setting->close_loop_type==SPEED_LOOP){
 136:moudels/motor/MImotor/MImotor.c ****                     MI_motor_Modeset(motor,ref,0x700A);
 137:moudels/motor/MImotor/MImotor.c ****             }else if(motor_setting->close_loop_type==CURRENT_LOOP){
 138:moudels/motor/MImotor/MImotor.c ****                     MI_motor_Modeset(motor,ref,0x7006);
 139:moudels/motor/MImotor/MImotor.c ****             }
 140:moudels/motor/MImotor/MImotor.c ****          }
 141:moudels/motor/MImotor/MImotor.c ****     }
 142:moudels/motor/MImotor/MImotor.c ****     
 143:moudels/motor/MImotor/MImotor.c **** }
 144:moudels/motor/MImotor/MImotor.c **** void MIMotorStop(MIMotorInstance *motor)
 145:moudels/motor/MImotor/MImotor.c **** {
 146:moudels/motor/MImotor/MImotor.c ****     motor->stop_flag = MOTOR_STOP;
 147:moudels/motor/MImotor/MImotor.c **** }
 148:moudels/motor/MImotor/MImotor.c **** 
 149:moudels/motor/MImotor/MImotor.c **** void MIMotorEnable(MIMotorInstance *motor)
 150:moudels/motor/MImotor/MImotor.c **** {
 151:moudels/motor/MImotor/MImotor.c ****     motor->stop_flag = MOTOR_ENALBED;
 152:moudels/motor/MImotor/MImotor.c **** }
 153:moudels/motor/MImotor/MImotor.c **** 
 154:moudels/motor/MImotor/MImotor.c **** /* ‰øÆÊîπÁîµÊú∫ÁöÑÂÆûÈôÖÈó≠ÁéØÂØπË±° */
 155:moudels/motor/MImotor/MImotor.c **** void MIMotorOuterLoop(MIMotorInstance *motor, Closeloop_Type_e outer_loop)
 156:moudels/motor/MImotor/MImotor.c **** {
 157:moudels/motor/MImotor/MImotor.c ****     motor->motor_settings.outer_loop_type = outer_loop;
 158:moudels/motor/MImotor/MImotor.c **** }
 159:moudels/motor/MImotor/MImotor.c **** 
 160:moudels/motor/MImotor/MImotor.c **** // ËÆæÁΩÆÂèÇËÄÉÂÄº
 161:moudels/motor/MImotor/MImotor.c **** void MIMotorSetRef(MIMotorInstance *motor, float ref)
 162:moudels/motor/MImotor/MImotor.c **** {
 163:moudels/motor/MImotor/MImotor.c ****     motor->motor_controller.pid_ref = ref;
 164:moudels/motor/MImotor/MImotor.c **** }
 165:moudels/motor/MImotor/MImotor.c **** 
 166:moudels/motor/MImotor/MImotor.c **** // ‰∏∫ÊâÄÊúâÁîµÊú∫ÂÆû‰æãËÆ°ÁÆó‰∏âÁéØPID,ÂèëÈÄÅÊéßÂà∂Êä•Êñá
 167:moudels/motor/MImotor/MImotor.c **** 
 168:moudels/motor/MImotor/MImotor.c **** //--------
 169:moudels/motor/MImotor/MImotor.c **** /**
 170:moudels/motor/MImotor/MImotor.c ****   * @brief          floatËΩ¨intÔºåÊï∞ÊçÆÊâìÂåÖÁî®
 171:moudels/motor/MImotor/MImotor.c ****   * @param[in]      x floatÊï∞ÂÄº
 172:moudels/motor/MImotor/MImotor.c ****   * @param[in]      x_min floatÊï∞ÂÄºÁöÑÊúÄÂ∞èÂÄº
 173:moudels/motor/MImotor/MImotor.c ****   * @param[in]      x_max floatÊï∞ÂÄºÁöÑÊúÄÂ§ßÂÄº
 174:moudels/motor/MImotor/MImotor.c ****   * @param[in]      bits  intÁöÑÊï∞ÊçÆ‰ΩçÊï∞
 175:moudels/motor/MImotor/MImotor.c ****   * @retval         none
 176:moudels/motor/MImotor/MImotor.c ****   */
 177:moudels/motor/MImotor/MImotor.c **** uint32_t FloatToUint(float x, float x_min, float x_max, int bits)
 178:moudels/motor/MImotor/MImotor.c **** {
 179:moudels/motor/MImotor/MImotor.c ****     float span = x_max - x_min;
 180:moudels/motor/MImotor/MImotor.c ****     float offset = x_min;
 181:moudels/motor/MImotor/MImotor.c ****     if(x > x_max) x=x_max;
ARM GAS  C:\Users\Sive\AppData\Local\Temp\ccX6Z0WA.s 			page 5


 182:moudels/motor/MImotor/MImotor.c ****     else if(x < x_min) x=x_min;
 183:moudels/motor/MImotor/MImotor.c ****     return (uint32_t) ((x-offset)*((float)((1<<bits)-1))/span);
 184:moudels/motor/MImotor/MImotor.c **** }
 185:moudels/motor/MImotor/MImotor.c **** 
 186:moudels/motor/MImotor/MImotor.c **** /**
 187:moudels/motor/MImotor/MImotor.c ****   * @brief          ËæìÂÖ•ËåÉÂõ¥ÈôêÂà∂
 188:moudels/motor/MImotor/MImotor.c ****   * @param[in]      x ËæìÂÖ•Êï∞ÂÄº
 189:moudels/motor/MImotor/MImotor.c ****   * @param[in]      x_min ËæìÂÖ•Êï∞ÂÄºÁöÑÊúÄÂ∞èÂÄº
 190:moudels/motor/MImotor/MImotor.c ****   * @param[in]      x_max ËæìÂÖ•Êï∞ÂÄºÁöÑÊúÄÂ§ßÂÄº
 191:moudels/motor/MImotor/MImotor.c ****   * @retval         none
 192:moudels/motor/MImotor/MImotor.c ****   */
 193:moudels/motor/MImotor/MImotor.c **** float RangeRestrict(float x, float x_min, float x_max)
 194:moudels/motor/MImotor/MImotor.c **** {
 195:moudels/motor/MImotor/MImotor.c ****     float res;
 196:moudels/motor/MImotor/MImotor.c ****     if(x > x_max) res=x_max;
 197:moudels/motor/MImotor/MImotor.c ****     else if(x < x_min) res=x_min;
 198:moudels/motor/MImotor/MImotor.c ****     else res = x;
 199:moudels/motor/MImotor/MImotor.c ****     return res;
 200:moudels/motor/MImotor/MImotor.c **** }
 201:moudels/motor/MImotor/MImotor.c **** 
 202:moudels/motor/MImotor/MImotor.c **** //------------------ÈÄöËÆØÁ±ªÂûãÈ≠îÊîπÂ∞èÁ±≥ÊñáÊ°£-------------
 203:moudels/motor/MImotor/MImotor.c **** /**
 204:moudels/motor/MImotor/MImotor.c ****   * @brief          Ëé∑ÂèñËÆæÂ§áID ÔºàÈÄö‰ø°Á±ªÂûã0ÔºâÔºåÈúÄÂú®ÁîµÊú∫‰ΩøËÉΩÂâç‰ΩøÁî®
 205:moudels/motor/MImotor/MImotor.c ****   * @param[in]      hmotor ÁîµÊú∫ÁªìÊûÑ‰Ωì
 206:moudels/motor/MImotor/MImotor.c ****   * @retval         none
 207:moudels/motor/MImotor/MImotor.c ****   */
 208:moudels/motor/MImotor/MImotor.c **** static void MI_motor_GetID(MIMotorInstance  *hmotor)
 209:moudels/motor/MImotor/MImotor.c **** {   
 210:moudels/motor/MImotor/MImotor.c ****     static EXT_ID_T EXT  ;
 211:moudels/motor/MImotor/MImotor.c ****     EXT.fields.mode=0;
 212:moudels/motor/MImotor/MImotor.c ****     EXT.fields.data=0;
 213:moudels/motor/MImotor/MImotor.c ****     EXT.fields.motor_id=0;
 214:moudels/motor/MImotor/MImotor.c ****     EXT.fields.res=0;
 215:moudels/motor/MImotor/MImotor.c ****     hmotor->motor_can_instance->txconf.ExtId= EXT.raw;
 216:moudels/motor/MImotor/MImotor.c ****     // hmotor->EXT_ID.mode = 0;
 217:moudels/motor/MImotor/MImotor.c ****     // hmotor->EXT_ID.data = 0;
 218:moudels/motor/MImotor/MImotor.c ****     // hmotor->EXT_ID.motor_id = 0;
 219:moudels/motor/MImotor/MImotor.c ****     // hmotor->EXT_ID.res = 0;
 220:moudels/motor/MImotor/MImotor.c ****  
 221:moudels/motor/MImotor/MImotor.c ****     for(uint8_t i=0; i<8; i++)
 222:moudels/motor/MImotor/MImotor.c ****     {
 223:moudels/motor/MImotor/MImotor.c ****         hmotor->motor_can_instance->tx_buff[i]=0;
 224:moudels/motor/MImotor/MImotor.c ****     }
 225:moudels/motor/MImotor/MImotor.c ****     CANTransmit(hmotor->motor_can_instance,1);
 226:moudels/motor/MImotor/MImotor.c ****      
 227:moudels/motor/MImotor/MImotor.c ****     
 228:moudels/motor/MImotor/MImotor.c **** }
 229:moudels/motor/MImotor/MImotor.c **** 
 230:moudels/motor/MImotor/MImotor.c **** /**
 231:moudels/motor/MImotor/MImotor.c ****   * @brief          ËøêÊéßÊ®°ÂºèÁîµÊú∫ÊéßÂà∂Êåá‰ª§ÔºàÈÄö‰ø°Á±ªÂûã1Ôºâ
 232:moudels/motor/MImotor/MImotor.c ****   * @param[in]      hmotor ÁîµÊú∫ÁªìÊûÑ‰Ωì
 233:moudels/motor/MImotor/MImotor.c ****   * @param[in]      torque ÁõÆÊ†áÂäõÁü©
 234:moudels/motor/MImotor/MImotor.c ****   * @param[in]      MechPosition 
 235:moudels/motor/MImotor/MImotor.c ****   * @param[in]      speed 
 236:moudels/motor/MImotor/MImotor.c ****   * @param[in]      kp 
 237:moudels/motor/MImotor/MImotor.c ****   * @param[in]      kd 
 238:moudels/motor/MImotor/MImotor.c ****   * @retval         none
ARM GAS  C:\Users\Sive\AppData\Local\Temp\ccX6Z0WA.s 			page 6


 239:moudels/motor/MImotor/MImotor.c ****   */
 240:moudels/motor/MImotor/MImotor.c **** static void MI_motor_Control(MIMotorInstance* hmotor, float torque, float MechPosition , float spee
 241:moudels/motor/MImotor/MImotor.c **** {  
 242:moudels/motor/MImotor/MImotor.c ****     static EXT_ID_T EXT  ;
 243:moudels/motor/MImotor/MImotor.c ****     EXT.fields.mode=1;
 244:moudels/motor/MImotor/MImotor.c ****     EXT.fields.data=FloatToUint(torque,T_MIN,T_MAX,16);
 245:moudels/motor/MImotor/MImotor.c ****     EXT.fields.motor_id=hmotor->motor_can_instance->tx_id;
 246:moudels/motor/MImotor/MImotor.c ****     EXT.fields.res=0;
 247:moudels/motor/MImotor/MImotor.c ****     hmotor->motor_can_instance->txconf.ExtId=EXT.raw;
 248:moudels/motor/MImotor/MImotor.c ****     // hmotor->EXT_ID.mode = 1;
 249:moudels/motor/MImotor/MImotor.c ****     // hmotor->EXT_ID.motor_id = hmotor->motor_id;
 250:moudels/motor/MImotor/MImotor.c ****     // hmotor->EXT_ID.data = FloatToUint(torque,T_MIN,T_MAX,16);
 251:moudels/motor/MImotor/MImotor.c ****     // hmotor->EXT_ID.res = 0;
 252:moudels/motor/MImotor/MImotor.c ****     hmotor->motor_can_instance->tx_buff[0]=FloatToUint(MechPosition,P_MIN,P_MAX,16)>>8;
 253:moudels/motor/MImotor/MImotor.c ****     hmotor->motor_can_instance->tx_buff[1]=FloatToUint(MechPosition,P_MIN,P_MAX,16);
 254:moudels/motor/MImotor/MImotor.c ****     hmotor->motor_can_instance->tx_buff[2]=FloatToUint(speed,V_MIN,V_MAX,16)>>8;
 255:moudels/motor/MImotor/MImotor.c ****     hmotor->motor_can_instance->tx_buff[3]=FloatToUint(speed,V_MIN,V_MAX,16);
 256:moudels/motor/MImotor/MImotor.c ****     hmotor->motor_can_instance->tx_buff[4]=FloatToUint(kp,KP_MIN,KP_MAX,16)>>8;
 257:moudels/motor/MImotor/MImotor.c ****     hmotor->motor_can_instance->tx_buff[5]=FloatToUint(kp,KP_MIN,KP_MAX,16);
 258:moudels/motor/MImotor/MImotor.c ****     hmotor->motor_can_instance->tx_buff[6]=FloatToUint(kd,KD_MIN,KD_MAX,16)>>8;
 259:moudels/motor/MImotor/MImotor.c ****     hmotor->motor_can_instance->tx_buff[7]=FloatToUint(kd,KD_MIN,KD_MAX,16);
 260:moudels/motor/MImotor/MImotor.c ****     CANTransmit(hmotor->motor_can_instance,1);
 261:moudels/motor/MImotor/MImotor.c ****     
 262:moudels/motor/MImotor/MImotor.c **** }
 263:moudels/motor/MImotor/MImotor.c **** 
 264:moudels/motor/MImotor/MImotor.c **** /**
 265:moudels/motor/MImotor/MImotor.c ****   * @brief          Â∞èÁ±≥ÁîµÊú∫‰ΩøËÉΩÔºàÈÄö‰ø°Á±ªÂûã 3Ôºâ
 266:moudels/motor/MImotor/MImotor.c ****   * @param[in]      hmotor ÁîµÊú∫ÁªìÊûÑ‰Ωì
 267:moudels/motor/MImotor/MImotor.c ****   * @param[in]      id ÁîµÊú∫id
 268:moudels/motor/MImotor/MImotor.c ****   * @retval         none
 269:moudels/motor/MImotor/MImotor.c ****   */
 270:moudels/motor/MImotor/MImotor.c ****  static void MI_motor_Enable(MIMotorInstance* hmotor)
 271:moudels/motor/MImotor/MImotor.c **** {   
 272:moudels/motor/MImotor/MImotor.c ****     
 273:moudels/motor/MImotor/MImotor.c ****     static EXT_ID_T EXT  ;
 274:moudels/motor/MImotor/MImotor.c ****     EXT.fields.mode=3;
 275:moudels/motor/MImotor/MImotor.c ****     EXT.fields.data=MI_MASTERID;
 276:moudels/motor/MImotor/MImotor.c ****     EXT.fields.motor_id=hmotor->motor_can_instance->tx_id;
 277:moudels/motor/MImotor/MImotor.c ****     EXT.fields.res=0;
 278:moudels/motor/MImotor/MImotor.c ****     hmotor->motor_can_instance->txconf.ExtId= EXT.raw;
 279:moudels/motor/MImotor/MImotor.c ****     for(uint8_t i=0; i<8; i++)
 280:moudels/motor/MImotor/MImotor.c ****     {
 281:moudels/motor/MImotor/MImotor.c ****         hmotor->motor_can_instance->tx_buff[i]=0;
 282:moudels/motor/MImotor/MImotor.c ****     }
 283:moudels/motor/MImotor/MImotor.c **** 
 284:moudels/motor/MImotor/MImotor.c ****     if(!CANTransmit(hmotor->motor_can_instance,1)){
 285:moudels/motor/MImotor/MImotor.c ****         while(1){
 286:moudels/motor/MImotor/MImotor.c **** 
 287:moudels/motor/MImotor/MImotor.c ****         }
 288:moudels/motor/MImotor/MImotor.c ****     }
 289:moudels/motor/MImotor/MImotor.c ****      
 290:moudels/motor/MImotor/MImotor.c **** }
 291:moudels/motor/MImotor/MImotor.c **** /**
 292:moudels/motor/MImotor/MImotor.c ****   * @brief          ÁîµÊú∫ÂÅúÊ≠¢ËøêË°åÂ∏ßÔºàÈÄö‰ø°Á±ªÂûã4Ôºâ
 293:moudels/motor/MImotor/MImotor.c ****   * @param[in]      hmotor ÁîµÊú∫ÁªìÊûÑ‰Ωì
 294:moudels/motor/MImotor/MImotor.c ****   * @retval         none
 295:moudels/motor/MImotor/MImotor.c ****   */
ARM GAS  C:\Users\Sive\AppData\Local\Temp\ccX6Z0WA.s 			page 7


 296:moudels/motor/MImotor/MImotor.c **** static void MI_motor_Stop(MIMotorInstance* hmotor)
 297:moudels/motor/MImotor/MImotor.c **** 
 298:moudels/motor/MImotor/MImotor.c **** {   
 299:moudels/motor/MImotor/MImotor.c ****     static EXT_ID_T EXT;
 300:moudels/motor/MImotor/MImotor.c ****     EXT.fields.mode=4;
 301:moudels/motor/MImotor/MImotor.c ****     EXT.fields.data=MI_MASTERID;
 302:moudels/motor/MImotor/MImotor.c ****     EXT.fields.motor_id=hmotor->motor_can_instance->tx_id;
 303:moudels/motor/MImotor/MImotor.c ****     EXT.fields.res=0;
 304:moudels/motor/MImotor/MImotor.c ****     hmotor->motor_can_instance->txconf.ExtId= EXT.raw;
 305:moudels/motor/MImotor/MImotor.c ****     for(uint8_t i=0; i<8; i++)
 306:moudels/motor/MImotor/MImotor.c ****     {
 307:moudels/motor/MImotor/MImotor.c ****         hmotor->motor_can_instance->tx_buff[i]=0;
 308:moudels/motor/MImotor/MImotor.c ****     }
 309:moudels/motor/MImotor/MImotor.c **** 
 310:moudels/motor/MImotor/MImotor.c ****     CANTransmit(hmotor->motor_can_instance,1);
 311:moudels/motor/MImotor/MImotor.c **** }
 312:moudels/motor/MImotor/MImotor.c **** /**
 313:moudels/motor/MImotor/MImotor.c ****   * @brief          ËÆæÁΩÆÁîµÊú∫Êú∫Ê¢∞Èõ∂‰ΩçÔºàÈÄö‰ø°Á±ªÂûã6Ôºâ‰ºöÊääÂΩìÂâçÁîµÊú∫‰ΩçÁΩÆËÆæ‰∏∫Êú∫Ê¢∞
 314:moudels/motor/MImotor/MImotor.c ****   * @param[in]      hmotor ÁîµÊú∫ÁªìÊûÑ‰Ωì
 315:moudels/motor/MImotor/MImotor.c ****   * @retval         none
 316:moudels/motor/MImotor/MImotor.c ****   */
 317:moudels/motor/MImotor/MImotor.c **** static void MI_motor_SetMechPositionToZero(MIMotorInstance* hmotor)
 318:moudels/motor/MImotor/MImotor.c **** {
 319:moudels/motor/MImotor/MImotor.c ****     static EXT_ID_T EXT ;
 320:moudels/motor/MImotor/MImotor.c ****     EXT.fields.mode=6;
 321:moudels/motor/MImotor/MImotor.c ****     EXT.fields.data=MI_MASTERID;
 322:moudels/motor/MImotor/MImotor.c ****     EXT.fields.motor_id=hmotor->motor_can_instance->tx_id;
 323:moudels/motor/MImotor/MImotor.c ****     EXT.fields.res=0;
 324:moudels/motor/MImotor/MImotor.c ****     hmotor->motor_can_instance->txconf.ExtId= EXT.raw;
 325:moudels/motor/MImotor/MImotor.c ****     hmotor->motor_can_instance->tx_buff[0]=1;
 326:moudels/motor/MImotor/MImotor.c ****     for(uint8_t i=1; i<8; i++)
 327:moudels/motor/MImotor/MImotor.c ****     {
 328:moudels/motor/MImotor/MImotor.c ****         hmotor->motor_can_instance->tx_buff[i]=0;
 329:moudels/motor/MImotor/MImotor.c ****     }
 330:moudels/motor/MImotor/MImotor.c **** 
 331:moudels/motor/MImotor/MImotor.c ****     CANTransmit(hmotor->motor_can_instance,1);
 332:moudels/motor/MImotor/MImotor.c ****      
 333:moudels/motor/MImotor/MImotor.c **** }
 334:moudels/motor/MImotor/MImotor.c **** 
 335:moudels/motor/MImotor/MImotor.c **** /**
 336:moudels/motor/MImotor/MImotor.c ****   * @brief          Âçï‰∏™ÂèÇÊï∞ËØªÂèñÔºàÈÄö‰ø°Á±ªÂûã17Ôºâ
 337:moudels/motor/MImotor/MImotor.c ****   * @param[in]      hmotor ÁîµÊú∫ÁªìÊûÑ‰Ωì
 338:moudels/motor/MImotor/MImotor.c ****   * @param[in]      index ÂäüËÉΩÁ†Å
 339:moudels/motor/MImotor/MImotor.c ****   * @retval         none
 340:moudels/motor/MImotor/MImotor.c ****   */
 341:moudels/motor/MImotor/MImotor.c **** static void MI_motor_ReadParam(MIMotorInstance* hmotor,uint16_t index)
 342:moudels/motor/MImotor/MImotor.c **** {
 343:moudels/motor/MImotor/MImotor.c ****     static EXT_ID_T EXT ;
 344:moudels/motor/MImotor/MImotor.c ****     EXT.fields.mode=17;
 345:moudels/motor/MImotor/MImotor.c ****     EXT.fields.data=MI_MASTERID;
 346:moudels/motor/MImotor/MImotor.c ****     EXT.fields.motor_id=hmotor->motor_can_instance->tx_id;
 347:moudels/motor/MImotor/MImotor.c ****     EXT.fields.res=0;
 348:moudels/motor/MImotor/MImotor.c ****     hmotor->motor_can_instance->txconf.ExtId= EXT.raw;
 349:moudels/motor/MImotor/MImotor.c **** 
 350:moudels/motor/MImotor/MImotor.c ****     memcpy(&hmotor->motor_can_instance->tx_buff[0],&index,2);
 351:moudels/motor/MImotor/MImotor.c ****     for(uint8_t i=2; i<8; i++)
 352:moudels/motor/MImotor/MImotor.c ****     {
ARM GAS  C:\Users\Sive\AppData\Local\Temp\ccX6Z0WA.s 			page 8


 353:moudels/motor/MImotor/MImotor.c ****         hmotor->motor_can_instance->tx_buff[i]=0;
 354:moudels/motor/MImotor/MImotor.c ****     }
 355:moudels/motor/MImotor/MImotor.c **** 
 356:moudels/motor/MImotor/MImotor.c ****     CANTransmit(hmotor->motor_can_instance,1);
 357:moudels/motor/MImotor/MImotor.c ****     // free(EXT);
 358:moudels/motor/MImotor/MImotor.c **** }
 359:moudels/motor/MImotor/MImotor.c **** 
 360:moudels/motor/MImotor/MImotor.c **** /**
 361:moudels/motor/MImotor/MImotor.c ****   * @brief          Â∞èÁ±≥ÁîµÊú∫ËøêË°åÊ®°ÂºèÂàáÊç¢
 362:moudels/motor/MImotor/MImotor.c ****   * @param[in]      hmotor ÁîµÊú∫ÁªìÊûÑ‰Ωì
 363:moudels/motor/MImotor/MImotor.c ****   * @param[in]      run_mode Êõ¥ÊîπÁöÑÊ®°Âºè
 364:moudels/motor/MImotor/MImotor.c ****   * @note           ÈÄö‰ø°Á±ªÂûã18 ÔºàÊéâÁîµ‰∏¢Â§±Ôºâ
 365:moudels/motor/MImotor/MImotor.c ****   * @retval         none
 366:moudels/motor/MImotor/MImotor.c ****   */
 367:moudels/motor/MImotor/MImotor.c **** static void MI_motor_ModeSwitch(MIMotorInstance* hmotor, uint8_t run_mode,uint16_t index)
 368:moudels/motor/MImotor/MImotor.c **** {
  51              		.loc 1 368 1 is_stmt 1 view -0
  52              		.cfi_startproc
  53              		@ args = 0, pretend = 0, frame = 0
  54              		@ frame_needed = 0, uses_anonymous_args = 0
  55              		.loc 1 368 1 is_stmt 0 view .LVU6
  56 0000 10B5     		push	{r4, lr}
  57              		.cfi_def_cfa_offset 8
  58              		.cfi_offset 4, -8
  59              		.cfi_offset 14, -4
 369:moudels/motor/MImotor/MImotor.c ****      
 370:moudels/motor/MImotor/MImotor.c ****     static EXT_ID_T EXT ;
  60              		.loc 1 370 5 is_stmt 1 view .LVU7
 371:moudels/motor/MImotor/MImotor.c ****     EXT.fields.mode=18;
  61              		.loc 1 371 5 view .LVU8
  62              		.loc 1 371 20 is_stmt 0 view .LVU9
  63 0002 1C4B     		ldr	r3, .L9
  64 0004 DC78     		ldrb	r4, [r3, #3]	@ zero_extendqisi2
  65 0006 4FF0120C 		mov	ip, #18
  66 000a 6CF30404 		bfi	r4, ip, #0, #5
  67 000e DC70     		strb	r4, [r3, #3]
 372:moudels/motor/MImotor/MImotor.c ****     EXT.fields.data=MI_MASTERID;
  68              		.loc 1 372 5 is_stmt 1 view .LVU10
  69              		.loc 1 372 20 is_stmt 0 view .LVU11
  70 0010 194C     		ldr	r4, .L9+4
  71 0012 2478     		ldrb	r4, [r4]	@ zero_extendqisi2
  72 0014 A3F80140 		strh	r4, [r3, #1]	@ unaligned
 373:moudels/motor/MImotor/MImotor.c ****     EXT.fields.motor_id=hmotor->motor_can_instance->tx_id;
  73              		.loc 1 373 5 is_stmt 1 view .LVU12
  74              		.loc 1 373 31 is_stmt 0 view .LVU13
  75 0018 D0F8A841 		ldr	r4, [r0, #424]
  76              		.loc 1 373 51 view .LVU14
  77 001c 94F838C0 		ldrb	ip, [r4, #56]	@ zero_extendqisi2
  78              		.loc 1 373 24 view .LVU15
  79 0020 83F800C0 		strb	ip, [r3]
 374:moudels/motor/MImotor/MImotor.c ****     EXT.fields.res=0;
  80              		.loc 1 374 5 is_stmt 1 view .LVU16
  81              		.loc 1 374 19 is_stmt 0 view .LVU17
  82 0024 93F803C0 		ldrb	ip, [r3, #3]	@ zero_extendqisi2
  83 0028 2CF0E00C 		bic	ip, ip, #224
  84 002c 83F803C0 		strb	ip, [r3, #3]
 375:moudels/motor/MImotor/MImotor.c ****     hmotor->motor_can_instance->txconf.ExtId=EXT.raw;
ARM GAS  C:\Users\Sive\AppData\Local\Temp\ccX6Z0WA.s 			page 9


  85              		.loc 1 375 5 is_stmt 1 view .LVU18
  86              		.loc 1 375 49 is_stmt 0 view .LVU19
  87 0030 1B68     		ldr	r3, [r3]
  88              		.loc 1 375 45 view .LVU20
  89 0032 A360     		str	r3, [r4, #8]	@ unaligned
 376:moudels/motor/MImotor/MImotor.c **** 
 377:moudels/motor/MImotor/MImotor.c ****     
 378:moudels/motor/MImotor/MImotor.c ****     for(uint8_t i=2; i<8; i++)
  90              		.loc 1 378 5 is_stmt 1 view .LVU21
  91              	.LBB2:
  92              		.loc 1 378 9 view .LVU22
  93              	.LVL2:
  94              		.loc 1 378 17 is_stmt 0 view .LVU23
  95 0034 0223     		movs	r3, #2
  96              	.LVL3:
  97              	.L3:
  98              		.loc 1 378 23 is_stmt 1 discriminator 1 view .LVU24
  99 0036 072B     		cmp	r3, #7
 100 0038 0AD8     		bhi	.L8
 379:moudels/motor/MImotor/MImotor.c ****     {
 380:moudels/motor/MImotor/MImotor.c ****         hmotor->motor_can_instance->tx_buff[i]=0;
 101              		.loc 1 380 9 view .LVU25
 102              		.loc 1 380 47 is_stmt 0 view .LVU26
 103 003a D0F8A841 		ldr	r4, [r0, #424]
 104 003e 04EB030C 		add	ip, r4, r3
 105 0042 4FF0000E 		mov	lr, #0
 106 0046 8CF83DE0 		strb	lr, [ip, #61]
 378:moudels/motor/MImotor/MImotor.c ****     {
 107              		.loc 1 378 28 is_stmt 1 discriminator 3 view .LVU27
 108 004a 0133     		adds	r3, r3, #1
 109              	.LVL4:
 378:moudels/motor/MImotor/MImotor.c ****     {
 110              		.loc 1 378 28 is_stmt 0 discriminator 3 view .LVU28
 111 004c DBB2     		uxtb	r3, r3
 112              	.LVL5:
 378:moudels/motor/MImotor/MImotor.c ****     {
 113              		.loc 1 378 28 discriminator 3 view .LVU29
 114 004e F2E7     		b	.L3
 115              	.L8:
 378:moudels/motor/MImotor/MImotor.c ****     {
 116              		.loc 1 378 28 discriminator 3 view .LVU30
 117              	.LBE2:
 381:moudels/motor/MImotor/MImotor.c ****     }
 382:moudels/motor/MImotor/MImotor.c ****     memcpy(&hmotor->motor_can_instance->tx_buff[0],&index,2);
 118              		.loc 1 382 5 is_stmt 1 view .LVU31
 119              		.loc 1 382 19 is_stmt 0 view .LVU32
 120 0050 D0F8A831 		ldr	r3, [r0, #424]
 121              	.LVL6:
 122              		.loc 1 382 5 view .LVU33
 123 0054 A3F83D20 		strh	r2, [r3, #61]	@ unaligned
 383:moudels/motor/MImotor/MImotor.c ****     memcpy(&hmotor->motor_can_instance->tx_buff[4],&run_mode,1);
 124              		.loc 1 383 5 is_stmt 1 view .LVU34
 125              		.loc 1 383 19 is_stmt 0 view .LVU35
 126 0058 D0F8A831 		ldr	r3, [r0, #424]
 127              		.loc 1 383 5 view .LVU36
 128 005c 83F84110 		strb	r1, [r3, #65]
 384:moudels/motor/MImotor/MImotor.c ****     if(!CANTransmit(hmotor->motor_can_instance,1)){
ARM GAS  C:\Users\Sive\AppData\Local\Temp\ccX6Z0WA.s 			page 10


 129              		.loc 1 384 5 is_stmt 1 view .LVU37
 130              		.loc 1 384 9 is_stmt 0 view .LVU38
 131 0060 B7EE000A 		vmov.f32	s0, #1.0e+0
 132 0064 D0F8A801 		ldr	r0, [r0, #424]
 133              	.LVL7:
 134              		.loc 1 384 9 view .LVU39
 135 0068 FFF7FEFF 		bl	CANTransmit
 136              	.LVL8:
 137              		.loc 1 384 7 discriminator 1 view .LVU40
 138 006c 00B9     		cbnz	r0, .L2
 139              	.L6:
 385:moudels/motor/MImotor/MImotor.c ****         while(1){
 140              		.loc 1 385 9 is_stmt 1 view .LVU41
 386:moudels/motor/MImotor/MImotor.c **** 
 387:moudels/motor/MImotor/MImotor.c ****         }
 141              		.loc 1 387 9 view .LVU42
 385:moudels/motor/MImotor/MImotor.c ****         while(1){
 142              		.loc 1 385 14 view .LVU43
 143 006e FEE7     		b	.L6
 144              	.L2:
 388:moudels/motor/MImotor/MImotor.c ****     }
 389:moudels/motor/MImotor/MImotor.c **** }
 145              		.loc 1 389 1 is_stmt 0 view .LVU44
 146 0070 10BD     		pop	{r4, pc}
 147              	.L10:
 148 0072 00BF     		.align	2
 149              	.L9:
 150 0074 00000000 		.word	EXT.2
 151 0078 00000000 		.word	MI_MASTERID
 152              		.cfi_endproc
 153              	.LFE154:
 155              		.section	.text.MI_motor_Enable,"ax",%progbits
 156              		.align	1
 157              		.syntax unified
 158              		.thumb
 159              		.thumb_func
 161              	MI_motor_Enable:
 162              	.LVL9:
 163              	.LFB150:
 271:moudels/motor/MImotor/MImotor.c ****     
 164              		.loc 1 271 1 is_stmt 1 view -0
 165              		.cfi_startproc
 166              		@ args = 0, pretend = 0, frame = 0
 167              		@ frame_needed = 0, uses_anonymous_args = 0
 271:moudels/motor/MImotor/MImotor.c ****     
 168              		.loc 1 271 1 is_stmt 0 view .LVU46
 169 0000 08B5     		push	{r3, lr}
 170              		.cfi_def_cfa_offset 8
 171              		.cfi_offset 3, -8
 172              		.cfi_offset 14, -4
 273:moudels/motor/MImotor/MImotor.c ****     EXT.fields.mode=3;
 173              		.loc 1 273 5 is_stmt 1 view .LVU47
 274:moudels/motor/MImotor/MImotor.c ****     EXT.fields.data=MI_MASTERID;
 174              		.loc 1 274 5 view .LVU48
 274:moudels/motor/MImotor/MImotor.c ****     EXT.fields.data=MI_MASTERID;
 175              		.loc 1 274 20 is_stmt 0 view .LVU49
 176 0002 154B     		ldr	r3, .L17
ARM GAS  C:\Users\Sive\AppData\Local\Temp\ccX6Z0WA.s 			page 11


 177 0004 DA78     		ldrb	r2, [r3, #3]	@ zero_extendqisi2
 178 0006 0321     		movs	r1, #3
 179 0008 61F30402 		bfi	r2, r1, #0, #5
 180 000c DA70     		strb	r2, [r3, #3]
 275:moudels/motor/MImotor/MImotor.c ****     EXT.fields.motor_id=hmotor->motor_can_instance->tx_id;
 181              		.loc 1 275 5 is_stmt 1 view .LVU50
 275:moudels/motor/MImotor/MImotor.c ****     EXT.fields.motor_id=hmotor->motor_can_instance->tx_id;
 182              		.loc 1 275 20 is_stmt 0 view .LVU51
 183 000e 134A     		ldr	r2, .L17+4
 184 0010 1278     		ldrb	r2, [r2]	@ zero_extendqisi2
 185 0012 A3F80120 		strh	r2, [r3, #1]	@ unaligned
 276:moudels/motor/MImotor/MImotor.c ****     EXT.fields.res=0;
 186              		.loc 1 276 5 is_stmt 1 view .LVU52
 276:moudels/motor/MImotor/MImotor.c ****     EXT.fields.res=0;
 187              		.loc 1 276 31 is_stmt 0 view .LVU53
 188 0016 D0F8A811 		ldr	r1, [r0, #424]
 276:moudels/motor/MImotor/MImotor.c ****     EXT.fields.res=0;
 189              		.loc 1 276 51 view .LVU54
 190 001a 91F83820 		ldrb	r2, [r1, #56]	@ zero_extendqisi2
 276:moudels/motor/MImotor/MImotor.c ****     EXT.fields.res=0;
 191              		.loc 1 276 24 view .LVU55
 192 001e 1A70     		strb	r2, [r3]
 277:moudels/motor/MImotor/MImotor.c ****     hmotor->motor_can_instance->txconf.ExtId= EXT.raw;
 193              		.loc 1 277 5 is_stmt 1 view .LVU56
 277:moudels/motor/MImotor/MImotor.c ****     hmotor->motor_can_instance->txconf.ExtId= EXT.raw;
 194              		.loc 1 277 19 is_stmt 0 view .LVU57
 195 0020 DA78     		ldrb	r2, [r3, #3]	@ zero_extendqisi2
 196 0022 22F0E002 		bic	r2, r2, #224
 197 0026 DA70     		strb	r2, [r3, #3]
 278:moudels/motor/MImotor/MImotor.c ****     for(uint8_t i=0; i<8; i++)
 198              		.loc 1 278 5 is_stmt 1 view .LVU58
 278:moudels/motor/MImotor/MImotor.c ****     for(uint8_t i=0; i<8; i++)
 199              		.loc 1 278 50 is_stmt 0 view .LVU59
 200 0028 1B68     		ldr	r3, [r3]
 278:moudels/motor/MImotor/MImotor.c ****     for(uint8_t i=0; i<8; i++)
 201              		.loc 1 278 45 view .LVU60
 202 002a 8B60     		str	r3, [r1, #8]	@ unaligned
 279:moudels/motor/MImotor/MImotor.c ****     {
 203              		.loc 1 279 5 is_stmt 1 view .LVU61
 204              	.LBB3:
 279:moudels/motor/MImotor/MImotor.c ****     {
 205              		.loc 1 279 9 view .LVU62
 206              	.LVL10:
 279:moudels/motor/MImotor/MImotor.c ****     {
 207              		.loc 1 279 17 is_stmt 0 view .LVU63
 208 002c 0023     		movs	r3, #0
 279:moudels/motor/MImotor/MImotor.c ****     {
 209              		.loc 1 279 5 view .LVU64
 210 002e 07E0     		b	.L12
 211              	.LVL11:
 212              	.L13:
 281:moudels/motor/MImotor/MImotor.c ****     }
 213              		.loc 1 281 9 is_stmt 1 view .LVU65
 281:moudels/motor/MImotor/MImotor.c ****     }
 214              		.loc 1 281 15 is_stmt 0 view .LVU66
 215 0030 D0F8A821 		ldr	r2, [r0, #424]
 281:moudels/motor/MImotor/MImotor.c ****     }
ARM GAS  C:\Users\Sive\AppData\Local\Temp\ccX6Z0WA.s 			page 12


 216              		.loc 1 281 47 view .LVU67
 217 0034 1A44     		add	r2, r2, r3
 218 0036 0021     		movs	r1, #0
 219 0038 82F83D10 		strb	r1, [r2, #61]
 279:moudels/motor/MImotor/MImotor.c ****     {
 220              		.loc 1 279 28 is_stmt 1 discriminator 3 view .LVU68
 221 003c 0133     		adds	r3, r3, #1
 222              	.LVL12:
 279:moudels/motor/MImotor/MImotor.c ****     {
 223              		.loc 1 279 28 is_stmt 0 discriminator 3 view .LVU69
 224 003e DBB2     		uxtb	r3, r3
 225              	.LVL13:
 226              	.L12:
 279:moudels/motor/MImotor/MImotor.c ****     {
 227              		.loc 1 279 23 is_stmt 1 discriminator 1 view .LVU70
 228 0040 072B     		cmp	r3, #7
 229 0042 F5D9     		bls	.L13
 230              	.LBE3:
 284:moudels/motor/MImotor/MImotor.c ****         while(1){
 231              		.loc 1 284 5 view .LVU71
 284:moudels/motor/MImotor/MImotor.c ****         while(1){
 232              		.loc 1 284 9 is_stmt 0 view .LVU72
 233 0044 B7EE000A 		vmov.f32	s0, #1.0e+0
 234 0048 D0F8A801 		ldr	r0, [r0, #424]
 235              	.LVL14:
 284:moudels/motor/MImotor/MImotor.c ****         while(1){
 236              		.loc 1 284 9 view .LVU73
 237 004c FFF7FEFF 		bl	CANTransmit
 238              	.LVL15:
 284:moudels/motor/MImotor/MImotor.c ****         while(1){
 239              		.loc 1 284 7 discriminator 1 view .LVU74
 240 0050 00B9     		cbnz	r0, .L11
 241              	.L15:
 285:moudels/motor/MImotor/MImotor.c **** 
 242              		.loc 1 285 9 is_stmt 1 view .LVU75
 287:moudels/motor/MImotor/MImotor.c ****     }
 243              		.loc 1 287 9 view .LVU76
 285:moudels/motor/MImotor/MImotor.c **** 
 244              		.loc 1 285 14 view .LVU77
 245 0052 FEE7     		b	.L15
 246              	.L11:
 290:moudels/motor/MImotor/MImotor.c **** /**
 247              		.loc 1 290 1 is_stmt 0 view .LVU78
 248 0054 08BD     		pop	{r3, pc}
 249              	.L18:
 250 0056 00BF     		.align	2
 251              	.L17:
 252 0058 00000000 		.word	EXT.1
 253 005c 00000000 		.word	MI_MASTERID
 254              		.cfi_endproc
 255              	.LFE150:
 257              		.section	.text.MI_motor_Stop,"ax",%progbits
 258              		.align	1
 259              		.syntax unified
 260              		.thumb
 261              		.thumb_func
 263              	MI_motor_Stop:
ARM GAS  C:\Users\Sive\AppData\Local\Temp\ccX6Z0WA.s 			page 13


 264              	.LVL16:
 265              	.LFB151:
 298:moudels/motor/MImotor/MImotor.c ****     static EXT_ID_T EXT;
 266              		.loc 1 298 1 is_stmt 1 view -0
 267              		.cfi_startproc
 268              		@ args = 0, pretend = 0, frame = 0
 269              		@ frame_needed = 0, uses_anonymous_args = 0
 298:moudels/motor/MImotor/MImotor.c ****     static EXT_ID_T EXT;
 270              		.loc 1 298 1 is_stmt 0 view .LVU80
 271 0000 08B5     		push	{r3, lr}
 272              		.cfi_def_cfa_offset 8
 273              		.cfi_offset 3, -8
 274              		.cfi_offset 14, -4
 299:moudels/motor/MImotor/MImotor.c ****     EXT.fields.mode=4;
 275              		.loc 1 299 5 is_stmt 1 view .LVU81
 300:moudels/motor/MImotor/MImotor.c ****     EXT.fields.data=MI_MASTERID;
 276              		.loc 1 300 5 view .LVU82
 300:moudels/motor/MImotor/MImotor.c ****     EXT.fields.data=MI_MASTERID;
 277              		.loc 1 300 20 is_stmt 0 view .LVU83
 278 0002 144B     		ldr	r3, .L23
 279 0004 DA78     		ldrb	r2, [r3, #3]	@ zero_extendqisi2
 280 0006 0421     		movs	r1, #4
 281 0008 61F30402 		bfi	r2, r1, #0, #5
 282 000c DA70     		strb	r2, [r3, #3]
 301:moudels/motor/MImotor/MImotor.c ****     EXT.fields.motor_id=hmotor->motor_can_instance->tx_id;
 283              		.loc 1 301 5 is_stmt 1 view .LVU84
 301:moudels/motor/MImotor/MImotor.c ****     EXT.fields.motor_id=hmotor->motor_can_instance->tx_id;
 284              		.loc 1 301 20 is_stmt 0 view .LVU85
 285 000e 124A     		ldr	r2, .L23+4
 286 0010 1278     		ldrb	r2, [r2]	@ zero_extendqisi2
 287 0012 A3F80120 		strh	r2, [r3, #1]	@ unaligned
 302:moudels/motor/MImotor/MImotor.c ****     EXT.fields.res=0;
 288              		.loc 1 302 5 is_stmt 1 view .LVU86
 302:moudels/motor/MImotor/MImotor.c ****     EXT.fields.res=0;
 289              		.loc 1 302 31 is_stmt 0 view .LVU87
 290 0016 D0F8A811 		ldr	r1, [r0, #424]
 302:moudels/motor/MImotor/MImotor.c ****     EXT.fields.res=0;
 291              		.loc 1 302 51 view .LVU88
 292 001a 91F83820 		ldrb	r2, [r1, #56]	@ zero_extendqisi2
 302:moudels/motor/MImotor/MImotor.c ****     EXT.fields.res=0;
 293              		.loc 1 302 24 view .LVU89
 294 001e 1A70     		strb	r2, [r3]
 303:moudels/motor/MImotor/MImotor.c ****     hmotor->motor_can_instance->txconf.ExtId= EXT.raw;
 295              		.loc 1 303 5 is_stmt 1 view .LVU90
 303:moudels/motor/MImotor/MImotor.c ****     hmotor->motor_can_instance->txconf.ExtId= EXT.raw;
 296              		.loc 1 303 19 is_stmt 0 view .LVU91
 297 0020 DA78     		ldrb	r2, [r3, #3]	@ zero_extendqisi2
 298 0022 22F0E002 		bic	r2, r2, #224
 299 0026 DA70     		strb	r2, [r3, #3]
 304:moudels/motor/MImotor/MImotor.c ****     for(uint8_t i=0; i<8; i++)
 300              		.loc 1 304 5 is_stmt 1 view .LVU92
 304:moudels/motor/MImotor/MImotor.c ****     for(uint8_t i=0; i<8; i++)
 301              		.loc 1 304 50 is_stmt 0 view .LVU93
 302 0028 1B68     		ldr	r3, [r3]
 304:moudels/motor/MImotor/MImotor.c ****     for(uint8_t i=0; i<8; i++)
 303              		.loc 1 304 45 view .LVU94
 304 002a 8B60     		str	r3, [r1, #8]	@ unaligned
ARM GAS  C:\Users\Sive\AppData\Local\Temp\ccX6Z0WA.s 			page 14


 305:moudels/motor/MImotor/MImotor.c ****     {
 305              		.loc 1 305 5 is_stmt 1 view .LVU95
 306              	.LBB4:
 305:moudels/motor/MImotor/MImotor.c ****     {
 307              		.loc 1 305 9 view .LVU96
 308              	.LVL17:
 305:moudels/motor/MImotor/MImotor.c ****     {
 309              		.loc 1 305 17 is_stmt 0 view .LVU97
 310 002c 0023     		movs	r3, #0
 305:moudels/motor/MImotor/MImotor.c ****     {
 311              		.loc 1 305 5 view .LVU98
 312 002e 07E0     		b	.L20
 313              	.LVL18:
 314              	.L21:
 307:moudels/motor/MImotor/MImotor.c ****     }
 315              		.loc 1 307 9 is_stmt 1 view .LVU99
 307:moudels/motor/MImotor/MImotor.c ****     }
 316              		.loc 1 307 15 is_stmt 0 view .LVU100
 317 0030 D0F8A821 		ldr	r2, [r0, #424]
 307:moudels/motor/MImotor/MImotor.c ****     }
 318              		.loc 1 307 47 view .LVU101
 319 0034 1A44     		add	r2, r2, r3
 320 0036 0021     		movs	r1, #0
 321 0038 82F83D10 		strb	r1, [r2, #61]
 305:moudels/motor/MImotor/MImotor.c ****     {
 322              		.loc 1 305 28 is_stmt 1 discriminator 3 view .LVU102
 323 003c 0133     		adds	r3, r3, #1
 324              	.LVL19:
 305:moudels/motor/MImotor/MImotor.c ****     {
 325              		.loc 1 305 28 is_stmt 0 discriminator 3 view .LVU103
 326 003e DBB2     		uxtb	r3, r3
 327              	.LVL20:
 328              	.L20:
 305:moudels/motor/MImotor/MImotor.c ****     {
 329              		.loc 1 305 23 is_stmt 1 discriminator 1 view .LVU104
 330 0040 072B     		cmp	r3, #7
 331 0042 F5D9     		bls	.L21
 332              	.LBE4:
 310:moudels/motor/MImotor/MImotor.c **** }
 333              		.loc 1 310 5 view .LVU105
 334 0044 B7EE000A 		vmov.f32	s0, #1.0e+0
 335 0048 D0F8A801 		ldr	r0, [r0, #424]
 336              	.LVL21:
 310:moudels/motor/MImotor/MImotor.c **** }
 337              		.loc 1 310 5 is_stmt 0 view .LVU106
 338 004c FFF7FEFF 		bl	CANTransmit
 339              	.LVL22:
 311:moudels/motor/MImotor/MImotor.c **** /**
 340              		.loc 1 311 1 view .LVU107
 341 0050 08BD     		pop	{r3, pc}
 342              	.L24:
 343 0052 00BF     		.align	2
 344              	.L23:
 345 0054 00000000 		.word	EXT.0
 346 0058 00000000 		.word	MI_MASTERID
 347              		.cfi_endproc
 348              	.LFE151:
ARM GAS  C:\Users\Sive\AppData\Local\Temp\ccX6Z0WA.s 			page 15


 350              		.global	__aeabi_f2d
 351              		.global	__aeabi_dsub
 352              		.global	__aeabi_ddiv
 353              		.global	__aeabi_dmul
 354              		.global	__aeabi_d2f
 355              		.section	.text.MI_motor_RxDecode,"ax",%progbits
 356              		.align	1
 357              		.global	MI_motor_RxDecode
 358              		.syntax unified
 359              		.thumb
 360              		.thumb_func
 362              	MI_motor_RxDecode:
 363              	.LVL23:
 364              	.LFB137:
  18:moudels/motor/MImotor/MImotor.c ****     uint16_t decode_temp_mi;//Â∞èÁ±≥ÁîµÊú∫ÂèçÈ¶àÊï∞ÊçÆËß£Á†ÅÁºìÂÜ≤
 365              		.loc 1 18 1 is_stmt 1 view -0
 366              		.cfi_startproc
 367              		@ args = 0, pretend = 0, frame = 0
 368              		@ frame_needed = 0, uses_anonymous_args = 0
  18:moudels/motor/MImotor/MImotor.c ****     uint16_t decode_temp_mi;//Â∞èÁ±≥ÁîµÊú∫ÂèçÈ¶àÊï∞ÊçÆËß£Á†ÅÁºìÂÜ≤
 369              		.loc 1 18 1 is_stmt 0 view .LVU109
 370 0000 38B5     		push	{r3, r4, r5, lr}
 371              		.cfi_def_cfa_offset 16
 372              		.cfi_offset 3, -16
 373              		.cfi_offset 4, -12
 374              		.cfi_offset 5, -8
 375              		.cfi_offset 14, -4
 376 0002 0546     		mov	r5, r0
 377 0004 0C46     		mov	r4, r1
  19:moudels/motor/MImotor/MImotor.c ****     decode_temp_mi = (rx_data[0] << 8 | rx_data[1]);
 378              		.loc 1 19 5 is_stmt 1 view .LVU110
  20:moudels/motor/MImotor/MImotor.c ****     RxCAN_info->angle = ((float)decode_temp_mi-32767.5)/32767.5*4*3.1415926f;//rad  
 379              		.loc 1 20 5 view .LVU111
  20:moudels/motor/MImotor/MImotor.c ****     RxCAN_info->angle = ((float)decode_temp_mi-32767.5)/32767.5*4*3.1415926f;//rad  
 380              		.loc 1 20 30 is_stmt 0 view .LVU112
 381 0006 0B78     		ldrb	r3, [r1]	@ zero_extendqisi2
  20:moudels/motor/MImotor/MImotor.c ****     RxCAN_info->angle = ((float)decode_temp_mi-32767.5)/32767.5*4*3.1415926f;//rad  
 382              		.loc 1 20 48 view .LVU113
 383 0008 4878     		ldrb	r0, [r1, #1]	@ zero_extendqisi2
 384              	.LVL24:
  20:moudels/motor/MImotor/MImotor.c ****     RxCAN_info->angle = ((float)decode_temp_mi-32767.5)/32767.5*4*3.1415926f;//rad  
 385              		.loc 1 20 20 view .LVU114
 386 000a 40EA0320 		orr	r0, r0, r3, lsl #8
 387              	.LVL25:
  21:moudels/motor/MImotor/MImotor.c **** 
 388              		.loc 1 21 5 is_stmt 1 view .LVU115
  21:moudels/motor/MImotor/MImotor.c **** 
 389              		.loc 1 21 26 is_stmt 0 view .LVU116
 390 000e 07EE900A 		vmov	s15, r0	@ int
 391 0012 F8EE677A 		vcvt.f32.u32	s15, s15
 392 0016 17EE900A 		vmov	r0, s15
 393              	.LVL26:
  21:moudels/motor/MImotor/MImotor.c **** 
 394              		.loc 1 21 26 view .LVU117
 395 001a FFF7FEFF 		bl	__aeabi_f2d
 396              	.LVL27:
  21:moudels/motor/MImotor/MImotor.c **** 
ARM GAS  C:\Users\Sive\AppData\Local\Temp\ccX6Z0WA.s 			page 16


 397              		.loc 1 21 47 view .LVU118
 398 001e 0022     		movs	r2, #0
 399 0020 2F4B     		ldr	r3, .L27+8
 400 0022 FFF7FEFF 		bl	__aeabi_dsub
 401              	.LVL28:
  21:moudels/motor/MImotor/MImotor.c **** 
 402              		.loc 1 21 56 view .LVU119
 403 0026 0022     		movs	r2, #0
 404 0028 2D4B     		ldr	r3, .L27+8
 405 002a FFF7FEFF 		bl	__aeabi_ddiv
 406              	.LVL29:
  21:moudels/motor/MImotor/MImotor.c **** 
 407              		.loc 1 21 64 view .LVU120
 408 002e 0022     		movs	r2, #0
 409 0030 2C4B     		ldr	r3, .L27+12
 410 0032 FFF7FEFF 		bl	__aeabi_dmul
 411              	.LVL30:
  21:moudels/motor/MImotor/MImotor.c **** 
 412              		.loc 1 21 66 view .LVU121
 413 0036 28A3     		adr	r3, .L27
 414 0038 D3E90023 		ldrd	r2, [r3]
 415 003c FFF7FEFF 		bl	__aeabi_dmul
 416              	.LVL31:
 417 0040 FFF7FEFF 		bl	__aeabi_d2f
 418              	.LVL32:
  21:moudels/motor/MImotor/MImotor.c **** 
 419              		.loc 1 21 23 view .LVU122
 420 0044 6860     		str	r0, [r5, #4]	@ unaligned
  23:moudels/motor/MImotor/MImotor.c ****     RxCAN_info->speed = ((float)decode_temp_mi-32767.5)/32767.5*30.0f;//Âçï‰Ωçrad/s
 421              		.loc 1 23 5 is_stmt 1 view .LVU123
  23:moudels/motor/MImotor/MImotor.c ****     RxCAN_info->speed = ((float)decode_temp_mi-32767.5)/32767.5*30.0f;//Âçï‰Ωçrad/s
 422              		.loc 1 23 30 is_stmt 0 view .LVU124
 423 0046 A378     		ldrb	r3, [r4, #2]	@ zero_extendqisi2
  23:moudels/motor/MImotor/MImotor.c ****     RxCAN_info->speed = ((float)decode_temp_mi-32767.5)/32767.5*30.0f;//Âçï‰Ωçrad/s
 424              		.loc 1 23 48 view .LVU125
 425 0048 E078     		ldrb	r0, [r4, #3]	@ zero_extendqisi2
  23:moudels/motor/MImotor/MImotor.c ****     RxCAN_info->speed = ((float)decode_temp_mi-32767.5)/32767.5*30.0f;//Âçï‰Ωçrad/s
 426              		.loc 1 23 20 view .LVU126
 427 004a 40EA0320 		orr	r0, r0, r3, lsl #8
 428              	.LVL33:
  24:moudels/motor/MImotor/MImotor.c **** 
 429              		.loc 1 24 5 is_stmt 1 view .LVU127
  24:moudels/motor/MImotor/MImotor.c **** 
 430              		.loc 1 24 26 is_stmt 0 view .LVU128
 431 004e 07EE900A 		vmov	s15, r0	@ int
 432 0052 F8EE677A 		vcvt.f32.u32	s15, s15
 433 0056 17EE900A 		vmov	r0, s15
 434              	.LVL34:
  24:moudels/motor/MImotor/MImotor.c **** 
 435              		.loc 1 24 26 view .LVU129
 436 005a FFF7FEFF 		bl	__aeabi_f2d
 437              	.LVL35:
  24:moudels/motor/MImotor/MImotor.c **** 
 438              		.loc 1 24 47 view .LVU130
 439 005e 0022     		movs	r2, #0
 440 0060 1F4B     		ldr	r3, .L27+8
 441 0062 FFF7FEFF 		bl	__aeabi_dsub
ARM GAS  C:\Users\Sive\AppData\Local\Temp\ccX6Z0WA.s 			page 17


 442              	.LVL36:
  24:moudels/motor/MImotor/MImotor.c **** 
 443              		.loc 1 24 56 view .LVU131
 444 0066 0022     		movs	r2, #0
 445 0068 1D4B     		ldr	r3, .L27+8
 446 006a FFF7FEFF 		bl	__aeabi_ddiv
 447              	.LVL37:
  24:moudels/motor/MImotor/MImotor.c **** 
 448              		.loc 1 24 64 view .LVU132
 449 006e 0022     		movs	r2, #0
 450 0070 1D4B     		ldr	r3, .L27+16
 451 0072 FFF7FEFF 		bl	__aeabi_dmul
 452              	.LVL38:
 453 0076 FFF7FEFF 		bl	__aeabi_d2f
 454              	.LVL39:
  24:moudels/motor/MImotor/MImotor.c **** 
 455              		.loc 1 24 23 view .LVU133
 456 007a A860     		str	r0, [r5, #8]	@ unaligned
  26:moudels/motor/MImotor/MImotor.c ****     RxCAN_info->torque = ((float)decode_temp_mi-32767.5)/32767.5*12.0f;//Nm
 457              		.loc 1 26 5 is_stmt 1 view .LVU134
  26:moudels/motor/MImotor/MImotor.c ****     RxCAN_info->torque = ((float)decode_temp_mi-32767.5)/32767.5*12.0f;//Nm
 458              		.loc 1 26 30 is_stmt 0 view .LVU135
 459 007c 2379     		ldrb	r3, [r4, #4]	@ zero_extendqisi2
  26:moudels/motor/MImotor/MImotor.c ****     RxCAN_info->torque = ((float)decode_temp_mi-32767.5)/32767.5*12.0f;//Nm
 460              		.loc 1 26 48 view .LVU136
 461 007e 6079     		ldrb	r0, [r4, #5]	@ zero_extendqisi2
  26:moudels/motor/MImotor/MImotor.c ****     RxCAN_info->torque = ((float)decode_temp_mi-32767.5)/32767.5*12.0f;//Nm
 462              		.loc 1 26 20 view .LVU137
 463 0080 40EA0320 		orr	r0, r0, r3, lsl #8
 464              	.LVL40:
  27:moudels/motor/MImotor/MImotor.c **** 
 465              		.loc 1 27 5 is_stmt 1 view .LVU138
  27:moudels/motor/MImotor/MImotor.c **** 
 466              		.loc 1 27 27 is_stmt 0 view .LVU139
 467 0084 07EE900A 		vmov	s15, r0	@ int
 468 0088 F8EE677A 		vcvt.f32.u32	s15, s15
 469 008c 17EE900A 		vmov	r0, s15
 470              	.LVL41:
  27:moudels/motor/MImotor/MImotor.c **** 
 471              		.loc 1 27 27 view .LVU140
 472 0090 FFF7FEFF 		bl	__aeabi_f2d
 473              	.LVL42:
  27:moudels/motor/MImotor/MImotor.c **** 
 474              		.loc 1 27 48 view .LVU141
 475 0094 0022     		movs	r2, #0
 476 0096 124B     		ldr	r3, .L27+8
 477 0098 FFF7FEFF 		bl	__aeabi_dsub
 478              	.LVL43:
  27:moudels/motor/MImotor/MImotor.c **** 
 479              		.loc 1 27 57 view .LVU142
 480 009c 0022     		movs	r2, #0
 481 009e 104B     		ldr	r3, .L27+8
 482 00a0 FFF7FEFF 		bl	__aeabi_ddiv
 483              	.LVL44:
  27:moudels/motor/MImotor/MImotor.c **** 
 484              		.loc 1 27 65 view .LVU143
 485 00a4 0022     		movs	r2, #0
ARM GAS  C:\Users\Sive\AppData\Local\Temp\ccX6Z0WA.s 			page 18


 486 00a6 114B     		ldr	r3, .L27+20
 487 00a8 FFF7FEFF 		bl	__aeabi_dmul
 488              	.LVL45:
 489 00ac FFF7FEFF 		bl	__aeabi_d2f
 490              	.LVL46:
  27:moudels/motor/MImotor/MImotor.c **** 
 491              		.loc 1 27 24 view .LVU144
 492 00b0 E860     		str	r0, [r5, #12]	@ unaligned
  29:moudels/motor/MImotor/MImotor.c ****     RxCAN_info->temperature = (float)decode_temp_mi/10.0f;//ÊëÑÊ∞èÂ∫¶
 493              		.loc 1 29 5 is_stmt 1 view .LVU145
  29:moudels/motor/MImotor/MImotor.c ****     RxCAN_info->temperature = (float)decode_temp_mi/10.0f;//ÊëÑÊ∞èÂ∫¶
 494              		.loc 1 29 30 is_stmt 0 view .LVU146
 495 00b2 A279     		ldrb	r2, [r4, #6]	@ zero_extendqisi2
  29:moudels/motor/MImotor/MImotor.c ****     RxCAN_info->temperature = (float)decode_temp_mi/10.0f;//ÊëÑÊ∞èÂ∫¶
 496              		.loc 1 29 48 view .LVU147
 497 00b4 E379     		ldrb	r3, [r4, #7]	@ zero_extendqisi2
  29:moudels/motor/MImotor/MImotor.c ****     RxCAN_info->temperature = (float)decode_temp_mi/10.0f;//ÊëÑÊ∞èÂ∫¶
 498              		.loc 1 29 20 view .LVU148
 499 00b6 43EA0223 		orr	r3, r3, r2, lsl #8
 500              	.LVL47:
  30:moudels/motor/MImotor/MImotor.c ****  }
 501              		.loc 1 30 5 is_stmt 1 view .LVU149
  30:moudels/motor/MImotor/MImotor.c ****  }
 502              		.loc 1 30 31 is_stmt 0 view .LVU150
 503 00ba 07EE903A 		vmov	s15, r3	@ int
 504 00be F8EE677A 		vcvt.f32.u32	s15, s15
  30:moudels/motor/MImotor/MImotor.c ****  }
 505              		.loc 1 30 29 view .LVU151
 506 00c2 B2EE047A 		vmov.f32	s14, #1.0e+1
 507 00c6 C7EE877A 		vdiv.f32	s15, s15, s14
 508 00ca 17EE903A 		vmov	r3, s15
 509              	.LVL48:
  30:moudels/motor/MImotor/MImotor.c ****  }
 510              		.loc 1 30 29 view .LVU152
 511 00ce 2B61     		str	r3, [r5, #16]	@ unaligned
 512              	.LVL49:
  31:moudels/motor/MImotor/MImotor.c **** static void DecodeMIMotor(CANInstance *_instance)
 513              		.loc 1 31 2 view .LVU153
 514 00d0 38BD     		pop	{r3, r4, r5, pc}
 515              	.LVL50:
 516              	.L28:
  31:moudels/motor/MImotor/MImotor.c **** static void DecodeMIMotor(CANInstance *_instance)
 517              		.loc 1 31 2 view .LVU154
 518 00d2 00BFAFF3 		.align	3
 518      0080
 519              	.L27:
 520 00d8 00000040 		.word	1073741824
 521 00dc FB210940 		.word	1074340347
 522 00e0 E0FFDF40 		.word	1088421856
 523 00e4 00001040 		.word	1074790400
 524 00e8 00003E40 		.word	1077805056
 525 00ec 00002840 		.word	1076363264
 526              		.cfi_endproc
 527              	.LFE137:
 529              		.section	.text.DecodeMIMotor,"ax",%progbits
 530              		.align	1
 531              		.syntax unified
ARM GAS  C:\Users\Sive\AppData\Local\Temp\ccX6Z0WA.s 			page 19


 532              		.thumb
 533              		.thumb_func
 535              	DecodeMIMotor:
 536              	.LVL51:
 537              	.LFB138:
  33:moudels/motor/MImotor/MImotor.c ****     uint8_t *rxbuff=_instance->rx_buff;
 538              		.loc 1 33 1 is_stmt 1 view -0
 539              		.cfi_startproc
 540              		@ args = 0, pretend = 0, frame = 24
 541              		@ frame_needed = 0, uses_anonymous_args = 0
  33:moudels/motor/MImotor/MImotor.c ****     uint8_t *rxbuff=_instance->rx_buff;
 542              		.loc 1 33 1 is_stmt 0 view .LVU156
 543 0000 70B5     		push	{r4, r5, r6, lr}
 544              		.cfi_def_cfa_offset 16
 545              		.cfi_offset 4, -16
 546              		.cfi_offset 5, -12
 547              		.cfi_offset 6, -8
 548              		.cfi_offset 14, -4
 549 0002 86B0     		sub	sp, sp, #24
 550              		.cfi_def_cfa_offset 40
 551 0004 0446     		mov	r4, r0
  34:moudels/motor/MImotor/MImotor.c ****     MIMotorInstance *motor = (MIMotorInstance *)_instance->id;
 552              		.loc 1 34 5 is_stmt 1 view .LVU157
  34:moudels/motor/MImotor/MImotor.c ****     MIMotorInstance *motor = (MIMotorInstance *)_instance->id;
 553              		.loc 1 34 14 is_stmt 0 view .LVU158
 554 0006 00F14506 		add	r6, r0, #69
 555              	.LVL52:
  35:moudels/motor/MImotor/MImotor.c ****     MI_Motor_Measure_s *measure = &motor->measure; // measureË¶ÅÂ§öÊ¨°‰ΩøÁî®,‰øùÂ≠òÊåáÈíàÂáèÂ∞èËÆøÂ
 556              		.loc 1 35 5 is_stmt 1 view .LVU159
  35:moudels/motor/MImotor/MImotor.c ****     MI_Motor_Measure_s *measure = &motor->measure; // measureË¶ÅÂ§öÊ¨°‰ΩøÁî®,‰øùÂ≠òÊåáÈíàÂáèÂ∞èËÆøÂ
 557              		.loc 1 35 22 is_stmt 0 view .LVU160
 558 000a D0F85350 		ldr	r5, [r0, #83]	@ unaligned
 559              	.LVL53:
  36:moudels/motor/MImotor/MImotor.c ****     RxCAN_info_s  RxCAN_info;//ÂÇ®Â≠òÊé•ÂèóÁöÑÊ†áËØÜÁ¨¶
 560              		.loc 1 36 5 is_stmt 1 view .LVU161
  37:moudels/motor/MImotor/MImotor.c ****     DaemonReload(motor->daemon);
 561              		.loc 1 37 5 view .LVU162
  38:moudels/motor/MImotor/MImotor.c ****     motor->dt = DWT_GetDeltaT(&motor->feed_cnt);
 562              		.loc 1 38 5 view .LVU163
 563 000e D5F8B001 		ldr	r0, [r5, #432]
 564              	.LVL54:
  38:moudels/motor/MImotor/MImotor.c ****     motor->dt = DWT_GetDeltaT(&motor->feed_cnt);
 565              		.loc 1 38 5 is_stmt 0 view .LVU164
 566 0012 FFF7FEFF 		bl	DaemonReload
 567              	.LVL55:
  39:moudels/motor/MImotor/MImotor.c ****     memcpy(&RxCAN_info,&_instance->rxconf.ExtId,4);//Â∞ÜÊâ©Â±ïÊ†áËØÜÁ¨¶ÁöÑÂÜÖÂÆπËß£Á†ÅÂà∞ÁºìÂ≠òÂå∫Ô
 568              		.loc 1 39 5 is_stmt 1 view .LVU165
  39:moudels/motor/MImotor/MImotor.c ****     memcpy(&RxCAN_info,&_instance->rxconf.ExtId,4);//Â∞ÜÊâ©Â±ïÊ†áËØÜÁ¨¶ÁöÑÂÜÖÂÆπËß£Á†ÅÂà∞ÁºìÂ≠òÂå∫Ô
 569              		.loc 1 39 17 is_stmt 0 view .LVU166
 570 0016 05F5DA70 		add	r0, r5, #436
 571 001a FFF7FEFF 		bl	DWT_GetDeltaT
 572              	.LVL56:
  39:moudels/motor/MImotor/MImotor.c ****     memcpy(&RxCAN_info,&_instance->rxconf.ExtId,4);//Â∞ÜÊâ©Â±ïÊ†áËØÜÁ¨¶ÁöÑÂÜÖÂÆπËß£Á†ÅÂà∞ÁºìÂ≠òÂå∫Ô
 573              		.loc 1 39 15 discriminator 1 view .LVU167
 574 001e 85ED6E0A 		vstr.32	s0, [r5, #440]
  40:moudels/motor/MImotor/MImotor.c ****     if(RxCAN_info.communication_type == 0){//ÈÄö‰ø°Á±ªÂûã0ÁöÑÂèçÈ¶àÂ∏ßËß£Á†Å
 575              		.loc 1 40 5 is_stmt 1 view .LVU168
ARM GAS  C:\Users\Sive\AppData\Local\Temp\ccX6Z0WA.s 			page 20


 576 0022 236A     		ldr	r3, [r4, #32]	@ unaligned
 577 0024 0593     		str	r3, [sp, #20]
  41:moudels/motor/MImotor/MImotor.c ****         RxCAN_info_type_0_s RxCAN_info_type_0;
 578              		.loc 1 41 5 view .LVU169
  41:moudels/motor/MImotor/MImotor.c ****         RxCAN_info_type_0_s RxCAN_info_type_0;
 579              		.loc 1 41 38 is_stmt 0 view .LVU170
 580 0026 C3F30462 		ubfx	r2, r3, #24, #5
  41:moudels/motor/MImotor/MImotor.c ****         RxCAN_info_type_0_s RxCAN_info_type_0;
 581              		.loc 1 41 7 view .LVU171
 582 002a 13F0F85F 		tst	r3, #520093696
 583 002e 0AD1     		bne	.L30
 584              	.LBB5:
  42:moudels/motor/MImotor/MImotor.c ****         memcpy(&RxCAN_info_type_0,&_instance->rxconf.ExtId,4);//Â∞ÜÊâ©Â±ïÊ†áËØÜÁ¨¶ÁöÑÂÜÖÂÆπËß£Á†ÅÊà
 585              		.loc 1 42 9 is_stmt 1 view .LVU172
  43:moudels/motor/MImotor/MImotor.c ****         // memcpy(&RxCAN_info_type_0.MCU_id,&_instance->rxconf.ExtId,8);//Ëé∑ÂèñMCUÊ†áËØÜÁ¨¶
 586              		.loc 1 43 9 view .LVU173
 587 0030 0093     		str	r3, [sp]
  45:moudels/motor/MImotor/MImotor.c ****     }else if(RxCAN_info.communication_type == 2){//ÈÄö‰ø°Á±ªÂûã2ÁöÑÂèçÈ¶àÂ∏ßËß£Á†Å
 588              		.loc 1 45 9 view .LVU174
  45:moudels/motor/MImotor/MImotor.c ****     }else if(RxCAN_info.communication_type == 2){//ÈÄö‰ø°Á±ªÂûã2ÁöÑÂèçÈ¶àÂ∏ßËß£Á†Å
 589              		.loc 1 45 26 is_stmt 0 view .LVU175
 590 0032 C3F30F23 		ubfx	r3, r3, #8, #16
 591 0036 07EE903A 		vmov	s15, r3	@ int
 592 003a F8EE677A 		vcvt.f32.u32	s15, s15
 593 003e C5ED047A 		vstr.32	s15, [r5, #16]
 594              	.L29:
 595              	.LBE5:
  65:moudels/motor/MImotor/MImotor.c **** 
 596              		.loc 1 65 1 view .LVU176
 597 0042 06B0     		add	sp, sp, #24
 598              		.cfi_remember_state
 599              		.cfi_def_cfa_offset 16
 600              		@ sp needed
 601 0044 70BD     		pop	{r4, r5, r6, pc}
 602              	.LVL57:
 603              	.L30:
 604              		.cfi_restore_state
  46:moudels/motor/MImotor/MImotor.c ****         RxCAN_info_type_2_s RxCAN_info_type_2;
 605              		.loc 1 46 11 is_stmt 1 view .LVU177
  46:moudels/motor/MImotor/MImotor.c ****         RxCAN_info_type_2_s RxCAN_info_type_2;
 606              		.loc 1 46 13 is_stmt 0 view .LVU178
 607 0046 022A     		cmp	r2, #2
 608 0048 19D0     		beq	.L34
  54:moudels/motor/MImotor/MImotor.c ****         RxCAN_info_type_17_s RxCAN_info_type_17;
 609              		.loc 1 54 11 is_stmt 1 view .LVU179
  54:moudels/motor/MImotor/MImotor.c ****         RxCAN_info_type_17_s RxCAN_info_type_17;
 610              		.loc 1 54 13 is_stmt 0 view .LVU180
 611 004a 112A     		cmp	r2, #17
 612 004c F9D1     		bne	.L29
 613              	.LBB6:
  55:moudels/motor/MImotor/MImotor.c ****         memcpy(&RxCAN_info_type_17,&_instance->rxconf.ExtId,4);//Â∞ÜÊâ©Â±ïÊ†áËØÜÁ¨¶ÁöÑÂÜÖÂÆπËß£Á†ÅÊ
 614              		.loc 1 55 9 is_stmt 1 view .LVU181
  56:moudels/motor/MImotor/MImotor.c ****         memcpy(&RxCAN_info_type_17.index,&_instance->rx_buff[0],2);//Ëé∑ÂèñÊü•ÊâæÁöÑÂèÇÊï∞Á¥¢ÂºïÁ†Å
 615              		.loc 1 56 9 view .LVU182
 616 004e 0093     		str	r3, [sp]
  57:moudels/motor/MImotor/MImotor.c ****         memcpy(&RxCAN_info_type_17.param,&_instance->rx_buff[0],4);//Ëé∑ÂèñÊü•ÊâæÁöÑÂèÇÊï∞‰ø°ÊÅØ
 617              		.loc 1 57 9 view .LVU183
ARM GAS  C:\Users\Sive\AppData\Local\Temp\ccX6Z0WA.s 			page 21


 618 0050 B4F84510 		ldrh	r1, [r4, #69]	@ unaligned
 619 0054 ADF80410 		strh	r1, [sp, #4]	@ movhi
  58:moudels/motor/MImotor/MImotor.c ****         measure->motor_id=RxCAN_info_type_17.motor_id;
 620              		.loc 1 58 9 view .LVU184
 621 0058 D4F84520 		ldr	r2, [r4, #69]	@ unaligned
 622 005c CDF80620 		str	r2, [sp, #6]	@ unaligned
  59:moudels/motor/MImotor/MImotor.c ****         measure->index=RxCAN_info_type_17.index;
 623              		.loc 1 59 9 view .LVU185
  59:moudels/motor/MImotor/MImotor.c ****         measure->index=RxCAN_info_type_17.index;
 624              		.loc 1 59 26 is_stmt 0 view .LVU186
 625 0060 DBB2     		uxtb	r3, r3
 626 0062 07EE903A 		vmov	s15, r3	@ int
 627 0066 F8EE677A 		vcvt.f32.u32	s15, s15
 628 006a C5ED047A 		vstr.32	s15, [r5, #16]
  60:moudels/motor/MImotor/MImotor.c ****         measure->param=RxCAN_info_type_17.param;
 629              		.loc 1 60 9 is_stmt 1 view .LVU187
  60:moudels/motor/MImotor/MImotor.c ****         measure->param=RxCAN_info_type_17.param;
 630              		.loc 1 60 23 is_stmt 0 view .LVU188
 631 006e 07EE901A 		vmov	s15, r1	@ int
 632 0072 F8EE677A 		vcvt.f32.u32	s15, s15
 633 0076 C5ED057A 		vstr.32	s15, [r5, #20]
  61:moudels/motor/MImotor/MImotor.c ****     }
 634              		.loc 1 61 9 is_stmt 1 view .LVU189
  61:moudels/motor/MImotor/MImotor.c ****     }
 635              		.loc 1 61 23 is_stmt 0 view .LVU190
 636 007a AA61     		str	r2, [r5, #24]	@ float
 637              	.LBE6:
  65:moudels/motor/MImotor/MImotor.c **** 
 638              		.loc 1 65 1 view .LVU191
 639 007c E1E7     		b	.L29
 640              	.L34:
 641              	.LBB7:
  47:moudels/motor/MImotor/MImotor.c ****         memcpy(&RxCAN_info_type_2,&_instance->rxconf.ExtId,4);//Â∞ÜÊâ©Â±ïÊ†áËØÜÁ¨¶ÁöÑÂÜÖÂÆπËß£Á†ÅÊà
 642              		.loc 1 47 9 is_stmt 1 view .LVU192
  48:moudels/motor/MImotor/MImotor.c ****         MI_motor_RxDecode(&RxCAN_info_type_2,rxbuff);//ÈÄö‰ø°Á±ªÂûã2ÁöÑÊï∞ÊçÆËß£Á†Å
 643              		.loc 1 48 9 view .LVU193
 644 007e 0093     		str	r3, [sp]
  49:moudels/motor/MImotor/MImotor.c ****         measure->angle_single_round=RxCAN_info_type_2.angle;
 645              		.loc 1 49 9 view .LVU194
 646 0080 3146     		mov	r1, r6
 647 0082 6846     		mov	r0, sp
 648 0084 FFF7FEFF 		bl	MI_motor_RxDecode
 649              	.LVL58:
  50:moudels/motor/MImotor/MImotor.c ****         measure->real_current=RxCAN_info_type_2.torque;
 650              		.loc 1 50 9 view .LVU195
  50:moudels/motor/MImotor/MImotor.c ****         measure->real_current=RxCAN_info_type_2.torque;
 651              		.loc 1 50 54 is_stmt 0 view .LVU196
 652 0088 019B     		ldr	r3, [sp, #4]	@ float
  50:moudels/motor/MImotor/MImotor.c ****         measure->real_current=RxCAN_info_type_2.torque;
 653              		.loc 1 50 36 view .LVU197
 654 008a 2B60     		str	r3, [r5]	@ float
  51:moudels/motor/MImotor/MImotor.c ****         measure->speed_aps=RxCAN_info_type_2.speed;
 655              		.loc 1 51 9 is_stmt 1 view .LVU198
  51:moudels/motor/MImotor/MImotor.c ****         measure->speed_aps=RxCAN_info_type_2.speed;
 656              		.loc 1 51 48 is_stmt 0 view .LVU199
 657 008c 039B     		ldr	r3, [sp, #12]	@ float
  51:moudels/motor/MImotor/MImotor.c ****         measure->speed_aps=RxCAN_info_type_2.speed;
ARM GAS  C:\Users\Sive\AppData\Local\Temp\ccX6Z0WA.s 			page 22


 658              		.loc 1 51 30 view .LVU200
 659 008e AB60     		str	r3, [r5, #8]	@ float
  52:moudels/motor/MImotor/MImotor.c ****         measure->temperature=RxCAN_info_type_2.temperature;
 660              		.loc 1 52 9 is_stmt 1 view .LVU201
  52:moudels/motor/MImotor/MImotor.c ****         measure->temperature=RxCAN_info_type_2.temperature;
 661              		.loc 1 52 45 is_stmt 0 view .LVU202
 662 0090 029B     		ldr	r3, [sp, #8]	@ float
  52:moudels/motor/MImotor/MImotor.c ****         measure->temperature=RxCAN_info_type_2.temperature;
 663              		.loc 1 52 27 view .LVU203
 664 0092 6B60     		str	r3, [r5, #4]	@ float
  53:moudels/motor/MImotor/MImotor.c ****     }else if(RxCAN_info.communication_type == 17){//ÈÄö‰ø°Á±ªÂûã17ÁöÑÂèçÈ¶àÂ∏ßËß£Á†Å
 665              		.loc 1 53 9 is_stmt 1 view .LVU204
  53:moudels/motor/MImotor/MImotor.c ****     }else if(RxCAN_info.communication_type == 17){//ÈÄö‰ø°Á±ªÂûã17ÁöÑÂèçÈ¶àÂ∏ßËß£Á†Å
 666              		.loc 1 53 47 is_stmt 0 view .LVU205
 667 0094 049B     		ldr	r3, [sp, #16]	@ float
  53:moudels/motor/MImotor/MImotor.c ****     }else if(RxCAN_info.communication_type == 17){//ÈÄö‰ø°Á±ªÂûã17ÁöÑÂèçÈ¶àÂ∏ßËß£Á†Å
 668              		.loc 1 53 29 view .LVU206
 669 0096 EB60     		str	r3, [r5, #12]	@ float
 670              	.LBE7:
 671 0098 D3E7     		b	.L29
 672              		.cfi_endproc
 673              	.LFE138:
 675              		.section	.text.MIMotorStop,"ax",%progbits
 676              		.align	1
 677              		.global	MIMotorStop
 678              		.syntax unified
 679              		.thumb
 680              		.thumb_func
 682              	MIMotorStop:
 683              	.LVL59:
 684              	.LFB142:
 145:moudels/motor/MImotor/MImotor.c ****     motor->stop_flag = MOTOR_STOP;
 685              		.loc 1 145 1 is_stmt 1 view -0
 686              		.cfi_startproc
 687              		@ args = 0, pretend = 0, frame = 0
 688              		@ frame_needed = 0, uses_anonymous_args = 0
 689              		@ link register save eliminated.
 146:moudels/motor/MImotor/MImotor.c **** }
 690              		.loc 1 146 5 view .LVU208
 146:moudels/motor/MImotor/MImotor.c **** }
 691              		.loc 1 146 22 is_stmt 0 view .LVU209
 692 0000 0023     		movs	r3, #0
 693 0002 80F8AD31 		strb	r3, [r0, #429]
 147:moudels/motor/MImotor/MImotor.c **** 
 694              		.loc 1 147 1 view .LVU210
 695 0006 7047     		bx	lr
 696              		.cfi_endproc
 697              	.LFE142:
 699              		.section	.text.MIMotorEnable,"ax",%progbits
 700              		.align	1
 701              		.global	MIMotorEnable
 702              		.syntax unified
 703              		.thumb
 704              		.thumb_func
 706              	MIMotorEnable:
 707              	.LVL60:
 708              	.LFB143:
ARM GAS  C:\Users\Sive\AppData\Local\Temp\ccX6Z0WA.s 			page 23


 150:moudels/motor/MImotor/MImotor.c ****     motor->stop_flag = MOTOR_ENALBED;
 709              		.loc 1 150 1 is_stmt 1 view -0
 710              		.cfi_startproc
 711              		@ args = 0, pretend = 0, frame = 0
 712              		@ frame_needed = 0, uses_anonymous_args = 0
 713              		@ link register save eliminated.
 151:moudels/motor/MImotor/MImotor.c **** }
 714              		.loc 1 151 5 view .LVU212
 151:moudels/motor/MImotor/MImotor.c **** }
 715              		.loc 1 151 22 is_stmt 0 view .LVU213
 716 0000 0123     		movs	r3, #1
 717 0002 80F8AD31 		strb	r3, [r0, #429]
 152:moudels/motor/MImotor/MImotor.c **** 
 718              		.loc 1 152 1 view .LVU214
 719 0006 7047     		bx	lr
 720              		.cfi_endproc
 721              	.LFE143:
 723              		.section	.text.MIMotorInit,"ax",%progbits
 724              		.align	1
 725              		.global	MIMotorInit
 726              		.syntax unified
 727              		.thumb
 728              		.thumb_func
 730              	MIMotorInit:
 731              	.LVL61:
 732              	.LFB140:
  74:moudels/motor/MImotor/MImotor.c ****     MIMotorInstance *instance = (MIMotorInstance *)malloc(sizeof(MIMotorInstance));
 733              		.loc 1 74 1 is_stmt 1 view -0
 734              		.cfi_startproc
 735              		@ args = 0, pretend = 0, frame = 16
 736              		@ frame_needed = 0, uses_anonymous_args = 0
  74:moudels/motor/MImotor/MImotor.c ****     MIMotorInstance *instance = (MIMotorInstance *)malloc(sizeof(MIMotorInstance));
 737              		.loc 1 74 1 is_stmt 0 view .LVU216
 738 0000 70B5     		push	{r4, r5, r6, lr}
 739              		.cfi_def_cfa_offset 16
 740              		.cfi_offset 4, -16
 741              		.cfi_offset 5, -12
 742              		.cfi_offset 6, -8
 743              		.cfi_offset 14, -4
 744 0002 84B0     		sub	sp, sp, #16
 745              		.cfi_def_cfa_offset 32
 746 0004 0446     		mov	r4, r0
  75:moudels/motor/MImotor/MImotor.c ****     memset(instance, 0, sizeof(MIMotorInstance));
 747              		.loc 1 75 5 is_stmt 1 view .LVU217
  75:moudels/motor/MImotor/MImotor.c ****     memset(instance, 0, sizeof(MIMotorInstance));
 748              		.loc 1 75 52 is_stmt 0 view .LVU218
 749 0006 4FF4E070 		mov	r0, #448
 750              	.LVL62:
  75:moudels/motor/MImotor/MImotor.c ****     memset(instance, 0, sizeof(MIMotorInstance));
 751              		.loc 1 75 52 view .LVU219
 752 000a FFF7FEFF 		bl	malloc
 753              	.LVL63:
 754 000e 0546     		mov	r5, r0
 755              	.LVL64:
  76:moudels/motor/MImotor/MImotor.c ****     instance->motor_type = config->motor_type;
 756              		.loc 1 76 5 is_stmt 1 view .LVU220
 757 0010 4FF4E072 		mov	r2, #448
ARM GAS  C:\Users\Sive\AppData\Local\Temp\ccX6Z0WA.s 			page 24


 758 0014 0021     		movs	r1, #0
 759 0016 FFF7FEFF 		bl	memset
 760              	.LVL65:
  77:moudels/motor/MImotor/MImotor.c ****     instance->motor_settings = config->controller_setting_init_config;
 761              		.loc 1 77 5 view .LVU221
  77:moudels/motor/MImotor/MImotor.c ****     instance->motor_settings = config->controller_setting_init_config;
 762              		.loc 1 77 34 is_stmt 0 view .LVU222
 763 001a 94F8A030 		ldrb	r3, [r4, #160]	@ zero_extendqisi2
  77:moudels/motor/MImotor/MImotor.c ****     instance->motor_settings = config->controller_setting_init_config;
 764              		.loc 1 77 26 view .LVU223
 765 001e 85F8AC31 		strb	r3, [r5, #428]
  78:moudels/motor/MImotor/MImotor.c **** 
 766              		.loc 1 78 5 is_stmt 1 view .LVU224
  78:moudels/motor/MImotor/MImotor.c **** 
 767              		.loc 1 78 30 is_stmt 0 view .LVU225
 768 0022 05F11C03 		add	r3, r5, #28
 769 0026 04F19402 		add	r2, r4, #148
 770 002a 07CA     		ldm	r2, {r0, r1, r2}
 771 002c 83E80700 		stm	r3, {r0, r1, r2}
  80:moudels/motor/MImotor/MImotor.c ****     config->can_init_config.can_module_callback=DecodeMIMotor;
 772              		.loc 1 80 5 is_stmt 1 view .LVU226
  80:moudels/motor/MImotor/MImotor.c ****     config->can_init_config.can_module_callback=DecodeMIMotor;
 773              		.loc 1 80 58 is_stmt 0 view .LVU227
 774 0030 94F8A930 		ldrb	r3, [r4, #169]	@ zero_extendqisi2
  80:moudels/motor/MImotor/MImotor.c ****     config->can_init_config.can_module_callback=DecodeMIMotor;
 775              		.loc 1 80 34 view .LVU228
 776 0034 84F8AA30 		strb	r3, [r4, #170]
  81:moudels/motor/MImotor/MImotor.c ****     config->can_init_config.id=instance;   
 777              		.loc 1 81 5 is_stmt 1 view .LVU229
  81:moudels/motor/MImotor/MImotor.c ****     config->can_init_config.id=instance;   
 778              		.loc 1 81 48 is_stmt 0 view .LVU230
 779 0038 1C4A     		ldr	r2, .L39
 780 003a C4F8B020 		str	r2, [r4, #176]
  82:moudels/motor/MImotor/MImotor.c ****     config->can_init_config.EXT_ID.fields.motor_id=config->can_init_config.tx_id;
 781              		.loc 1 82 5 is_stmt 1 view .LVU231
  82:moudels/motor/MImotor/MImotor.c ****     config->can_init_config.EXT_ID.fields.motor_id=config->can_init_config.tx_id;
 782              		.loc 1 82 31 is_stmt 0 view .LVU232
 783 003e C4F8B450 		str	r5, [r4, #180]
  83:moudels/motor/MImotor/MImotor.c ****     config->can_init_config.EXT_ID.fields.data=0;
 784              		.loc 1 83 5 is_stmt 1 view .LVU233
  83:moudels/motor/MImotor/MImotor.c ****     config->can_init_config.EXT_ID.fields.data=0;
 785              		.loc 1 83 51 is_stmt 0 view .LVU234
 786 0042 84F8AB30 		strb	r3, [r4, #171]
  84:moudels/motor/MImotor/MImotor.c ****     config->can_init_config.EXT_ID.fields.mode=3;
 787              		.loc 1 84 5 is_stmt 1 view .LVU235
  84:moudels/motor/MImotor/MImotor.c ****     config->can_init_config.EXT_ID.fields.mode=3;
 788              		.loc 1 84 47 is_stmt 0 view .LVU236
 789 0046 0026     		movs	r6, #0
 790 0048 84F8AC60 		strb	r6, [r4, #172]
 791 004c 84F8AD60 		strb	r6, [r4, #173]
  85:moudels/motor/MImotor/MImotor.c ****     config->can_init_config.EXT_ID.fields.res=0;
 792              		.loc 1 85 5 is_stmt 1 view .LVU237
  85:moudels/motor/MImotor/MImotor.c ****     config->can_init_config.EXT_ID.fields.res=0;
 793              		.loc 1 85 47 is_stmt 0 view .LVU238
 794 0050 94F8AE30 		ldrb	r3, [r4, #174]	@ zero_extendqisi2
 795 0054 0322     		movs	r2, #3
 796 0056 62F30403 		bfi	r3, r2, #0, #5
ARM GAS  C:\Users\Sive\AppData\Local\Temp\ccX6Z0WA.s 			page 25


 797 005a 84F8AE30 		strb	r3, [r4, #174]
  86:moudels/motor/MImotor/MImotor.c ****     instance->motor_can_instance = CANRegister(&config->can_init_config);//Ê≥®ÂÜåÂ∞èÁ±≥ÁîµÊú∫Âà∞can
 798              		.loc 1 86 5 is_stmt 1 view .LVU239
  86:moudels/motor/MImotor/MImotor.c ****     instance->motor_can_instance = CANRegister(&config->can_init_config);//Ê≥®ÂÜåÂ∞èÁ±≥ÁîµÊú∫Âà∞can
 799              		.loc 1 86 46 is_stmt 0 view .LVU240
 800 005e DBB2     		uxtb	r3, r3
 801 0060 66F34713 		bfi	r3, r6, #5, #3
 802 0064 84F8AE30 		strb	r3, [r4, #174]
  87:moudels/motor/MImotor/MImotor.c ****     // Ê≥®ÂÜåÂÆàÊä§Á∫øÁ®ã
 803              		.loc 1 87 5 is_stmt 1 view .LVU241
  87:moudels/motor/MImotor/MImotor.c ****     // Ê≥®ÂÜåÂÆàÊä§Á∫øÁ®ã
 804              		.loc 1 87 36 is_stmt 0 view .LVU242
 805 0068 04F1A400 		add	r0, r4, #164
 806 006c FFF7FEFF 		bl	CANRegister
 807              	.LVL66:
  87:moudels/motor/MImotor/MImotor.c ****     // Ê≥®ÂÜåÂÆàÊä§Á∫øÁ®ã
 808              		.loc 1 87 34 discriminator 1 view .LVU243
 809 0070 C5F8A801 		str	r0, [r5, #424]
  89:moudels/motor/MImotor/MImotor.c ****         .callback = MIMotorLostCallback,
 810              		.loc 1 89 5 is_stmt 1 view .LVU244
  89:moudels/motor/MImotor/MImotor.c ****         .callback = MIMotorLostCallback,
 811              		.loc 1 89 26 is_stmt 0 view .LVU245
 812 0074 0196     		str	r6, [sp, #4]
 813 0076 0296     		str	r6, [sp, #8]
 814 0078 0396     		str	r6, [sp, #12]
 815 007a 0223     		movs	r3, #2
 816 007c ADF80430 		strh	r3, [sp, #4]	@ movhi
 817 0080 0B4B     		ldr	r3, .L39+4
 818 0082 0293     		str	r3, [sp, #8]
 819 0084 0395     		str	r5, [sp, #12]
  94:moudels/motor/MImotor/MImotor.c **** 
 820              		.loc 1 94 5 is_stmt 1 view .LVU246
  94:moudels/motor/MImotor/MImotor.c **** 
 821              		.loc 1 94 24 is_stmt 0 view .LVU247
 822 0086 01A8     		add	r0, sp, #4
 823 0088 FFF7FEFF 		bl	DaemonRegister
 824              	.LVL67:
  94:moudels/motor/MImotor/MImotor.c **** 
 825              		.loc 1 94 22 discriminator 1 view .LVU248
 826 008c C5F8B001 		str	r0, [r5, #432]
  96:moudels/motor/MImotor/MImotor.c ****     mi_motor_instance[idx++] = instance;
 827              		.loc 1 96 5 is_stmt 1 view .LVU249
 828 0090 2846     		mov	r0, r5
 829 0092 FFF7FEFF 		bl	MIMotorEnable
 830              	.LVL68:
  97:moudels/motor/MImotor/MImotor.c ****     return instance;
 831              		.loc 1 97 5 view .LVU250
  97:moudels/motor/MImotor/MImotor.c ****     return instance;
 832              		.loc 1 97 26 is_stmt 0 view .LVU251
 833 0096 074A     		ldr	r2, .L39+8
 834 0098 1378     		ldrb	r3, [r2]	@ zero_extendqisi2
 835 009a 591C     		adds	r1, r3, #1
 836 009c 1170     		strb	r1, [r2]
  97:moudels/motor/MImotor/MImotor.c ****     return instance;
 837              		.loc 1 97 30 view .LVU252
 838 009e 064A     		ldr	r2, .L39+12
 839 00a0 42F82350 		str	r5, [r2, r3, lsl #2]
ARM GAS  C:\Users\Sive\AppData\Local\Temp\ccX6Z0WA.s 			page 26


  98:moudels/motor/MImotor/MImotor.c **** }
 840              		.loc 1 98 5 is_stmt 1 view .LVU253
  99:moudels/motor/MImotor/MImotor.c **** 
 841              		.loc 1 99 1 is_stmt 0 view .LVU254
 842 00a4 2846     		mov	r0, r5
 843 00a6 04B0     		add	sp, sp, #16
 844              		.cfi_def_cfa_offset 16
 845              		@ sp needed
 846 00a8 70BD     		pop	{r4, r5, r6, pc}
 847              	.LVL69:
 848              	.L40:
  99:moudels/motor/MImotor/MImotor.c **** 
 849              		.loc 1 99 1 view .LVU255
 850 00aa 00BF     		.align	2
 851              	.L39:
 852 00ac 00000000 		.word	DecodeMIMotor
 853 00b0 00000000 		.word	MIMotorLostCallback
 854 00b4 00000000 		.word	idx
 855 00b8 00000000 		.word	mi_motor_instance
 856              		.cfi_endproc
 857              	.LFE140:
 859              		.section	.text.MIMotorOuterLoop,"ax",%progbits
 860              		.align	1
 861              		.global	MIMotorOuterLoop
 862              		.syntax unified
 863              		.thumb
 864              		.thumb_func
 866              	MIMotorOuterLoop:
 867              	.LVL70:
 868              	.LFB144:
 156:moudels/motor/MImotor/MImotor.c ****     motor->motor_settings.outer_loop_type = outer_loop;
 869              		.loc 1 156 1 is_stmt 1 view -0
 870              		.cfi_startproc
 871              		@ args = 0, pretend = 0, frame = 0
 872              		@ frame_needed = 0, uses_anonymous_args = 0
 873              		@ link register save eliminated.
 157:moudels/motor/MImotor/MImotor.c **** }
 874              		.loc 1 157 5 view .LVU257
 157:moudels/motor/MImotor/MImotor.c **** }
 875              		.loc 1 157 43 is_stmt 0 view .LVU258
 876 0000 0177     		strb	r1, [r0, #28]
 158:moudels/motor/MImotor/MImotor.c **** 
 877              		.loc 1 158 1 view .LVU259
 878 0002 7047     		bx	lr
 879              		.cfi_endproc
 880              	.LFE144:
 882              		.section	.text.MIMotorSetRef,"ax",%progbits
 883              		.align	1
 884              		.global	MIMotorSetRef
 885              		.syntax unified
 886              		.thumb
 887              		.thumb_func
 889              	MIMotorSetRef:
 890              	.LVL71:
 891              	.LFB145:
 162:moudels/motor/MImotor/MImotor.c ****     motor->motor_controller.pid_ref = ref;
 892              		.loc 1 162 1 is_stmt 1 view -0
ARM GAS  C:\Users\Sive\AppData\Local\Temp\ccX6Z0WA.s 			page 27


 893              		.cfi_startproc
 894              		@ args = 0, pretend = 0, frame = 0
 895              		@ frame_needed = 0, uses_anonymous_args = 0
 896              		@ link register save eliminated.
 163:moudels/motor/MImotor/MImotor.c **** }
 897              		.loc 1 163 5 view .LVU261
 163:moudels/motor/MImotor/MImotor.c **** }
 898              		.loc 1 163 37 is_stmt 0 view .LVU262
 899 0000 80ED680A 		vstr.32	s0, [r0, #416]
 164:moudels/motor/MImotor/MImotor.c **** 
 900              		.loc 1 164 1 view .LVU263
 901 0004 7047     		bx	lr
 902              		.cfi_endproc
 903              	.LFE145:
 905              		.section	.text.FloatToUint,"ax",%progbits
 906              		.align	1
 907              		.global	FloatToUint
 908              		.syntax unified
 909              		.thumb
 910              		.thumb_func
 912              	FloatToUint:
 913              	.LVL72:
 914              	.LFB146:
 178:moudels/motor/MImotor/MImotor.c ****     float span = x_max - x_min;
 915              		.loc 1 178 1 is_stmt 1 view -0
 916              		.cfi_startproc
 917              		@ args = 0, pretend = 0, frame = 0
 918              		@ frame_needed = 0, uses_anonymous_args = 0
 919              		@ link register save eliminated.
 179:moudels/motor/MImotor/MImotor.c ****     float offset = x_min;
 920              		.loc 1 179 5 view .LVU265
 179:moudels/motor/MImotor/MImotor.c ****     float offset = x_min;
 921              		.loc 1 179 11 is_stmt 0 view .LVU266
 922 0000 31EE607A 		vsub.f32	s14, s2, s1
 923              	.LVL73:
 180:moudels/motor/MImotor/MImotor.c ****     if(x > x_max) x=x_max;
 924              		.loc 1 180 5 is_stmt 1 view .LVU267
 181:moudels/motor/MImotor/MImotor.c ****     else if(x < x_min) x=x_min;
 925              		.loc 1 181 5 view .LVU268
 181:moudels/motor/MImotor/MImotor.c ****     else if(x < x_min) x=x_min;
 926              		.loc 1 181 7 is_stmt 0 view .LVU269
 927 0004 B4EEC01A 		vcmpe.f32	s2, s0
 928 0008 F1EE10FA 		vmrs	APSR_nzcv, FPSCR
 929 000c 06D4     		bmi	.L44
 182:moudels/motor/MImotor/MImotor.c ****     return (uint32_t) ((x-offset)*((float)((1<<bits)-1))/span);
 930              		.loc 1 182 10 is_stmt 1 view .LVU270
 182:moudels/motor/MImotor/MImotor.c ****     return (uint32_t) ((x-offset)*((float)((1<<bits)-1))/span);
 931              		.loc 1 182 12 is_stmt 0 view .LVU271
 932 000e F4EEC00A 		vcmpe.f32	s1, s0
 933 0012 F1EE10FA 		vmrs	APSR_nzcv, FPSCR
 934 0016 14DC     		bgt	.L45
 935 0018 B0EE401A 		vmov.f32	s2, s0
 936              	.LVL74:
 937              	.L44:
 183:moudels/motor/MImotor/MImotor.c **** }
 938              		.loc 1 183 5 is_stmt 1 view .LVU272
 183:moudels/motor/MImotor/MImotor.c **** }
ARM GAS  C:\Users\Sive\AppData\Local\Temp\ccX6Z0WA.s 			page 28


 939              		.loc 1 183 26 is_stmt 0 view .LVU273
 940 001c 31EE601A 		vsub.f32	s2, s2, s1
 941              	.LVL75:
 183:moudels/motor/MImotor/MImotor.c **** }
 942              		.loc 1 183 46 view .LVU274
 943 0020 0123     		movs	r3, #1
 944 0022 03FA00F0 		lsl	r0, r3, r0
 945              	.LVL76:
 183:moudels/motor/MImotor/MImotor.c **** }
 946              		.loc 1 183 53 view .LVU275
 947 0026 0138     		subs	r0, r0, #1
 183:moudels/motor/MImotor/MImotor.c **** }
 948              		.loc 1 183 36 view .LVU276
 949 0028 07EE900A 		vmov	s15, r0	@ int
 950 002c F8EEE77A 		vcvt.f32.s32	s15, s15
 183:moudels/motor/MImotor/MImotor.c **** }
 951              		.loc 1 183 34 view .LVU277
 952 0030 21EE271A 		vmul.f32	s2, s2, s15
 183:moudels/motor/MImotor/MImotor.c **** }
 953              		.loc 1 183 57 view .LVU278
 954 0034 C1EE077A 		vdiv.f32	s15, s2, s14
 184:moudels/motor/MImotor/MImotor.c **** 
 955              		.loc 1 184 1 view .LVU279
 956 0038 FCEEE77A 		vcvt.u32.f32	s15, s15
 957 003c 17EE900A 		vmov	r0, s15	@ int
 958 0040 7047     		bx	lr
 959              	.LVL77:
 960              	.L45:
 182:moudels/motor/MImotor/MImotor.c ****     return (uint32_t) ((x-offset)*((float)((1<<bits)-1))/span);
 961              		.loc 1 182 25 discriminator 1 view .LVU280
 962 0042 B0EE601A 		vmov.f32	s2, s1
 963              	.LVL78:
 182:moudels/motor/MImotor/MImotor.c ****     return (uint32_t) ((x-offset)*((float)((1<<bits)-1))/span);
 964              		.loc 1 182 25 discriminator 1 view .LVU281
 965 0046 E9E7     		b	.L44
 966              		.cfi_endproc
 967              	.LFE146:
 969              		.section	.text.RangeRestrict,"ax",%progbits
 970              		.align	1
 971              		.global	RangeRestrict
 972              		.syntax unified
 973              		.thumb
 974              		.thumb_func
 976              	RangeRestrict:
 977              	.LVL79:
 978              	.LFB147:
 194:moudels/motor/MImotor/MImotor.c ****     float res;
 979              		.loc 1 194 1 is_stmt 1 view -0
 980              		.cfi_startproc
 981              		@ args = 0, pretend = 0, frame = 0
 982              		@ frame_needed = 0, uses_anonymous_args = 0
 983              		@ link register save eliminated.
 194:moudels/motor/MImotor/MImotor.c ****     float res;
 984              		.loc 1 194 1 is_stmt 0 view .LVU283
 985 0000 F0EE407A 		vmov.f32	s15, s0
 986 0004 B0EE410A 		vmov.f32	s0, s2
 987              	.LVL80:
ARM GAS  C:\Users\Sive\AppData\Local\Temp\ccX6Z0WA.s 			page 29


 195:moudels/motor/MImotor/MImotor.c ****     if(x > x_max) res=x_max;
 988              		.loc 1 195 5 is_stmt 1 view .LVU284
 196:moudels/motor/MImotor/MImotor.c ****     else if(x < x_min) res=x_min;
 989              		.loc 1 196 5 view .LVU285
 196:moudels/motor/MImotor/MImotor.c ****     else if(x < x_min) res=x_min;
 990              		.loc 1 196 7 is_stmt 0 view .LVU286
 991 0008 F4EEC17A 		vcmpe.f32	s15, s2
 992 000c F1EE10FA 		vmrs	APSR_nzcv, FPSCR
 993 0010 09DC     		bgt	.L47
 197:moudels/motor/MImotor/MImotor.c ****     else res = x;
 994              		.loc 1 197 10 is_stmt 1 view .LVU287
 197:moudels/motor/MImotor/MImotor.c ****     else res = x;
 995              		.loc 1 197 12 is_stmt 0 view .LVU288
 996 0012 F4EEE07A 		vcmpe.f32	s15, s1
 997 0016 F1EE10FA 		vmrs	APSR_nzcv, FPSCR
 998 001a 02D5     		bpl	.L51
 197:moudels/motor/MImotor/MImotor.c ****     else res = x;
 999              		.loc 1 197 27 discriminator 1 view .LVU289
 1000 001c B0EE600A 		vmov.f32	s0, s1
 1001 0020 7047     		bx	lr
 1002              	.LVL81:
 1003              	.L51:
 198:moudels/motor/MImotor/MImotor.c ****     return res;
 1004              		.loc 1 198 14 view .LVU290
 1005 0022 B0EE670A 		vmov.f32	s0, s15
 1006              	.LVL82:
 1007              	.L47:
 199:moudels/motor/MImotor/MImotor.c **** }
 1008              		.loc 1 199 5 is_stmt 1 view .LVU291
 200:moudels/motor/MImotor/MImotor.c **** 
 1009              		.loc 1 200 1 is_stmt 0 view .LVU292
 1010 0026 7047     		bx	lr
 1011              		.cfi_endproc
 1012              	.LFE147:
 1014              		.section	.text.MI_motor_Modeset,"ax",%progbits
 1015              		.align	1
 1016              		.global	MI_motor_Modeset
 1017              		.syntax unified
 1018              		.thumb
 1019              		.thumb_func
 1021              	MI_motor_Modeset:
 1022              	.LVL83:
 1023              	.LFB155:
 390:moudels/motor/MImotor/MImotor.c ****  void MI_motor_Modeset(MIMotorInstance* hmotor,float param,uint16_t index)
 391:moudels/motor/MImotor/MImotor.c **** {
 1024              		.loc 1 391 1 is_stmt 1 view -0
 1025              		.cfi_startproc
 1026              		@ args = 0, pretend = 0, frame = 0
 1027              		@ frame_needed = 0, uses_anonymous_args = 0
 1028              		.loc 1 391 1 is_stmt 0 view .LVU294
 1029 0000 10B5     		push	{r4, lr}
 1030              		.cfi_def_cfa_offset 8
 1031              		.cfi_offset 4, -8
 1032              		.cfi_offset 14, -4
 1033 0002 10EE10EA 		vmov	lr, s0
 392:moudels/motor/MImotor/MImotor.c ****     static EXT_ID_T  EXT;
 1034              		.loc 1 392 5 is_stmt 1 view .LVU295
ARM GAS  C:\Users\Sive\AppData\Local\Temp\ccX6Z0WA.s 			page 30


 393:moudels/motor/MImotor/MImotor.c ****     EXT.fields.mode=18;
 1035              		.loc 1 393 5 view .LVU296
 1036              		.loc 1 393 20 is_stmt 0 view .LVU297
 1037 0006 194B     		ldr	r3, .L59
 1038 0008 DA78     		ldrb	r2, [r3, #3]	@ zero_extendqisi2
 1039 000a 1224     		movs	r4, #18
 1040 000c 64F30402 		bfi	r2, r4, #0, #5
 1041 0010 DA70     		strb	r2, [r3, #3]
 394:moudels/motor/MImotor/MImotor.c ****     EXT.fields.data=MI_MASTERID;
 1042              		.loc 1 394 5 is_stmt 1 view .LVU298
 1043              		.loc 1 394 20 is_stmt 0 view .LVU299
 1044 0012 174A     		ldr	r2, .L59+4
 1045 0014 1278     		ldrb	r2, [r2]	@ zero_extendqisi2
 1046 0016 A3F80120 		strh	r2, [r3, #1]	@ unaligned
 395:moudels/motor/MImotor/MImotor.c ****     EXT.fields.motor_id=hmotor->motor_can_instance->tx_id;
 1047              		.loc 1 395 5 is_stmt 1 view .LVU300
 1048              		.loc 1 395 31 is_stmt 0 view .LVU301
 1049 001a D0F8A841 		ldr	r4, [r0, #424]
 1050              		.loc 1 395 51 view .LVU302
 1051 001e 94F83820 		ldrb	r2, [r4, #56]	@ zero_extendqisi2
 1052              		.loc 1 395 24 view .LVU303
 1053 0022 1A70     		strb	r2, [r3]
 396:moudels/motor/MImotor/MImotor.c ****     EXT.fields.res=0;
 1054              		.loc 1 396 5 is_stmt 1 view .LVU304
 1055              		.loc 1 396 19 is_stmt 0 view .LVU305
 1056 0024 DA78     		ldrb	r2, [r3, #3]	@ zero_extendqisi2
 1057 0026 22F0E002 		bic	r2, r2, #224
 1058 002a DA70     		strb	r2, [r3, #3]
 397:moudels/motor/MImotor/MImotor.c ****     hmotor->motor_can_instance->txconf.ExtId= EXT.raw;
 1059              		.loc 1 397 5 is_stmt 1 view .LVU306
 1060              		.loc 1 397 50 is_stmt 0 view .LVU307
 1061 002c 1B68     		ldr	r3, [r3]
 1062              		.loc 1 397 45 view .LVU308
 1063 002e A360     		str	r3, [r4, #8]	@ unaligned
 398:moudels/motor/MImotor/MImotor.c **** 
 399:moudels/motor/MImotor/MImotor.c ****     
 400:moudels/motor/MImotor/MImotor.c ****     for(uint8_t i=2; i<8; i++)
 1064              		.loc 1 400 5 is_stmt 1 view .LVU309
 1065              	.LBB8:
 1066              		.loc 1 400 9 view .LVU310
 1067              	.LVL84:
 1068              		.loc 1 400 17 is_stmt 0 view .LVU311
 1069 0030 0223     		movs	r3, #2
 1070              	.LVL85:
 1071              	.L53:
 1072              		.loc 1 400 23 is_stmt 1 discriminator 1 view .LVU312
 1073 0032 072B     		cmp	r3, #7
 1074 0034 09D8     		bhi	.L58
 401:moudels/motor/MImotor/MImotor.c ****     {
 402:moudels/motor/MImotor/MImotor.c ****         hmotor->motor_can_instance->tx_buff[i]=0;
 1075              		.loc 1 402 9 view .LVU313
 1076              		.loc 1 402 15 is_stmt 0 view .LVU314
 1077 0036 D0F8A821 		ldr	r2, [r0, #424]
 1078              		.loc 1 402 47 view .LVU315
 1079 003a 1A44     		add	r2, r2, r3
 1080 003c 4FF0000C 		mov	ip, #0
 1081 0040 82F83DC0 		strb	ip, [r2, #61]
ARM GAS  C:\Users\Sive\AppData\Local\Temp\ccX6Z0WA.s 			page 31


 400:moudels/motor/MImotor/MImotor.c ****     {
 1082              		.loc 1 400 28 is_stmt 1 discriminator 3 view .LVU316
 1083 0044 0133     		adds	r3, r3, #1
 1084              	.LVL86:
 400:moudels/motor/MImotor/MImotor.c ****     {
 1085              		.loc 1 400 28 is_stmt 0 discriminator 3 view .LVU317
 1086 0046 DBB2     		uxtb	r3, r3
 1087              	.LVL87:
 400:moudels/motor/MImotor/MImotor.c ****     {
 1088              		.loc 1 400 28 discriminator 3 view .LVU318
 1089 0048 F3E7     		b	.L53
 1090              	.L58:
 400:moudels/motor/MImotor/MImotor.c ****     {
 1091              		.loc 1 400 28 discriminator 3 view .LVU319
 1092              	.LBE8:
 403:moudels/motor/MImotor/MImotor.c ****     }
 404:moudels/motor/MImotor/MImotor.c ****     memcpy(&hmotor->motor_can_instance->tx_buff[0],&index,2);
 1093              		.loc 1 404 5 is_stmt 1 view .LVU320
 1094              		.loc 1 404 19 is_stmt 0 view .LVU321
 1095 004a D0F8A831 		ldr	r3, [r0, #424]
 1096              	.LVL88:
 1097              		.loc 1 404 5 view .LVU322
 1098 004e A3F83D10 		strh	r1, [r3, #61]	@ unaligned
 405:moudels/motor/MImotor/MImotor.c ****     memcpy(&hmotor->motor_can_instance->tx_buff[4],&param,4);
 1099              		.loc 1 405 5 is_stmt 1 view .LVU323
 1100              		.loc 1 405 19 is_stmt 0 view .LVU324
 1101 0052 D0F8A831 		ldr	r3, [r0, #424]
 1102              		.loc 1 405 5 view .LVU325
 1103 0056 C3F841E0 		str	lr, [r3, #65]	@ unaligned
 406:moudels/motor/MImotor/MImotor.c ****     if(!CANTransmit(hmotor->motor_can_instance,1)){
 1104              		.loc 1 406 5 is_stmt 1 view .LVU326
 1105              		.loc 1 406 9 is_stmt 0 view .LVU327
 1106 005a B7EE000A 		vmov.f32	s0, #1.0e+0
 1107              	.LVL89:
 1108              		.loc 1 406 9 view .LVU328
 1109 005e D0F8A801 		ldr	r0, [r0, #424]
 1110              	.LVL90:
 1111              		.loc 1 406 9 view .LVU329
 1112 0062 FFF7FEFF 		bl	CANTransmit
 1113              	.LVL91:
 1114              		.loc 1 406 7 discriminator 1 view .LVU330
 1115 0066 00B9     		cbnz	r0, .L52
 1116              	.L56:
 407:moudels/motor/MImotor/MImotor.c ****         while(1){
 1117              		.loc 1 407 9 is_stmt 1 view .LVU331
 408:moudels/motor/MImotor/MImotor.c **** 
 409:moudels/motor/MImotor/MImotor.c ****         }
 1118              		.loc 1 409 9 view .LVU332
 407:moudels/motor/MImotor/MImotor.c ****         while(1){
 1119              		.loc 1 407 14 view .LVU333
 1120 0068 FEE7     		b	.L56
 1121              	.L52:
 410:moudels/motor/MImotor/MImotor.c ****     }
 411:moudels/motor/MImotor/MImotor.c **** }
 1122              		.loc 1 411 1 is_stmt 0 view .LVU334
 1123 006a 10BD     		pop	{r4, pc}
 1124              	.L60:
ARM GAS  C:\Users\Sive\AppData\Local\Temp\ccX6Z0WA.s 			page 32


 1125              		.align	2
 1126              	.L59:
 1127 006c 00000000 		.word	EXT.3
 1128 0070 00000000 		.word	MI_MASTERID
 1129              		.cfi_endproc
 1130              	.LFE155:
 1132              		.section	.text.MI_motor_TorqueControl,"ax",%progbits
 1133              		.align	1
 1134              		.global	MI_motor_TorqueControl
 1135              		.syntax unified
 1136              		.thumb
 1137              		.thumb_func
 1139              	MI_motor_TorqueControl:
 1140              	.LVL92:
 1141              	.LFB156:
 412:moudels/motor/MImotor/MImotor.c **** /*-------------------- Â∞ÅË£ÖÁöÑ‰∏Ä‰∫õÊéßÂà∂ÂáΩÊï∞ --------------------*/
 413:moudels/motor/MImotor/MImotor.c **** 
 414:moudels/motor/MImotor/MImotor.c **** /**
 415:moudels/motor/MImotor/MImotor.c ****   * @brief          Â∞èÁ±≥ÁîµÊú∫ÂäõÁü©ÊéßÂà∂Ê®°ÂºèÊéßÂà∂Êåá‰ª§
 416:moudels/motor/MImotor/MImotor.c ****   * @param[in]      hmotor ÁîµÊú∫ÁªìÊûÑ‰Ωì
 417:moudels/motor/MImotor/MImotor.c ****   * @param[in]      torque ÁõÆÊ†áÂäõÁü©
 418:moudels/motor/MImotor/MImotor.c ****   * @retval         none
 419:moudels/motor/MImotor/MImotor.c ****   */
 420:moudels/motor/MImotor/MImotor.c **** void  MI_motor_TorqueControl(MIMotorInstance* hmotor)
 421:moudels/motor/MImotor/MImotor.c **** {
 1142              		.loc 1 421 1 is_stmt 1 view -0
 1143              		.cfi_startproc
 1144              		@ args = 0, pretend = 0, frame = 0
 1145              		@ frame_needed = 0, uses_anonymous_args = 0
 1146              		.loc 1 421 1 is_stmt 0 view .LVU336
 1147 0000 10B5     		push	{r4, lr}
 1148              		.cfi_def_cfa_offset 8
 1149              		.cfi_offset 4, -8
 1150              		.cfi_offset 14, -4
 1151 0002 0446     		mov	r4, r0
 422:moudels/motor/MImotor/MImotor.c ****     MI_motor_ModeSwitch(hmotor, 3,0x7005);
 1152              		.loc 1 422 5 is_stmt 1 view .LVU337
 1153 0004 47F20502 		movw	r2, #28677
 1154 0008 0321     		movs	r1, #3
 1155 000a FFF7FEFF 		bl	MI_motor_ModeSwitch
 1156              	.LVL93:
 423:moudels/motor/MImotor/MImotor.c ****     MI_motor_Enable ( hmotor);
 1157              		.loc 1 423 5 view .LVU338
 1158 000e 2046     		mov	r0, r4
 1159 0010 FFF7FEFF 		bl	MI_motor_Enable
 1160              	.LVL94:
 424:moudels/motor/MImotor/MImotor.c ****     // MI_motor_Modeset(hmotor, torque,0x7006);
 425:moudels/motor/MImotor/MImotor.c **** }
 1161              		.loc 1 425 1 is_stmt 0 view .LVU339
 1162 0014 10BD     		pop	{r4, pc}
 1163              		.loc 1 425 1 view .LVU340
 1164              		.cfi_endproc
 1165              	.LFE156:
 1167              		.section	.text.MI_motor_stop,"ax",%progbits
 1168              		.align	1
 1169              		.global	MI_motor_stop
 1170              		.syntax unified
ARM GAS  C:\Users\Sive\AppData\Local\Temp\ccX6Z0WA.s 			page 33


 1171              		.thumb
 1172              		.thumb_func
 1174              	MI_motor_stop:
 1175              	.LVL95:
 1176              	.LFB157:
 426:moudels/motor/MImotor/MImotor.c **** 
 427:moudels/motor/MImotor/MImotor.c **** /**
 428:moudels/motor/MImotor/MImotor.c ****   * @brief          Â∞èÁ±≥ÁîµÊú∫ÂäõÁü©ÊéßÂà∂Ê®°ÂºèÊéßÂà∂Êåá‰ª§
 429:moudels/motor/MImotor/MImotor.c ****   * @param[in]      hmotor ÁîµÊú∫ÁªìÊûÑ‰Ωì
 430:moudels/motor/MImotor/MImotor.c ****   * @param[in]      torque ÁõÆÊ†áÂäõÁü©
 431:moudels/motor/MImotor/MImotor.c ****   * @retval         none
 432:moudels/motor/MImotor/MImotor.c ****   */
 433:moudels/motor/MImotor/MImotor.c **** void  MI_motor_stop(MIMotorInstance* hmotor)
 434:moudels/motor/MImotor/MImotor.c **** {
 1177              		.loc 1 434 1 is_stmt 1 view -0
 1178              		.cfi_startproc
 1179              		@ args = 0, pretend = 0, frame = 0
 1180              		@ frame_needed = 0, uses_anonymous_args = 0
 1181              		.loc 1 434 1 is_stmt 0 view .LVU342
 1182 0000 08B5     		push	{r3, lr}
 1183              		.cfi_def_cfa_offset 8
 1184              		.cfi_offset 3, -8
 1185              		.cfi_offset 14, -4
 435:moudels/motor/MImotor/MImotor.c ****     MI_motor_Stop( hmotor);
 1186              		.loc 1 435 5 is_stmt 1 view .LVU343
 1187 0002 FFF7FEFF 		bl	MI_motor_Stop
 1188              	.LVL96:
 436:moudels/motor/MImotor/MImotor.c **** }
 1189              		.loc 1 436 1 is_stmt 0 view .LVU344
 1190 0006 08BD     		pop	{r3, pc}
 1191              		.cfi_endproc
 1192              	.LFE157:
 1194              		.section	.text.MI_motor_LocationControl,"ax",%progbits
 1195              		.align	1
 1196              		.global	MI_motor_LocationControl
 1197              		.syntax unified
 1198              		.thumb
 1199              		.thumb_func
 1201              	MI_motor_LocationControl:
 1202              	.LVL97:
 1203              	.LFB158:
 437:moudels/motor/MImotor/MImotor.c **** 
 438:moudels/motor/MImotor/MImotor.c **** /**
 439:moudels/motor/MImotor/MImotor.c ****   * @brief          Â∞èÁ±≥ÁîµÊú∫‰ΩçÁΩÆÊ®°ÂºèÊéßÂà∂Êåá‰ª§
 440:moudels/motor/MImotor/MImotor.c ****   * @param[in]      hmotor ÁîµÊú∫ÁªìÊûÑ‰Ωì
 441:moudels/motor/MImotor/MImotor.c ****   * @param[in]      location ÊéßÂà∂‰ΩçÁΩÆ rad
 442:moudels/motor/MImotor/MImotor.c ****   * @param[in]      kp ÂìçÂ∫îÈÄüÂ∫¶(Âà∞Ëææ‰ΩçÁΩÆÂø´ÊÖ¢)Ôºå‰∏ÄËà¨Âèñ1-10
 443:moudels/motor/MImotor/MImotor.c ****   * @param[in]      kd ÁîµÊú∫ÈòªÂ∞ºÔºåËøáÂ∞è‰ºöÈúáËç°ÔºåËøáÂ§ßÁîµÊú∫‰ºöÈúáÂä®ÊòéÊòæ„ÄÇ‰∏ÄËà¨Âèñ0.5Â
 444:moudels/motor/MImotor/MImotor.c ****   * @retval         none
 445:moudels/motor/MImotor/MImotor.c ****   */
 446:moudels/motor/MImotor/MImotor.c **** void  MI_motor_LocationControl(MIMotorInstance* hmotor)
 447:moudels/motor/MImotor/MImotor.c **** {
 1204              		.loc 1 447 1 is_stmt 1 view -0
 1205              		.cfi_startproc
 1206              		@ args = 0, pretend = 0, frame = 0
 1207              		@ frame_needed = 0, uses_anonymous_args = 0
 1208              		.loc 1 447 1 is_stmt 0 view .LVU346
ARM GAS  C:\Users\Sive\AppData\Local\Temp\ccX6Z0WA.s 			page 34


 1209 0000 10B5     		push	{r4, lr}
 1210              		.cfi_def_cfa_offset 8
 1211              		.cfi_offset 4, -8
 1212              		.cfi_offset 14, -4
 1213 0002 0446     		mov	r4, r0
 448:moudels/motor/MImotor/MImotor.c ****    MI_motor_ModeSwitch(hmotor, 1,0x7005);
 1214              		.loc 1 448 4 is_stmt 1 view .LVU347
 1215 0004 47F20502 		movw	r2, #28677
 1216 0008 0121     		movs	r1, #1
 1217 000a FFF7FEFF 		bl	MI_motor_ModeSwitch
 1218              	.LVL98:
 449:moudels/motor/MImotor/MImotor.c ****    MI_motor_Enable ( hmotor);
 1219              		.loc 1 449 4 view .LVU348
 1220 000e 2046     		mov	r0, r4
 1221 0010 FFF7FEFF 		bl	MI_motor_Enable
 1222              	.LVL99:
 450:moudels/motor/MImotor/MImotor.c ****    MI_motor_Modeset(hmotor, 30,0x7017);//ÊúÄÂ§ßÈÄüÂ∫¶
 1223              		.loc 1 450 4 view .LVU349
 1224 0014 47F21701 		movw	r1, #28695
 1225 0018 B3EE0E0A 		vmov.f32	s0, #3.0e+1
 1226 001c 2046     		mov	r0, r4
 1227 001e FFF7FEFF 		bl	MI_motor_Modeset
 1228              	.LVL100:
 451:moudels/motor/MImotor/MImotor.c ****     // MI_motor_Modeset(hmotor, location,0x7016);//ÈÄüÂ∫¶
 452:moudels/motor/MImotor/MImotor.c **** 
 453:moudels/motor/MImotor/MImotor.c **** }
 1229              		.loc 1 453 1 is_stmt 0 view .LVU350
 1230 0022 10BD     		pop	{r4, pc}
 1231              		.loc 1 453 1 view .LVU351
 1232              		.cfi_endproc
 1233              	.LFE158:
 1235              		.section	.text.MI_motor_SpeedControl,"ax",%progbits
 1236              		.align	1
 1237              		.global	MI_motor_SpeedControl
 1238              		.syntax unified
 1239              		.thumb
 1240              		.thumb_func
 1242              	MI_motor_SpeedControl:
 1243              	.LVL101:
 1244              	.LFB159:
 454:moudels/motor/MImotor/MImotor.c **** 
 455:moudels/motor/MImotor/MImotor.c **** /**
 456:moudels/motor/MImotor/MImotor.c ****   * @brief          Â∞èÁ±≥ÁîµÊú∫ÈÄüÂ∫¶Ê®°ÂºèÊéßÂà∂Êåá‰ª§
 457:moudels/motor/MImotor/MImotor.c ****   * @param[in]      hmotor ÁîµÊú∫ÁªìÊûÑ‰Ωì
 458:moudels/motor/MImotor/MImotor.c ****   * @param[in]      speed ÊéßÂà∂ÈÄüÂ∫¶
 459:moudels/motor/MImotor/MImotor.c ****   * @param[in]      kd ÂìçÂ∫îÈÄüÂ∫¶Ôºå‰∏ÄËà¨Âèñ0.1-1
 460:moudels/motor/MImotor/MImotor.c ****   * @retval         none
 461:moudels/motor/MImotor/MImotor.c ****   */
 462:moudels/motor/MImotor/MImotor.c **** void  MI_motor_SpeedControl(MIMotorInstance* hmotor)
 463:moudels/motor/MImotor/MImotor.c **** {
 1245              		.loc 1 463 1 is_stmt 1 view -0
 1246              		.cfi_startproc
 1247              		@ args = 0, pretend = 0, frame = 0
 1248              		@ frame_needed = 0, uses_anonymous_args = 0
 1249              		.loc 1 463 1 is_stmt 0 view .LVU353
 1250 0000 10B5     		push	{r4, lr}
 1251              		.cfi_def_cfa_offset 8
ARM GAS  C:\Users\Sive\AppData\Local\Temp\ccX6Z0WA.s 			page 35


 1252              		.cfi_offset 4, -8
 1253              		.cfi_offset 14, -4
 1254 0002 0446     		mov	r4, r0
 464:moudels/motor/MImotor/MImotor.c ****     MI_motor_ModeSwitch(hmotor, 2,0x7005);
 1255              		.loc 1 464 5 is_stmt 1 view .LVU354
 1256 0004 47F20502 		movw	r2, #28677
 1257 0008 0221     		movs	r1, #2
 1258 000a FFF7FEFF 		bl	MI_motor_ModeSwitch
 1259              	.LVL102:
 465:moudels/motor/MImotor/MImotor.c ****    MI_motor_Enable ( hmotor);
 1260              		.loc 1 465 4 view .LVU355
 1261 000e 2046     		mov	r0, r4
 1262 0010 FFF7FEFF 		bl	MI_motor_Enable
 1263              	.LVL103:
 466:moudels/motor/MImotor/MImotor.c ****    MI_motor_Modeset(hmotor, 23,0x7018);//ÊúÄÂ§ßdianliu
 1264              		.loc 1 466 4 view .LVU356
 1265 0014 47F21801 		movw	r1, #28696
 1266 0018 B3EE070A 		vmov.f32	s0, #2.3e+1
 1267 001c 2046     		mov	r0, r4
 1268 001e FFF7FEFF 		bl	MI_motor_Modeset
 1269              	.LVL104:
 467:moudels/motor/MImotor/MImotor.c ****     // MI_motor_Modeset(hmotor,speed,0x700A);//ÈÄüÂ∫¶
 468:moudels/motor/MImotor/MImotor.c **** }
 1270              		.loc 1 468 1 is_stmt 0 view .LVU357
 1271 0022 10BD     		pop	{r4, pc}
 1272              		.loc 1 468 1 view .LVU358
 1273              		.cfi_endproc
 1274              	.LFE159:
 1276              		.section	.text.MIMotorControl,"ax",%progbits
 1277              		.align	1
 1278              		.global	MIMotorControl
 1279              		.syntax unified
 1280              		.thumb
 1281              		.thumb_func
 1283              	MIMotorControl:
 1284              	.LFB141:
 102:moudels/motor/MImotor/MImotor.c ****     MIMotorInstance *motor;
 1285              		.loc 1 102 1 is_stmt 1 view -0
 1286              		.cfi_startproc
 1287              		@ args = 0, pretend = 0, frame = 0
 1288              		@ frame_needed = 0, uses_anonymous_args = 0
 1289 0000 38B5     		push	{r3, r4, r5, lr}
 1290              		.cfi_def_cfa_offset 16
 1291              		.cfi_offset 3, -16
 1292              		.cfi_offset 4, -12
 1293              		.cfi_offset 5, -8
 1294              		.cfi_offset 14, -4
 103:moudels/motor/MImotor/MImotor.c ****     Motor_Control_Setting_s *motor_setting;// ÁîµÊú∫ÊéßÂà∂ÂèÇÊï∞
 1295              		.loc 1 103 5 view .LVU360
 104:moudels/motor/MImotor/MImotor.c ****     // Motor_Controller_s *motor_controller;   // ÁîµÊú∫ÊéßÂà∂Âô®
 1296              		.loc 1 104 5 view .LVU361
 107:moudels/motor/MImotor/MImotor.c ****     for(size_t i=0;i<idx;i++)
 1297              		.loc 1 107 5 view .LVU362
 108:moudels/motor/MImotor/MImotor.c ****     {
 1298              		.loc 1 108 5 view .LVU363
 1299              	.LBB9:
 108:moudels/motor/MImotor/MImotor.c ****     {
ARM GAS  C:\Users\Sive\AppData\Local\Temp\ccX6Z0WA.s 			page 36


 1300              		.loc 1 108 9 view .LVU364
 1301              	.LVL105:
 108:moudels/motor/MImotor/MImotor.c ****     {
 1302              		.loc 1 108 16 is_stmt 0 view .LVU365
 1303 0002 0025     		movs	r5, #0
 108:moudels/motor/MImotor/MImotor.c ****     {
 1304              		.loc 1 108 5 view .LVU366
 1305 0004 09E0     		b	.L70
 1306              	.LVL106:
 1307              	.L82:
 116:moudels/motor/MImotor/MImotor.c ****               motor_setting->ifsetflag=0;
 1308              		.loc 1 116 15 is_stmt 1 view .LVU367
 1309 0006 2046     		mov	r0, r4
 1310 0008 FFF7FEFF 		bl	MI_motor_stop
 1311              	.LVL107:
 117:moudels/motor/MImotor/MImotor.c ****         }else if(motor->stop_flag == MOTOR_ENALBED&&motor_setting->ifsetflag==0){
 1312              		.loc 1 117 15 view .LVU368
 117:moudels/motor/MImotor/MImotor.c ****         }else if(motor->stop_flag == MOTOR_ENALBED&&motor_setting->ifsetflag==0){
 1313              		.loc 1 117 39 is_stmt 0 view .LVU369
 1314 000c 0023     		movs	r3, #0
 1315 000e 6362     		str	r3, [r4, #36]	@ float
 1316              	.L72:
 132:moudels/motor/MImotor/MImotor.c ****             if((motor_setting->close_loop_type==ANGLE_LOOP)){
 1317              		.loc 1 132 10 is_stmt 1 view .LVU370
 132:moudels/motor/MImotor/MImotor.c ****             if((motor_setting->close_loop_type==ANGLE_LOOP)){
 1318              		.loc 1 132 18 is_stmt 0 view .LVU371
 1319 0010 94F8AD31 		ldrb	r3, [r4, #429]	@ zero_extendqisi2
 132:moudels/motor/MImotor/MImotor.c ****             if((motor_setting->close_loop_type==ANGLE_LOOP)){
 1320              		.loc 1 132 12 view .LVU372
 1321 0014 012B     		cmp	r3, #1
 1322 0016 34D0     		beq	.L80
 1323              	.L75:
 108:moudels/motor/MImotor/MImotor.c ****     {
 1324              		.loc 1 108 27 is_stmt 1 discriminator 2 view .LVU373
 1325 0018 0135     		adds	r5, r5, #1
 1326              	.LVL108:
 1327              	.L70:
 108:moudels/motor/MImotor/MImotor.c ****     {
 1328              		.loc 1 108 21 discriminator 1 view .LVU374
 1329 001a 304B     		ldr	r3, .L87
 1330 001c 1B78     		ldrb	r3, [r3]	@ zero_extendqisi2
 1331 001e AB42     		cmp	r3, r5
 1332 0020 5AD9     		bls	.L81
 110:moudels/motor/MImotor/MImotor.c ****         motor_setting = &motor->motor_settings;
 1333              		.loc 1 110 9 view .LVU375
 110:moudels/motor/MImotor/MImotor.c ****         motor_setting = &motor->motor_settings;
 1334              		.loc 1 110 15 is_stmt 0 view .LVU376
 1335 0022 2F4B     		ldr	r3, .L87+4
 1336 0024 53F82540 		ldr	r4, [r3, r5, lsl #2]
 1337              	.LVL109:
 111:moudels/motor/MImotor/MImotor.c ****         // motor_controller = &motor->motor_controller;
 1338              		.loc 1 111 9 is_stmt 1 view .LVU377
 114:moudels/motor/MImotor/MImotor.c ****         if(motor->stop_flag == MOTOR_STOP){
 1339              		.loc 1 114 9 view .LVU378
 114:moudels/motor/MImotor/MImotor.c ****         if(motor->stop_flag == MOTOR_STOP){
 1340              		.loc 1 114 38 is_stmt 0 view .LVU379
 1341 0028 D4F8A021 		ldr	r2, [r4, #416]	@ float
ARM GAS  C:\Users\Sive\AppData\Local\Temp\ccX6Z0WA.s 			page 37


 114:moudels/motor/MImotor/MImotor.c ****         if(motor->stop_flag == MOTOR_STOP){
 1342              		.loc 1 114 13 view .LVU380
 1343 002c 2D4B     		ldr	r3, .L87+8
 1344 002e 1A60     		str	r2, [r3]	@ float
 115:moudels/motor/MImotor/MImotor.c ****               MI_motor_stop(motor);
 1345              		.loc 1 115 9 is_stmt 1 view .LVU381
 115:moudels/motor/MImotor/MImotor.c ****               MI_motor_stop(motor);
 1346              		.loc 1 115 17 is_stmt 0 view .LVU382
 1347 0030 94F8AD31 		ldrb	r3, [r4, #429]	@ zero_extendqisi2
 115:moudels/motor/MImotor/MImotor.c ****               MI_motor_stop(motor);
 1348              		.loc 1 115 11 view .LVU383
 1349 0034 002B     		cmp	r3, #0
 1350 0036 E6D0     		beq	.L82
 118:moudels/motor/MImotor/MImotor.c ****             if((motor_setting->close_loop_type==ANGLE_LOOP&&motor_setting->ifsetflag==0)){
 1351              		.loc 1 118 15 is_stmt 1 view .LVU384
 118:moudels/motor/MImotor/MImotor.c ****             if((motor_setting->close_loop_type==ANGLE_LOOP&&motor_setting->ifsetflag==0)){
 1352              		.loc 1 118 17 is_stmt 0 view .LVU385
 1353 0038 012B     		cmp	r3, #1
 1354 003a E9D1     		bne	.L72
 118:moudels/motor/MImotor/MImotor.c ****             if((motor_setting->close_loop_type==ANGLE_LOOP&&motor_setting->ifsetflag==0)){
 1355              		.loc 1 118 66 discriminator 1 view .LVU386
 1356 003c D4ED097A 		vldr.32	s15, [r4, #36]
 118:moudels/motor/MImotor/MImotor.c ****             if((motor_setting->close_loop_type==ANGLE_LOOP&&motor_setting->ifsetflag==0)){
 1357              		.loc 1 118 51 discriminator 1 view .LVU387
 1358 0040 F5EE407A 		vcmp.f32	s15, #0
 1359 0044 F1EE10FA 		vmrs	APSR_nzcv, FPSCR
 1360 0048 E2D1     		bne	.L72
 119:moudels/motor/MImotor/MImotor.c ****                     MI_motor_LocationControl(motor);
 1361              		.loc 1 119 13 is_stmt 1 view .LVU388
 119:moudels/motor/MImotor/MImotor.c ****                     MI_motor_LocationControl(motor);
 1362              		.loc 1 119 30 is_stmt 0 view .LVU389
 1363 004a 637F     		ldrb	r3, [r4, #29]	@ zero_extendqisi2
 119:moudels/motor/MImotor/MImotor.c ****                     MI_motor_LocationControl(motor);
 1364              		.loc 1 119 15 view .LVU390
 1365 004c 042B     		cmp	r3, #4
 1366 004e 0AD0     		beq	.L83
 122:moudels/motor/MImotor/MImotor.c ****             {
 1367              		.loc 1 122 19 is_stmt 1 view .LVU391
 122:moudels/motor/MImotor/MImotor.c ****             {
 1368              		.loc 1 122 21 is_stmt 0 view .LVU392
 1369 0050 022B     		cmp	r3, #2
 1370 0052 0FD0     		beq	.L84
 126:moudels/motor/MImotor/MImotor.c ****            {
 1371              		.loc 1 126 19 is_stmt 1 view .LVU393
 126:moudels/motor/MImotor/MImotor.c ****            {
 1372              		.loc 1 126 21 is_stmt 0 view .LVU394
 1373 0054 012B     		cmp	r3, #1
 1374 0056 DBD1     		bne	.L72
 128:moudels/motor/MImotor/MImotor.c ****                     motor_setting->ifsetflag=1;
 1375              		.loc 1 128 21 is_stmt 1 view .LVU395
 1376 0058 2046     		mov	r0, r4
 1377 005a FFF7FEFF 		bl	MI_motor_TorqueControl
 1378              	.LVL110:
 129:moudels/motor/MImotor/MImotor.c ****             }
 1379              		.loc 1 129 21 view .LVU396
 129:moudels/motor/MImotor/MImotor.c ****             }
 1380              		.loc 1 129 45 is_stmt 0 view .LVU397
ARM GAS  C:\Users\Sive\AppData\Local\Temp\ccX6Z0WA.s 			page 38


 1381 005e 4FF07E53 		mov	r3, #1065353216
 1382 0062 6362     		str	r3, [r4, #36]	@ float
 1383 0064 D4E7     		b	.L72
 1384              	.L83:
 120:moudels/motor/MImotor/MImotor.c ****                     motor_setting->ifsetflag=1;
 1385              		.loc 1 120 21 is_stmt 1 view .LVU398
 1386 0066 2046     		mov	r0, r4
 1387 0068 FFF7FEFF 		bl	MI_motor_LocationControl
 1388              	.LVL111:
 121:moudels/motor/MImotor/MImotor.c ****             }else if(motor_setting->close_loop_type==SPEED_LOOP&&motor_setting->ifsetflag==0)
 1389              		.loc 1 121 21 view .LVU399
 121:moudels/motor/MImotor/MImotor.c ****             }else if(motor_setting->close_loop_type==SPEED_LOOP&&motor_setting->ifsetflag==0)
 1390              		.loc 1 121 45 is_stmt 0 view .LVU400
 1391 006c 4FF07E53 		mov	r3, #1065353216
 1392 0070 6362     		str	r3, [r4, #36]	@ float
 1393 0072 CDE7     		b	.L72
 1394              	.L84:
 124:moudels/motor/MImotor/MImotor.c ****                     motor_setting->ifsetflag=1;
 1395              		.loc 1 124 21 is_stmt 1 view .LVU401
 1396 0074 2046     		mov	r0, r4
 1397 0076 FFF7FEFF 		bl	MI_motor_SpeedControl
 1398              	.LVL112:
 125:moudels/motor/MImotor/MImotor.c ****             }else if(motor_setting->close_loop_type==CURRENT_LOOP&&motor_setting->ifsetflag==0)
 1399              		.loc 1 125 21 view .LVU402
 125:moudels/motor/MImotor/MImotor.c ****             }else if(motor_setting->close_loop_type==CURRENT_LOOP&&motor_setting->ifsetflag==0)
 1400              		.loc 1 125 45 is_stmt 0 view .LVU403
 1401 007a 4FF07E53 		mov	r3, #1065353216
 1402 007e 6362     		str	r3, [r4, #36]	@ float
 1403 0080 C6E7     		b	.L72
 1404              	.L80:
 132:moudels/motor/MImotor/MImotor.c ****             if((motor_setting->close_loop_type==ANGLE_LOOP)){
 1405              		.loc 1 132 61 discriminator 1 view .LVU404
 1406 0082 94ED097A 		vldr.32	s14, [r4, #36]
 132:moudels/motor/MImotor/MImotor.c ****             if((motor_setting->close_loop_type==ANGLE_LOOP)){
 1407              		.loc 1 132 46 discriminator 1 view .LVU405
 1408 0086 F7EE007A 		vmov.f32	s15, #1.0e+0
 1409 008a B4EE677A 		vcmp.f32	s14, s15
 1410 008e F1EE10FA 		vmrs	APSR_nzcv, FPSCR
 1411 0092 C1D1     		bne	.L75
 133:moudels/motor/MImotor/MImotor.c ****                     MI_motor_Modeset(motor,ref,0x7016);
 1412              		.loc 1 133 13 is_stmt 1 view .LVU406
 133:moudels/motor/MImotor/MImotor.c ****                     MI_motor_Modeset(motor,ref,0x7016);
 1413              		.loc 1 133 30 is_stmt 0 view .LVU407
 1414 0094 637F     		ldrb	r3, [r4, #29]	@ zero_extendqisi2
 133:moudels/motor/MImotor/MImotor.c ****                     MI_motor_Modeset(motor,ref,0x7016);
 1415              		.loc 1 133 15 view .LVU408
 1416 0096 042B     		cmp	r3, #4
 1417 0098 0CD0     		beq	.L85
 135:moudels/motor/MImotor/MImotor.c ****                     MI_motor_Modeset(motor,ref,0x700A);
 1418              		.loc 1 135 19 is_stmt 1 view .LVU409
 135:moudels/motor/MImotor/MImotor.c ****                     MI_motor_Modeset(motor,ref,0x700A);
 1419              		.loc 1 135 21 is_stmt 0 view .LVU410
 1420 009a 022B     		cmp	r3, #2
 1421 009c 13D0     		beq	.L86
 137:moudels/motor/MImotor/MImotor.c ****                     MI_motor_Modeset(motor,ref,0x7006);
 1422              		.loc 1 137 19 is_stmt 1 view .LVU411
 137:moudels/motor/MImotor/MImotor.c ****                     MI_motor_Modeset(motor,ref,0x7006);
ARM GAS  C:\Users\Sive\AppData\Local\Temp\ccX6Z0WA.s 			page 39


 1423              		.loc 1 137 21 is_stmt 0 view .LVU412
 1424 009e 012B     		cmp	r3, #1
 1425 00a0 BAD1     		bne	.L75
 138:moudels/motor/MImotor/MImotor.c ****             }
 1426              		.loc 1 138 21 is_stmt 1 view .LVU413
 1427 00a2 47F20601 		movw	r1, #28678
 1428 00a6 0F4B     		ldr	r3, .L87+8
 1429 00a8 93ED000A 		vldr.32	s0, [r3]
 1430 00ac 2046     		mov	r0, r4
 1431 00ae FFF7FEFF 		bl	MI_motor_Modeset
 1432              	.LVL113:
 1433 00b2 B1E7     		b	.L75
 1434              	.L85:
 134:moudels/motor/MImotor/MImotor.c ****             }else if(motor_setting->close_loop_type==SPEED_LOOP){
 1435              		.loc 1 134 21 view .LVU414
 1436 00b4 47F21601 		movw	r1, #28694
 1437 00b8 0A4B     		ldr	r3, .L87+8
 1438 00ba 93ED000A 		vldr.32	s0, [r3]
 1439 00be 2046     		mov	r0, r4
 1440 00c0 FFF7FEFF 		bl	MI_motor_Modeset
 1441              	.LVL114:
 1442 00c4 A8E7     		b	.L75
 1443              	.L86:
 136:moudels/motor/MImotor/MImotor.c ****             }else if(motor_setting->close_loop_type==CURRENT_LOOP){
 1444              		.loc 1 136 21 view .LVU415
 1445 00c6 47F20A01 		movw	r1, #28682
 1446 00ca 064B     		ldr	r3, .L87+8
 1447 00cc 93ED000A 		vldr.32	s0, [r3]
 1448 00d0 2046     		mov	r0, r4
 1449 00d2 FFF7FEFF 		bl	MI_motor_Modeset
 1450              	.LVL115:
 1451 00d6 9FE7     		b	.L75
 1452              	.LVL116:
 1453              	.L81:
 136:moudels/motor/MImotor/MImotor.c ****             }else if(motor_setting->close_loop_type==CURRENT_LOOP){
 1454              		.loc 1 136 21 is_stmt 0 view .LVU416
 1455              	.LBE9:
 143:moudels/motor/MImotor/MImotor.c **** void MIMotorStop(MIMotorInstance *motor)
 1456              		.loc 1 143 1 view .LVU417
 1457 00d8 38BD     		pop	{r3, r4, r5, pc}
 1458              	.LVL117:
 1459              	.L88:
 143:moudels/motor/MImotor/MImotor.c **** void MIMotorStop(MIMotorInstance *motor)
 1460              		.loc 1 143 1 view .LVU418
 1461 00da 00BF     		.align	2
 1462              	.L87:
 1463 00dc 00000000 		.word	idx
 1464 00e0 00000000 		.word	mi_motor_instance
 1465 00e4 00000000 		.word	ref.4
 1466              		.cfi_endproc
 1467              	.LFE141:
 1469              		.section	.bss.EXT.0,"aw",%nobits
 1470              		.align	2
 1473              	EXT.0:
 1474 0000 00000000 		.space	4
 1475              		.section	.bss.EXT.1,"aw",%nobits
 1476              		.align	2
ARM GAS  C:\Users\Sive\AppData\Local\Temp\ccX6Z0WA.s 			page 40


 1479              	EXT.1:
 1480 0000 00000000 		.space	4
 1481              		.section	.bss.EXT.2,"aw",%nobits
 1482              		.align	2
 1485              	EXT.2:
 1486 0000 00000000 		.space	4
 1487              		.section	.bss.EXT.3,"aw",%nobits
 1488              		.align	2
 1491              	EXT.3:
 1492 0000 00000000 		.space	4
 1493              		.section	.bss.ref.4,"aw",%nobits
 1494              		.align	2
 1497              	ref.4:
 1498 0000 00000000 		.space	4
 1499              		.global	MI_MASTERID
 1500              		.section	.bss.MI_MASTERID,"aw",%nobits
 1503              	MI_MASTERID:
 1504 0000 00       		.space	1
 1505              		.section	.bss.mi_motor_instance,"aw",%nobits
 1506              		.align	2
 1509              	mi_motor_instance:
 1510 0000 00000000 		.space	32
 1510      00000000 
 1510      00000000 
 1510      00000000 
 1510      00000000 
 1511              		.section	.bss.idx,"aw",%nobits
 1514              	idx:
 1515 0000 00       		.space	1
 1516              		.text
 1517              	.Letext0:
 1518              		.file 2 "C:/Users/Sive/AppData/Roaming/Code/User/globalStorage/bmd.stm32-for-vscode/@xpack-dev-too
 1519              		.file 3 "C:/Users/Sive/AppData/Roaming/Code/User/globalStorage/bmd.stm32-for-vscode/@xpack-dev-too
 1520              		.file 4 "Drivers/CMSIS/Device/ST/STM32F4xx/Include/stm32f407xx.h"
 1521              		.file 5 "Drivers/CMSIS/Device/ST/STM32F4xx/Include/stm32f4xx.h"
 1522              		.file 6 "C:/Users/Sive/AppData/Roaming/Code/User/globalStorage/bmd.stm32-for-vscode/@xpack-dev-too
 1523              		.file 7 "Drivers/STM32F4xx_HAL_Driver/Inc/stm32f4xx_hal_can.h"
 1524              		.file 8 "bsp/can/bsp_can.h"
 1525              		.file 9 "moudels/algorithm/controller.h"
 1526              		.file 10 "moudels/motor/motor_def.h"
 1527              		.file 11 "moudels/daemon/daemon.h"
 1528              		.file 12 "moudels/motor/MImotor/MImotor.h"
 1529              		.file 13 "Core/Inc/can.h"
 1530              		.file 14 "bsp/dwt/bsp_dwt.h"
 1531              		.file 15 "C:/Users/Sive/AppData/Roaming/Code/User/globalStorage/bmd.stm32-for-vscode/@xpack-dev-to
 1532              		.file 16 "C:/Users/Sive/AppData/Roaming/Code/User/globalStorage/bmd.stm32-for-vscode/@xpack-dev-to
 1533              		.file 17 "<built-in>"
ARM GAS  C:\Users\Sive\AppData\Local\Temp\ccX6Z0WA.s 			page 41

