ARM GAS  C:\Users\Sive\AppData\Local\Temp\ccL61uHX.s 			page 1


   1              		.cpu cortex-m4
   2              		.arch armv7e-m
   3              		.fpu fpv4-sp-d16
   4              		.eabi_attribute 27, 1
   5              		.eabi_attribute 28, 1
   6              		.eabi_attribute 20, 1
   7              		.eabi_attribute 21, 1
   8              		.eabi_attribute 23, 3
   9              		.eabi_attribute 24, 1
  10              		.eabi_attribute 25, 1
  11              		.eabi_attribute 26, 1
  12              		.eabi_attribute 30, 1
  13              		.eabi_attribute 34, 1
  14              		.eabi_attribute 18, 4
  15              		.file	"remote_control.c"
  16              		.text
  17              	.Ltext0:
  18              		.cfi_sections	.debug_frame
  19              		.file 1 "moudels/remote/remote_control.c"
  20              		.global	__aeabi_i2d
  21              		.global	__aeabi_dmul
  22              		.global	__aeabi_dadd
  23              		.global	__aeabi_d2iz
  24              		.section	.text.RectifyRCjoystick,"ax",%progbits
  25              		.align	1
  26              		.syntax unified
  27              		.thumb
  28              		.thumb_func
  30              	RectifyRCjoystick:
  31              	.LFB137:
   1:moudels/remote/remote_control.c **** #include "remote_control.h"
   2:moudels/remote/remote_control.c **** #include "string.h"
   3:moudels/remote/remote_control.c **** #include "bsp_usart.h"
   4:moudels/remote/remote_control.c **** #include "memory.h"
   5:moudels/remote/remote_control.c **** #include "stdlib.h"
   6:moudels/remote/remote_control.c **** #include "daemon.h"
   7:moudels/remote/remote_control.c **** #include "bsp_log.h"
   8:moudels/remote/remote_control.c **** 
   9:moudels/remote/remote_control.c **** #define REMOTE_CONTROL_FRAME_SIZE 25 // ÈÅ•ÊéßÂô®Êé•Êî∂ÁöÑbufferÂ§ßÂ∞è
  10:moudels/remote/remote_control.c **** 
  11:moudels/remote/remote_control.c **** // ÈÅ•ÊéßÂô®Êï∞ÊçÆ
  12:moudels/remote/remote_control.c **** static RC_ctrl_t rc_ctrl[2];     //[0]:ÂΩìÂâçÊï∞ÊçÆTEMP,[1]:‰∏ä‰∏ÄÊ¨°ÁöÑÊï∞ÊçÆLAST.Áî®‰∫éÊåâÈîÆÊåÅÁ
  13:moudels/remote/remote_control.c **** static uint8_t rc_init_flag = 0; // ÈÅ•ÊéßÂô®ÂàùÂßãÂåñÊ†áÂøó‰Ωç
  14:moudels/remote/remote_control.c ****   
  15:moudels/remote/remote_control.c **** // ÈÅ•ÊéßÂô®Êã•ÊúâÁöÑ‰∏≤Âè£ÂÆû‰æã,Âõ†‰∏∫ÈÅ•ÊéßÂô®ÊòØÂçï‰æã,ÊâÄ‰ª•ËøôÈáåÂè™Êúâ‰∏Ä‰∏™,Â∞±‰∏çÂ∞ÅË£Ö‰∫Ü
  16:moudels/remote/remote_control.c **** static USARTInstance *rc_usart_instance;
  17:moudels/remote/remote_control.c **** static DaemonInstance *rc_daemon_instance;
  18:moudels/remote/remote_control.c **** static  uint16_t ch[16];
  19:moudels/remote/remote_control.c **** /**  
  20:moudels/remote/remote_control.c ****  * @brief Áü´Ê≠£ÈÅ•ÊéßÂô®ÊëáÊùÜÁöÑÂÄº,Ë∂ÖËøá660ÊàñËÄÖÂ∞è‰∫é-660ÁöÑÂÄºÈÉΩËÆ§‰∏∫ÊòØÊó†ÊïàÂÄº,ÁΩÆ0
  21:moudels/remote/remote_control.c ****  *
  22:moudels/remote/remote_control.c ****  */
  23:moudels/remote/remote_control.c **** static void RectifyRCjoystick()
  24:moudels/remote/remote_control.c **** {
  32              		.loc 1 24 1 view -0
  33              		.cfi_startproc
  34              		@ args = 0, pretend = 0, frame = 0
ARM GAS  C:\Users\Sive\AppData\Local\Temp\ccL61uHX.s 			page 2


  35              		@ frame_needed = 0, uses_anonymous_args = 0
  36 0000 F8B5     		push	{r3, r4, r5, r6, r7, lr}
  37              		.cfi_def_cfa_offset 24
  38              		.cfi_offset 3, -24
  39              		.cfi_offset 4, -20
  40              		.cfi_offset 5, -16
  41              		.cfi_offset 6, -12
  42              		.cfi_offset 7, -8
  43              		.cfi_offset 14, -4
  25:moudels/remote/remote_control.c ****     for (uint8_t i = 0; i < 5; ++i)
  44              		.loc 1 25 5 view .LVU1
  45              	.LBB2:
  46              		.loc 1 25 10 view .LVU2
  47              	.LVL0:
  48              		.loc 1 25 18 is_stmt 0 view .LVU3
  49 0002 0024     		movs	r4, #0
  50              		.loc 1 25 5 view .LVU4
  51 0004 22E0     		b	.L2
  52              	.LVL1:
  53              	.L3:
  26:moudels/remote/remote_control.c ****             *(&rc_ctrl[TEMP].rc.rocker_l_ + i) =  0.6*(*(&rc_ctrl[TEMP].rc.rocker_l_ + i))+0.4*(*(&
  54              		.loc 1 26 13 is_stmt 1 view .LVU5
  55              		.loc 1 26 86 is_stmt 0 view .LVU6
  56 0006 184D     		ldr	r5, .L5+16
  57              		.loc 1 26 54 view .LVU7
  58 0008 35F91400 		ldrsh	r0, [r5, r4, lsl #1]
  59 000c FFF7FEFF 		bl	__aeabi_i2d
  60              	.LVL2:
  61 0010 11A3     		adr	r3, .L5
  62 0012 D3E90023 		ldrd	r2, [r3]
  63 0016 FFF7FEFF 		bl	__aeabi_dmul
  64              	.LVL3:
  65 001a 0646     		mov	r6, r0
  66 001c 0F46     		mov	r7, r1
  67              		.loc 1 26 127 view .LVU8
  68 001e 05F11803 		add	r3, r5, #24
  69              		.loc 1 26 95 view .LVU9
  70 0022 33F91400 		ldrsh	r0, [r3, r4, lsl #1]
  71 0026 FFF7FEFF 		bl	__aeabi_i2d
  72              	.LVL4:
  73 002a 0DA3     		adr	r3, .L5+8
  74 002c D3E90023 		ldrd	r2, [r3]
  75 0030 FFF7FEFF 		bl	__aeabi_dmul
  76              	.LVL5:
  77 0034 0246     		mov	r2, r0
  78 0036 0B46     		mov	r3, r1
  79              		.loc 1 26 91 view .LVU10
  80 0038 3046     		mov	r0, r6
  81 003a 3946     		mov	r1, r7
  82 003c FFF7FEFF 		bl	__aeabi_dadd
  83              	.LVL6:
  84              		.loc 1 26 48 view .LVU11
  85 0040 FFF7FEFF 		bl	__aeabi_d2iz
  86              	.LVL7:
  87 0044 25F81400 		strh	r0, [r5, r4, lsl #1]	@ movhi
  25:moudels/remote/remote_control.c ****     for (uint8_t i = 0; i < 5; ++i)
  88              		.loc 1 25 32 is_stmt 1 discriminator 3 view .LVU12
ARM GAS  C:\Users\Sive\AppData\Local\Temp\ccL61uHX.s 			page 3


  89 0048 0134     		adds	r4, r4, #1
  90              	.LVL8:
  25:moudels/remote/remote_control.c ****     for (uint8_t i = 0; i < 5; ++i)
  91              		.loc 1 25 32 is_stmt 0 discriminator 3 view .LVU13
  92 004a E4B2     		uxtb	r4, r4
  93              	.LVL9:
  94              	.L2:
  25:moudels/remote/remote_control.c ****     for (uint8_t i = 0; i < 5; ++i)
  95              		.loc 1 25 27 is_stmt 1 discriminator 1 view .LVU14
  96 004c 042C     		cmp	r4, #4
  97 004e DAD9     		bls	.L3
  98              	.LBE2:
  27:moudels/remote/remote_control.c **** }
  99              		.loc 1 27 1 is_stmt 0 view .LVU15
 100 0050 F8BD     		pop	{r3, r4, r5, r6, r7, pc}
 101              	.LVL10:
 102              	.L6:
 103              		.loc 1 27 1 view .LVU16
 104 0052 00BFAFF3 		.align	3
 104      0080
 105              	.L5:
 106 0058 33333333 		.word	858993459
 107 005c 3333E33F 		.word	1071854387
 108 0060 9A999999 		.word	-1717986918
 109 0064 9999D93F 		.word	1071225241
 110 0068 00000000 		.word	rc_ctrl
 111              		.cfi_endproc
 112              	.LFE137:
 114              		.section	.text.sbus_to_rc,"ax",%progbits
 115              		.align	1
 116              		.syntax unified
 117              		.thumb
 118              		.thumb_func
 120              	sbus_to_rc:
 121              	.LVL11:
 122              	.LFB138:
  28:moudels/remote/remote_control.c **** 
  29:moudels/remote/remote_control.c **** /**
  30:moudels/remote/remote_control.c ****  * @brief ÈÅ•ÊéßÂô®Êï∞ÊçÆËß£Êûê
  31:moudels/remote/remote_control.c ****  *
  32:moudels/remote/remote_control.c ****  * @param sbus_rx_buf Êé•Êî∂buffer
  33:moudels/remote/remote_control.c ****  */
  34:moudels/remote/remote_control.c **** 
  35:moudels/remote/remote_control.c **** static void sbus_to_rc(const uint8_t *sbus_rx_buf)
  36:moudels/remote/remote_control.c **** {   
 123              		.loc 1 36 1 is_stmt 1 view -0
 124              		.cfi_startproc
 125              		@ args = 0, pretend = 0, frame = 16
 126              		@ frame_needed = 0, uses_anonymous_args = 0
 127              		.loc 1 36 1 is_stmt 0 view .LVU18
 128 0000 2DE9F04F 		push	{r4, r5, r6, r7, r8, r9, r10, fp, lr}
 129              		.cfi_def_cfa_offset 36
 130              		.cfi_offset 4, -36
 131              		.cfi_offset 5, -32
 132              		.cfi_offset 6, -28
 133              		.cfi_offset 7, -24
 134              		.cfi_offset 8, -20
ARM GAS  C:\Users\Sive\AppData\Local\Temp\ccL61uHX.s 			page 4


 135              		.cfi_offset 9, -16
 136              		.cfi_offset 10, -12
 137              		.cfi_offset 11, -8
 138              		.cfi_offset 14, -4
 139 0004 85B0     		sub	sp, sp, #20
 140              		.cfi_def_cfa_offset 56
  37:moudels/remote/remote_control.c ****     ch[0] =((sbus_rx_buf[2]<<8)   + (sbus_rx_buf[1])) & 0x07ff;
 141              		.loc 1 37 5 is_stmt 1 view .LVU19
 142              		.loc 1 37 25 is_stmt 0 view .LVU20
 143 0006 8478     		ldrb	r4, [r0, #2]	@ zero_extendqisi2
 144              		.loc 1 37 49 view .LVU21
 145 0008 90F80180 		ldrb	r8, [r0, #1]	@ zero_extendqisi2
 146              		.loc 1 37 35 view .LVU22
 147 000c 08EB0428 		add	r8, r8, r4, lsl #8
 148              		.loc 1 37 55 view .LVU23
 149 0010 C8F30A08 		ubfx	r8, r8, #0, #11
 150              		.loc 1 37 11 view .LVU24
 151 0014 614B     		ldr	r3, .L9
 152 0016 A3F80080 		strh	r8, [r3]	@ movhi
  38:moudels/remote/remote_control.c ****     ch[1] =((sbus_rx_buf[3]<<5)   + (sbus_rx_buf[2]>>3)) & 0x07ff;
 153              		.loc 1 38 5 is_stmt 1 view .LVU25
 154              		.loc 1 38 25 is_stmt 0 view .LVU26
 155 001a C178     		ldrb	r1, [r0, #3]	@ zero_extendqisi2
 156              		.loc 1 38 58 view .LVU27
 157 001c E408     		lsrs	r4, r4, #3
 158              		.loc 1 38 35 view .LVU28
 159 001e 04EB4114 		add	r4, r4, r1, lsl #5
 160              		.loc 1 38 58 view .LVU29
 161 0022 C4F30A02 		ubfx	r2, r4, #0, #11
 162              		.loc 1 38 11 view .LVU30
 163 0026 0092     		str	r2, [sp]
 164 0028 5A80     		strh	r2, [r3, #2]	@ movhi
  39:moudels/remote/remote_control.c ****     ch[2] =((sbus_rx_buf[5]<<10)  + (sbus_rx_buf[4]<<2) + (sbus_rx_buf[3]>>6)) & 0x07ff;
 165              		.loc 1 39 5 is_stmt 1 view .LVU31
 166              		.loc 1 39 25 is_stmt 0 view .LVU32
 167 002a 90F805C0 		ldrb	ip, [r0, #5]	@ zero_extendqisi2
 168              		.loc 1 39 28 view .LVU33
 169 002e 4FEA8C22 		lsl	r2, ip, #10
 170 0032 92B2     		uxth	r2, r2
 171              		.loc 1 39 49 view .LVU34
 172 0034 0579     		ldrb	r5, [r0, #4]	@ zero_extendqisi2
 173              		.loc 1 39 35 view .LVU35
 174 0036 02EB8502 		add	r2, r2, r5, lsl #2
 175 003a 92B2     		uxth	r2, r2
 176              		.loc 1 39 57 view .LVU36
 177 003c 02EB9112 		add	r2, r2, r1, lsr #6
 178              		.loc 1 39 80 view .LVU37
 179 0040 C2F30A02 		ubfx	r2, r2, #0, #11
 180              		.loc 1 39 11 view .LVU38
 181 0044 9A80     		strh	r2, [r3, #4]	@ movhi
  40:moudels/remote/remote_control.c ****     ch[3] =((sbus_rx_buf[6]<<7)   + (sbus_rx_buf[5]>>1)) & 0x07ff;
 182              		.loc 1 40 5 is_stmt 1 view .LVU39
 183              		.loc 1 40 25 is_stmt 0 view .LVU40
 184 0046 8179     		ldrb	r1, [r0, #6]	@ zero_extendqisi2
 185              		.loc 1 40 58 view .LVU41
 186 0048 4FEA5C0C 		lsr	ip, ip, #1
 187              		.loc 1 40 35 view .LVU42
ARM GAS  C:\Users\Sive\AppData\Local\Temp\ccL61uHX.s 			page 5


 188 004c 0CEBC11C 		add	ip, ip, r1, lsl #7
 189              		.loc 1 40 58 view .LVU43
 190 0050 CCF30A0C 		ubfx	ip, ip, #0, #11
 191              		.loc 1 40 11 view .LVU44
 192 0054 A3F806C0 		strh	ip, [r3, #6]	@ movhi
  41:moudels/remote/remote_control.c ****     ch[4] =((sbus_rx_buf[7]<<4)   + (sbus_rx_buf[6]>>4)) & 0x07ff;
 193              		.loc 1 41 5 is_stmt 1 view .LVU45
 194              		.loc 1 41 25 is_stmt 0 view .LVU46
 195 0058 C679     		ldrb	r6, [r0, #7]	@ zero_extendqisi2
 196              		.loc 1 41 58 view .LVU47
 197 005a 0909     		lsrs	r1, r1, #4
 198              		.loc 1 41 35 view .LVU48
 199 005c 01EB0611 		add	r1, r1, r6, lsl #4
 200              		.loc 1 41 58 view .LVU49
 201 0060 C1F30A01 		ubfx	r1, r1, #0, #11
 202              		.loc 1 41 11 view .LVU50
 203 0064 0191     		str	r1, [sp, #4]
 204 0066 1981     		strh	r1, [r3, #8]	@ movhi
  42:moudels/remote/remote_control.c ****     ch[5] =((sbus_rx_buf[9]<<9)   + (sbus_rx_buf[8]<<1) + (sbus_rx_buf[7]>>7)) & 0x07ff;
 205              		.loc 1 42 5 is_stmt 1 view .LVU51
 206              		.loc 1 42 25 is_stmt 0 view .LVU52
 207 0068 457A     		ldrb	r5, [r0, #9]	@ zero_extendqisi2
 208              		.loc 1 42 28 view .LVU53
 209 006a 6902     		lsls	r1, r5, #9
 210 006c 89B2     		uxth	r1, r1
 211              		.loc 1 42 49 view .LVU54
 212 006e 077A     		ldrb	r7, [r0, #8]	@ zero_extendqisi2
 213              		.loc 1 42 35 view .LVU55
 214 0070 01EB4701 		add	r1, r1, r7, lsl #1
 215 0074 89B2     		uxth	r1, r1
 216              		.loc 1 42 57 view .LVU56
 217 0076 01EBD611 		add	r1, r1, r6, lsr #7
 218              		.loc 1 42 80 view .LVU57
 219 007a C1F30A06 		ubfx	r6, r1, #0, #11
 220              		.loc 1 42 11 view .LVU58
 221 007e 0296     		str	r6, [sp, #8]
 222 0080 5E81     		strh	r6, [r3, #10]	@ movhi
  43:moudels/remote/remote_control.c ****     ch[6] =((sbus_rx_buf[10]<<6)  + (sbus_rx_buf[9]>>2)) & 0x07ff;
 223              		.loc 1 43 5 is_stmt 1 view .LVU59
 224              		.loc 1 43 25 is_stmt 0 view .LVU60
 225 0082 817A     		ldrb	r1, [r0, #10]	@ zero_extendqisi2
 226              		.loc 1 43 58 view .LVU61
 227 0084 AD08     		lsrs	r5, r5, #2
 228              		.loc 1 43 35 view .LVU62
 229 0086 05EB8115 		add	r5, r5, r1, lsl #6
 230              		.loc 1 43 58 view .LVU63
 231 008a C5F30A05 		ubfx	r5, r5, #0, #11
 232              		.loc 1 43 11 view .LVU64
 233 008e 0395     		str	r5, [sp, #12]
 234 0090 9D81     		strh	r5, [r3, #12]	@ movhi
  44:moudels/remote/remote_control.c ****     ch[7] =((sbus_rx_buf[11]<<3)  + (sbus_rx_buf[10]>>5)) & 0x07ff;
 235              		.loc 1 44 5 is_stmt 1 view .LVU65
 236              		.loc 1 44 25 is_stmt 0 view .LVU66
 237 0092 C57A     		ldrb	r5, [r0, #11]	@ zero_extendqisi2
 238              		.loc 1 44 59 view .LVU67
 239 0094 4909     		lsrs	r1, r1, #5
 240              		.loc 1 44 35 view .LVU68
ARM GAS  C:\Users\Sive\AppData\Local\Temp\ccL61uHX.s 			page 6


 241 0096 01EBC501 		add	r1, r1, r5, lsl #3
 242              		.loc 1 44 59 view .LVU69
 243 009a C1F30A0B 		ubfx	fp, r1, #0, #11
 244              		.loc 1 44 11 view .LVU70
 245 009e A3F80EB0 		strh	fp, [r3, #14]	@ movhi
  45:moudels/remote/remote_control.c ****     ch[8] =((sbus_rx_buf[13]<<8)  + (sbus_rx_buf[12])) & 0x07ff;
 246              		.loc 1 45 5 is_stmt 1 view .LVU71
 247              		.loc 1 45 25 is_stmt 0 view .LVU72
 248 00a2 467B     		ldrb	r6, [r0, #13]	@ zero_extendqisi2
 249              		.loc 1 45 49 view .LVU73
 250 00a4 077B     		ldrb	r7, [r0, #12]	@ zero_extendqisi2
 251              		.loc 1 45 35 view .LVU74
 252 00a6 07EB0627 		add	r7, r7, r6, lsl #8
 253              		.loc 1 45 56 view .LVU75
 254 00aa C7F30A07 		ubfx	r7, r7, #0, #11
 255              		.loc 1 45 11 view .LVU76
 256 00ae 1F82     		strh	r7, [r3, #16]	@ movhi
  46:moudels/remote/remote_control.c ****     ch[9] =((sbus_rx_buf[14]<<5)  + (sbus_rx_buf[13]>>3)) & 0x07ff;
 257              		.loc 1 46 5 is_stmt 1 view .LVU77
 258              		.loc 1 46 25 is_stmt 0 view .LVU78
 259 00b0 90F80EE0 		ldrb	lr, [r0, #14]	@ zero_extendqisi2
 260              		.loc 1 46 59 view .LVU79
 261 00b4 F608     		lsrs	r6, r6, #3
 262              		.loc 1 46 35 view .LVU80
 263 00b6 06EB4E16 		add	r6, r6, lr, lsl #5
 264              		.loc 1 46 59 view .LVU81
 265 00ba C6F30A06 		ubfx	r6, r6, #0, #11
 266              		.loc 1 46 11 view .LVU82
 267 00be 5E82     		strh	r6, [r3, #18]	@ movhi
  47:moudels/remote/remote_control.c ****     ch[10]=((sbus_rx_buf[16]<<10) + (sbus_rx_buf[15]<<2) + (sbus_rx_buf[14]>>6)) & 0x07ff;
 268              		.loc 1 47 5 is_stmt 1 view .LVU83
 269              		.loc 1 47 25 is_stmt 0 view .LVU84
 270 00c0 057C     		ldrb	r5, [r0, #16]	@ zero_extendqisi2
 271              		.loc 1 47 29 view .LVU85
 272 00c2 A902     		lsls	r1, r5, #10
 273 00c4 89B2     		uxth	r1, r1
 274              		.loc 1 47 49 view .LVU86
 275 00c6 90F80F90 		ldrb	r9, [r0, #15]	@ zero_extendqisi2
 276              		.loc 1 47 35 view .LVU87
 277 00ca 01EB8901 		add	r1, r1, r9, lsl #2
 278 00ce 89B2     		uxth	r1, r1
 279              		.loc 1 47 58 view .LVU88
 280 00d0 01EB9E11 		add	r1, r1, lr, lsr #6
 281              		.loc 1 47 82 view .LVU89
 282 00d4 C1F30A01 		ubfx	r1, r1, #0, #11
 283              		.loc 1 47 11 view .LVU90
 284 00d8 9982     		strh	r1, [r3, #20]	@ movhi
  48:moudels/remote/remote_control.c ****     ch[11]=((sbus_rx_buf[17]<<7)  + (sbus_rx_buf[16]>>1)) & 0x07ff;
 285              		.loc 1 48 5 is_stmt 1 view .LVU91
 286              		.loc 1 48 25 is_stmt 0 view .LVU92
 287 00da 90F811E0 		ldrb	lr, [r0, #17]	@ zero_extendqisi2
 288              		.loc 1 48 59 view .LVU93
 289 00de 6D08     		lsrs	r5, r5, #1
 290              		.loc 1 48 35 view .LVU94
 291 00e0 05EBCE15 		add	r5, r5, lr, lsl #7
 292              		.loc 1 48 59 view .LVU95
 293 00e4 C5F30A05 		ubfx	r5, r5, #0, #11
ARM GAS  C:\Users\Sive\AppData\Local\Temp\ccL61uHX.s 			page 7


 294              		.loc 1 48 11 view .LVU96
 295 00e8 DD82     		strh	r5, [r3, #22]	@ movhi
  49:moudels/remote/remote_control.c ****     ch[12]=((sbus_rx_buf[18]<<4)  + (sbus_rx_buf[17]>>4)) & 0x07ff;
 296              		.loc 1 49 5 is_stmt 1 view .LVU97
 297              		.loc 1 49 25 is_stmt 0 view .LVU98
 298 00ea 90F812A0 		ldrb	r10, [r0, #18]	@ zero_extendqisi2
 299              		.loc 1 49 59 view .LVU99
 300 00ee 4FEA1E1E 		lsr	lr, lr, #4
 301              		.loc 1 49 35 view .LVU100
 302 00f2 0EEB0A1E 		add	lr, lr, r10, lsl #4
 303              		.loc 1 49 59 view .LVU101
 304 00f6 CEF30A0E 		ubfx	lr, lr, #0, #11
 305              		.loc 1 49 11 view .LVU102
 306 00fa A3F818E0 		strh	lr, [r3, #24]	@ movhi
  50:moudels/remote/remote_control.c ****     ch[13]=((sbus_rx_buf[20]<<9)  + (sbus_rx_buf[19]<<1) + (sbus_rx_buf[18]>>7)) & 0x07ff;
 307              		.loc 1 50 5 is_stmt 1 view .LVU103
 308              		.loc 1 50 25 is_stmt 0 view .LVU104
 309 00fe 90F81490 		ldrb	r9, [r0, #20]	@ zero_extendqisi2
 310              		.loc 1 50 29 view .LVU105
 311 0102 4FEA492E 		lsl	lr, r9, #9
 312 0106 1FFA8EFE 		uxth	lr, lr
 313              		.loc 1 50 49 view .LVU106
 314 010a C47C     		ldrb	r4, [r0, #19]	@ zero_extendqisi2
 315              		.loc 1 50 35 view .LVU107
 316 010c 0EEB440E 		add	lr, lr, r4, lsl #1
 317 0110 1FFA8EFE 		uxth	lr, lr
 318              		.loc 1 50 58 view .LVU108
 319 0114 0EEBDA1E 		add	lr, lr, r10, lsr #7
 320              		.loc 1 50 82 view .LVU109
 321 0118 CEF30A0E 		ubfx	lr, lr, #0, #11
 322              		.loc 1 50 11 view .LVU110
 323 011c A3F81AE0 		strh	lr, [r3, #26]	@ movhi
  51:moudels/remote/remote_control.c ****     ch[14]=((sbus_rx_buf[21]<<6)  + (sbus_rx_buf[20]>>2)) & 0x07ff;
 324              		.loc 1 51 5 is_stmt 1 view .LVU111
 325              		.loc 1 51 25 is_stmt 0 view .LVU112
 326 0120 90F815E0 		ldrb	lr, [r0, #21]	@ zero_extendqisi2
 327              		.loc 1 51 59 view .LVU113
 328 0124 4FEA9909 		lsr	r9, r9, #2
 329              		.loc 1 51 35 view .LVU114
 330 0128 09EB8E19 		add	r9, r9, lr, lsl #6
 331              		.loc 1 51 59 view .LVU115
 332 012c C9F30A09 		ubfx	r9, r9, #0, #11
 333              		.loc 1 51 11 view .LVU116
 334 0130 A3F81C90 		strh	r9, [r3, #28]	@ movhi
  52:moudels/remote/remote_control.c ****     ch[15]=((sbus_rx_buf[22]<<3)  + (sbus_rx_buf[21]>>5)) & 0x07ff;
 335              		.loc 1 52 5 is_stmt 1 view .LVU117
 336              		.loc 1 52 25 is_stmt 0 view .LVU118
 337 0134 807D     		ldrb	r0, [r0, #22]	@ zero_extendqisi2
 338              	.LVL12:
 339              		.loc 1 52 59 view .LVU119
 340 0136 4FEA5E1E 		lsr	lr, lr, #5
 341              		.loc 1 52 35 view .LVU120
 342 013a 0EEBC00E 		add	lr, lr, r0, lsl #3
 343              		.loc 1 52 59 view .LVU121
 344 013e CEF30A0E 		ubfx	lr, lr, #0, #11
 345              		.loc 1 52 11 view .LVU122
 346 0142 A3F81EE0 		strh	lr, [r3, #30]	@ movhi
ARM GAS  C:\Users\Sive\AppData\Local\Temp\ccL61uHX.s 			page 8


  53:moudels/remote/remote_control.c ****      
  54:moudels/remote/remote_control.c ****     // ÊëáÊùÜ,Áõ¥Êé•Ëß£ÁÆóÊó∂ÂáèÂéªÂÅèÁΩÆ
  55:moudels/remote/remote_control.c ****     rc_ctrl[TEMP].rc.rocker_r_ = ch[1] - RC_CH_VALUE_OFFSET;                              //!< Chan
 347              		.loc 1 55 5 is_stmt 1 view .LVU123
 348              		.loc 1 55 40 is_stmt 0 view .LVU124
 349 0146 009B     		ldr	r3, [sp]
 350 0148 A3F58063 		sub	r3, r3, #1024
 351              		.loc 1 55 32 view .LVU125
 352 014c 144C     		ldr	r4, .L9+4
 353 014e A380     		strh	r3, [r4, #4]	@ movhi
  56:moudels/remote/remote_control.c ****     rc_ctrl[TEMP].rc.rocker_r1 = ch[3]  - RC_CH_VALUE_OFFSET;                       //!< Channel 1
 354              		.loc 1 56 5 is_stmt 1 view .LVU126
 355              		.loc 1 56 41 is_stmt 0 view .LVU127
 356 0150 ACF5806C 		sub	ip, ip, #1024
 357              		.loc 1 56 32 view .LVU128
 358 0154 A4F806C0 		strh	ip, [r4, #6]	@ movhi
  57:moudels/remote/remote_control.c ****     rc_ctrl[TEMP].rc.rocker_l_ = ch[0] - RC_CH_VALUE_OFFSET; //!< Channel 2
 359              		.loc 1 57 5 is_stmt 1 view .LVU129
 360              		.loc 1 57 40 is_stmt 0 view .LVU130
 361 0158 A8F58068 		sub	r8, r8, #1024
 362              		.loc 1 57 32 view .LVU131
 363 015c A4F80080 		strh	r8, [r4]	@ movhi
  58:moudels/remote/remote_control.c ****     rc_ctrl[TEMP].rc.rocker_l1 = ch[2] - RC_CH_VALUE_OFFSET;                       //!< Channel 3
 364              		.loc 1 58 5 is_stmt 1 view .LVU132
 365              		.loc 1 58 40 is_stmt 0 view .LVU133
 366 0160 A2F58062 		sub	r2, r2, #1024
 367              		.loc 1 58 32 view .LVU134
 368 0164 6280     		strh	r2, [r4, #2]	@ movhi
  59:moudels/remote/remote_control.c ****     rc_ctrl[TEMP].rc.SE = ch[8] - RC_CH_VALUE_OFFSET;     
 369              		.loc 1 59 5 is_stmt 1 view .LVU135
 370              		.loc 1 59 33 is_stmt 0 view .LVU136
 371 0166 A7F58067 		sub	r7, r7, #1024
 372              		.loc 1 59 25 view .LVU137
 373 016a 6781     		strh	r7, [r4, #10]	@ movhi
  60:moudels/remote/remote_control.c ****     rc_ctrl[TEMP].rc.SF = ch[9] ;                               // Â∫îÊÄ•ÂºÄÂÖ≥
 374              		.loc 1 60 5 is_stmt 1 view .LVU138
 375              		.loc 1 60 25 is_stmt 0 view .LVU139
 376 016c 2681     		strh	r6, [r4, #8]	@ movhi
  61:moudels/remote/remote_control.c ****     rc_ctrl[TEMP].rc.SB = ch[5]  ;                                 // Â∫îÊÄ•ÂºÄÂÖ≥
 377              		.loc 1 61 5 is_stmt 1 view .LVU140
 378              		.loc 1 61 25 is_stmt 0 view .LVU141
 379 016e 029E     		ldr	r6, [sp, #8]
 380 0170 6682     		strh	r6, [r4, #18]	@ movhi
  62:moudels/remote/remote_control.c ****     rc_ctrl[TEMP].rc.SC = ch[6] ;
 381              		.loc 1 62 5 is_stmt 1 view .LVU142
 382              		.loc 1 62 25 is_stmt 0 view .LVU143
 383 0172 039A     		ldr	r2, [sp, #12]
 384 0174 A282     		strh	r2, [r4, #20]	@ movhi
  63:moudels/remote/remote_control.c ****     rc_ctrl[TEMP].rc.SA = ch[4]  ;     
 385              		.loc 1 63 5 is_stmt 1 view .LVU144
 386              		.loc 1 63 25 is_stmt 0 view .LVU145
 387 0176 019B     		ldr	r3, [sp, #4]
 388 0178 2382     		strh	r3, [r4, #16]	@ movhi
  64:moudels/remote/remote_control.c ****     rc_ctrl[TEMP].rc.SD = ch[7]  ;     
 389              		.loc 1 64 5 is_stmt 1 view .LVU146
 390              		.loc 1 64 25 is_stmt 0 view .LVU147
 391 017a A4F816B0 		strh	fp, [r4, #22]	@ movhi
ARM GAS  C:\Users\Sive\AppData\Local\Temp\ccL61uHX.s 			page 9


  65:moudels/remote/remote_control.c ****     rc_ctrl[TEMP].rc.SG = ch[10]  ;   
 392              		.loc 1 65 5 is_stmt 1 view .LVU148
 393              		.loc 1 65 25 is_stmt 0 view .LVU149
 394 017e E181     		strh	r1, [r4, #14]	@ movhi
  66:moudels/remote/remote_control.c ****     rc_ctrl[TEMP].rc.SH = ch[11]  ;                          // Â∫îÊÄ•ÂºÄÂÖ≥
 395              		.loc 1 66 5 is_stmt 1 view .LVU150
 396              		.loc 1 66 25 is_stmt 0 view .LVU151
 397 0180 A581     		strh	r5, [r4, #12]	@ movhi
  67:moudels/remote/remote_control.c ****     RectifyRCjoystick();
 398              		.loc 1 67 5 is_stmt 1 view .LVU152
 399 0182 FFF7FEFF 		bl	RectifyRCjoystick
 400              	.LVL13:
  68:moudels/remote/remote_control.c ****     // // ÂºÄÂÖ≥,0Â∑¶1Âè≥
  69:moudels/remote/remote_control.c ****     // rc_ctrl[TEMP].rc.switch_right = ((sbus_buf[5] >> 4) & 0x0003);     //!< Switch right
  70:moudels/remote/remote_control.c ****     // rc_ctrl[TEMP].rc.switch_left = ((sbus_buf[5] >> 4) & 0x000C) >> 2; //!< Switch left
  71:moudels/remote/remote_control.c **** 
  72:moudels/remote/remote_control.c ****     // // Èº†Ê†áËß£Êûê
  73:moudels/remote/remote_control.c ****     // rc_ctrl[TEMP].mouse.x = (sbus_buf[6] | (sbus_buf[7] << 8)); //!< Mouse X axis
  74:moudels/remote/remote_control.c ****     // rc_ctrl[TEMP].mouse.y = (sbus_buf[8] | (sbus_buf[9] << 8)); //!< Mouse Y axis
  75:moudels/remote/remote_control.c ****     // rc_ctrl[TEMP].mouse.press_l = sbus_buf[12];                 //!< Mouse Left Is Press ?
  76:moudels/remote/remote_control.c ****     // rc_ctrl[TEMP].mouse.press_r = sbus_buf[13];                 //!< Mouse Right Is Press ?
  77:moudels/remote/remote_control.c **** 
  78:moudels/remote/remote_control.c ****     // //  ‰ΩçÂüüÁöÑÊåâÈîÆÂÄºËß£ÁÆó,Áõ¥Êé•memcpyÂç≥ÂèØ,Ê≥®ÊÑèÂ∞èÁ´Ø‰ΩéÂ≠óËäÇÂú®Ââç,Âç≥lsbÂú®Á¨¨‰∏Ä‰
  79:moudels/remote/remote_control.c ****     // *(uint16_t *)&rc_ctrl[TEMP].key[KEY_PRESS] = (uint16_t)(sbus_buf[14] | (sbus_buf[15] << 8));
  80:moudels/remote/remote_control.c ****     // if (rc_ctrl[TEMP].key[KEY_PRESS].ctrl) // ctrlÈîÆÊåâ‰∏ã
  81:moudels/remote/remote_control.c ****     //     rc_ctrl[TEMP].key[KEY_PRESS_WITH_CTRL] = rc_ctrl[TEMP].key[KEY_PRESS];
  82:moudels/remote/remote_control.c ****     // else
  83:moudels/remote/remote_control.c ****     //     memset(&rc_ctrl[TEMP].key[KEY_PRESS_WITH_CTRL], 0, sizeof(Key_t));
  84:moudels/remote/remote_control.c ****     // if (rc_ctrl[TEMP].key[KEY_PRESS].shift) // shiftÈîÆÊåâ‰∏ã
  85:moudels/remote/remote_control.c ****     //     rc_ctrl[TEMP].key[KEY_PRESS_WITH_SHIFT] = rc_ctrl[TEMP].key[KEY_PRESS];
  86:moudels/remote/remote_control.c ****     // else
  87:moudels/remote/remote_control.c ****     //     memset(&rc_ctrl[TEMP].key[KEY_PRESS_WITH_SHIFT], 0, sizeof(Key_t));
  88:moudels/remote/remote_control.c **** 
  89:moudels/remote/remote_control.c ****     // uint16_t key_now = rc_ctrl[TEMP].key[KEY_PRESS].keys,                   // ÂΩìÂâçÊåâÈîÆÊòØÂê
  90:moudels/remote/remote_control.c ****     //     key_last = rc_ctrl[LAST].key[KEY_PRESS].keys,                       // ‰∏ä‰∏ÄÊ¨°ÊåâÈîÆÊò
  91:moudels/remote/remote_control.c ****     //     key_with_ctrl = rc_ctrl[TEMP].key[KEY_PRESS_WITH_CTRL].keys,        // ÂΩìÂâçctrlÁªÑÂêàÈ
  92:moudels/remote/remote_control.c ****     //     key_with_shift = rc_ctrl[TEMP].key[KEY_PRESS_WITH_SHIFT].keys,      //  ÂΩìÂâçshiftÁªÑÂê
  93:moudels/remote/remote_control.c ****     //     key_last_with_ctrl = rc_ctrl[LAST].key[KEY_PRESS_WITH_CTRL].keys,   // ‰∏ä‰∏ÄÊ¨°ctrlÁªÑÂ
  94:moudels/remote/remote_control.c ****     //     key_last_with_shift = rc_ctrl[LAST].key[KEY_PRESS_WITH_SHIFT].keys; // ‰∏ä‰∏ÄÊ¨°shiftÁªÑ
  95:moudels/remote/remote_control.c **** 
  96:moudels/remote/remote_control.c ****     // for (uint16_t i = 0, j = 0x1; i < 16; j <<= 1, i++)
  97:moudels/remote/remote_control.c ****     // {
  98:moudels/remote/remote_control.c ****     //     if (i == 4 || i == 5) // 4,5‰Ωç‰∏∫ctrlÂíåshift,Áõ¥Êé•Ë∑≥Ëøá
  99:moudels/remote/remote_control.c ****     //         continue;
 100:moudels/remote/remote_control.c ****     //     // Â¶ÇÊûúÂΩìÂâçÊåâÈîÆÊåâ‰∏ã,‰∏ä‰∏ÄÊ¨°ÊåâÈîÆÊ≤°ÊúâÊåâ‰∏ã,‰∏îctrlÂíåshiftÁªÑÂêàÈîÆÊ≤°ÊúâÊå
 101:moudels/remote/remote_control.c ****     //     if ((key_now & j) && !(key_last & j) && !(key_with_ctrl & j) && !(key_with_shift & j))
 102:moudels/remote/remote_control.c ****     //         rc_ctrl[TEMP].key_count[KEY_PRESS][i]++;
 103:moudels/remote/remote_control.c ****     //     // ÂΩìÂâçctrlÁªÑÂêàÈîÆÊåâ‰∏ã,‰∏ä‰∏ÄÊ¨°ctrlÁªÑÂêàÈîÆÊ≤°ÊúâÊåâ‰∏ã,ÂàôctrlÁªÑÂêàÈîÆÊåâ‰∏ãËÆ
 104:moudels/remote/remote_control.c ****     //     if ((key_with_ctrl & j) && !(key_last_with_ctrl & j))
 105:moudels/remote/remote_control.c ****     //         rc_ctrl[TEMP].key_count[KEY_PRESS_WITH_CTRL][i]++;
 106:moudels/remote/remote_control.c ****     //     // ÂΩìÂâçshiftÁªÑÂêàÈîÆÊåâ‰∏ã,‰∏ä‰∏ÄÊ¨°shiftÁªÑÂêàÈîÆÊ≤°ÊúâÊåâ‰∏ã,ÂàôshiftÁªÑÂêàÈîÆÊåâ‰∏
 107:moudels/remote/remote_control.c ****     //     if ((key_with_shift & j) && !(key_last_with_shift & j))
 108:moudels/remote/remote_control.c ****     //         rc_ctrl[TEMP].key_count[KEY_PRESS_WITH_SHIFT][i]++;
 109:moudels/remote/remote_control.c ****     // }
 110:moudels/remote/remote_control.c **** 
 111:moudels/remote/remote_control.c ****     memcpy(&rc_ctrl[LAST], &rc_ctrl[TEMP], sizeof(RC_ctrl_t)); // ‰øùÂ≠ò‰∏ä‰∏ÄÊ¨°ÁöÑÊï∞ÊçÆ,Áî®‰∫éÊå
 401              		.loc 1 111 5 view .LVU153
ARM GAS  C:\Users\Sive\AppData\Local\Temp\ccL61uHX.s 			page 10


 402 0186 04F11805 		add	r5, r4, #24
 403 018a 0FCC     		ldmia	r4!, {r0, r1, r2, r3}
 404 018c 0FC5     		stmia	r5!, {r0, r1, r2, r3}
 405 018e 94E80300 		ldm	r4, {r0, r1}
 406 0192 85E80300 		stm	r5, {r0, r1}
 112:moudels/remote/remote_control.c **** }
 407              		.loc 1 112 1 is_stmt 0 view .LVU154
 408 0196 05B0     		add	sp, sp, #20
 409              		.cfi_def_cfa_offset 36
 410              		@ sp needed
 411 0198 BDE8F08F 		pop	{r4, r5, r6, r7, r8, r9, r10, fp, pc}
 412              	.L10:
 413              		.align	2
 414              	.L9:
 415 019c 00000000 		.word	ch
 416 01a0 00000000 		.word	rc_ctrl
 417              		.cfi_endproc
 418              	.LFE138:
 420              		.section	.text.RCLostCallback,"ax",%progbits
 421              		.align	1
 422              		.syntax unified
 423              		.thumb
 424              		.thumb_func
 426              	RCLostCallback:
 427              	.LVL14:
 428              	.LFB140:
 113:moudels/remote/remote_control.c **** 
 114:moudels/remote/remote_control.c **** /**
 115:moudels/remote/remote_control.c ****  * @brief ÂØπsbus_to_rcÁöÑÁÆÄÂçïÂ∞ÅË£Ö,Áî®‰∫éÊ≥®ÂÜåÂà∞bsp_usartÁöÑÂõûË∞ÉÂáΩÊï∞‰∏≠
 116:moudels/remote/remote_control.c ****  *
 117:moudels/remote/remote_control.c ****  */
 118:moudels/remote/remote_control.c **** static void RemoteControlRxCallback()
 119:moudels/remote/remote_control.c ****    {   
 120:moudels/remote/remote_control.c ****     DaemonReload(rc_daemon_instance);// ÂÖàÂñÇÁãó
 121:moudels/remote/remote_control.c ****     if((rc_usart_instance->recv_buff[0]=0x0F) && (rc_usart_instance->recv_buff[24]=0x00 )){
 122:moudels/remote/remote_control.c ****         rc_usart_instance->flag=1;
 123:moudels/remote/remote_control.c ****     }else{
 124:moudels/remote/remote_control.c ****          rc_usart_instance->flag=0;
 125:moudels/remote/remote_control.c ****     }//----Ê†°È™å‰Ωç
 126:moudels/remote/remote_control.c ****     if( rc_usart_instance->flag=1){      
 127:moudels/remote/remote_control.c ****     sbus_to_rc(rc_usart_instance->recv_buff); 
 128:moudels/remote/remote_control.c ****     
 129:moudels/remote/remote_control.c ****     if((rc_usart_instance->recv_buff[21] != 0x00)){ rc_usart_instance->connect_flag = 0;}
 130:moudels/remote/remote_control.c **** 			else {rc_usart_instance->connect_flag = 1;
 131:moudels/remote/remote_control.c **** 			    
 132:moudels/remote/remote_control.c ****                  }
 133:moudels/remote/remote_control.c ****      rc_usart_instance->flag = 0;                   
 134:moudels/remote/remote_control.c ****         
 135:moudels/remote/remote_control.c ****     } // ËøõË°åÂçèËÆÆËß£Êûê
 136:moudels/remote/remote_control.c **** }
 137:moudels/remote/remote_control.c **** 
 138:moudels/remote/remote_control.c **** /**
 139:moudels/remote/remote_control.c ****  * @brief ÈÅ•ÊéßÂô®Á¶ªÁ∫øÁöÑÂõûË∞ÉÂáΩÊï∞,Ê≥®ÂÜåÂà∞ÂÆàÊä§ËøõÁ®ã‰∏≠,‰∏≤Âè£ÊéâÁ∫øÊó∂Ë∞ÉÁî®
 140:moudels/remote/remote_control.c ****  *
 141:moudels/remote/remote_control.c ****  */
 142:moudels/remote/remote_control.c **** static void RCLostCallback(void *id)
 143:moudels/remote/remote_control.c **** {
ARM GAS  C:\Users\Sive\AppData\Local\Temp\ccL61uHX.s 			page 11


 429              		.loc 1 143 1 is_stmt 1 view -0
 430              		.cfi_startproc
 431              		@ args = 0, pretend = 0, frame = 0
 432              		@ frame_needed = 0, uses_anonymous_args = 0
 433              		.loc 1 143 1 is_stmt 0 view .LVU156
 434 0000 08B5     		push	{r3, lr}
 435              		.cfi_def_cfa_offset 8
 436              		.cfi_offset 3, -8
 437              		.cfi_offset 14, -4
 144:moudels/remote/remote_control.c ****     memset(rc_ctrl, 0, sizeof(rc_ctrl)); // Ê∏ÖÁ©∫ÈÅ•ÊéßÂô®Êï∞ÊçÆ
 438              		.loc 1 144 5 is_stmt 1 view .LVU157
 439 0002 3022     		movs	r2, #48
 440 0004 0021     		movs	r1, #0
 441 0006 0448     		ldr	r0, .L13
 442              	.LVL15:
 443              		.loc 1 144 5 is_stmt 0 view .LVU158
 444 0008 FFF7FEFF 		bl	memset
 445              	.LVL16:
 145:moudels/remote/remote_control.c ****     USARTServiceInit(rc_usart_instance); // Â∞ùËØïÈáçÊñ∞ÂêØÂä®Êé•Êî∂
 446              		.loc 1 145 5 is_stmt 1 view .LVU159
 447 000c 034B     		ldr	r3, .L13+4
 448 000e 1868     		ldr	r0, [r3]
 449 0010 FFF7FEFF 		bl	USARTServiceInit
 450              	.LVL17:
 146:moudels/remote/remote_control.c ****     LOGWARNING("[rc] remote control lost");
 451              		.loc 1 146 43 view .LVU160
 147:moudels/remote/remote_control.c **** }
 452              		.loc 1 147 1 is_stmt 0 view .LVU161
 453 0014 08BD     		pop	{r3, pc}
 454              	.L14:
 455 0016 00BF     		.align	2
 456              	.L13:
 457 0018 00000000 		.word	rc_ctrl
 458 001c 00000000 		.word	rc_usart_instance
 459              		.cfi_endproc
 460              	.LFE140:
 462              		.section	.text.RemoteControlRxCallback,"ax",%progbits
 463              		.align	1
 464              		.syntax unified
 465              		.thumb
 466              		.thumb_func
 468              	RemoteControlRxCallback:
 469              	.LFB139:
 119:moudels/remote/remote_control.c ****     DaemonReload(rc_daemon_instance);// ÂÖàÂñÇÁãó
 470              		.loc 1 119 4 is_stmt 1 view -0
 471              		.cfi_startproc
 472              		@ args = 0, pretend = 0, frame = 0
 473              		@ frame_needed = 0, uses_anonymous_args = 0
 474 0000 10B5     		push	{r4, lr}
 475              		.cfi_def_cfa_offset 8
 476              		.cfi_offset 4, -8
 477              		.cfi_offset 14, -4
 120:moudels/remote/remote_control.c ****     if((rc_usart_instance->recv_buff[0]=0x0F) && (rc_usart_instance->recv_buff[24]=0x00 )){
 478              		.loc 1 120 5 view .LVU163
 479 0002 0F4B     		ldr	r3, .L19
 480 0004 1868     		ldr	r0, [r3]
 481 0006 FFF7FEFF 		bl	DaemonReload
ARM GAS  C:\Users\Sive\AppData\Local\Temp\ccL61uHX.s 			page 12


 482              	.LVL18:
 121:moudels/remote/remote_control.c ****         rc_usart_instance->flag=1;
 483              		.loc 1 121 5 view .LVU164
 121:moudels/remote/remote_control.c ****         rc_usart_instance->flag=1;
 484              		.loc 1 121 26 is_stmt 0 view .LVU165
 485 000a 0E4C     		ldr	r4, .L19+4
 486 000c 2068     		ldr	r0, [r4]
 121:moudels/remote/remote_control.c ****         rc_usart_instance->flag=1;
 487              		.loc 1 121 40 view .LVU166
 488 000e 0F23     		movs	r3, #15
 489 0010 0370     		strb	r3, [r0]
 121:moudels/remote/remote_control.c ****         rc_usart_instance->flag=1;
 490              		.loc 1 121 83 discriminator 1 view .LVU167
 491 0012 0023     		movs	r3, #0
 492 0014 0376     		strb	r3, [r0, #24]
 124:moudels/remote/remote_control.c ****     }//----Ê†°È™å‰Ωç
 493              		.loc 1 124 10 is_stmt 1 view .LVU168
 124:moudels/remote/remote_control.c ****     }//----Ê†°È™å‰Ωç
 494              		.loc 1 124 33 is_stmt 0 view .LVU169
 495 0016 C0F80C31 		str	r3, [r0, #268]
 126:moudels/remote/remote_control.c ****     sbus_to_rc(rc_usart_instance->recv_buff); 
 496              		.loc 1 126 5 is_stmt 1 view .LVU170
 126:moudels/remote/remote_control.c ****     sbus_to_rc(rc_usart_instance->recv_buff); 
 497              		.loc 1 126 32 is_stmt 0 view .LVU171
 498 001a 0123     		movs	r3, #1
 499 001c C0F80C31 		str	r3, [r0, #268]
 127:moudels/remote/remote_control.c ****     
 500              		.loc 1 127 5 is_stmt 1 view .LVU172
 501 0020 FFF7FEFF 		bl	sbus_to_rc
 502              	.LVL19:
 129:moudels/remote/remote_control.c **** 			else {rc_usart_instance->connect_flag = 1;
 503              		.loc 1 129 5 view .LVU173
 129:moudels/remote/remote_control.c **** 			else {rc_usart_instance->connect_flag = 1;
 504              		.loc 1 129 26 is_stmt 0 view .LVU174
 505 0024 2368     		ldr	r3, [r4]
 129:moudels/remote/remote_control.c **** 			else {rc_usart_instance->connect_flag = 1;
 506              		.loc 1 129 37 view .LVU175
 507 0026 5A7D     		ldrb	r2, [r3, #21]	@ zero_extendqisi2
 129:moudels/remote/remote_control.c **** 			else {rc_usart_instance->connect_flag = 1;
 508              		.loc 1 129 7 view .LVU176
 509 0028 32B1     		cbz	r2, .L16
 129:moudels/remote/remote_control.c **** 			else {rc_usart_instance->connect_flag = 1;
 510              		.loc 1 129 53 is_stmt 1 discriminator 1 view .LVU177
 129:moudels/remote/remote_control.c **** 			else {rc_usart_instance->connect_flag = 1;
 511              		.loc 1 129 85 is_stmt 0 discriminator 1 view .LVU178
 512 002a 0022     		movs	r2, #0
 513 002c C3F81021 		str	r2, [r3, #272]
 514              	.L17:
 133:moudels/remote/remote_control.c ****         
 515              		.loc 1 133 6 is_stmt 1 view .LVU179
 133:moudels/remote/remote_control.c ****         
 516              		.loc 1 133 30 is_stmt 0 view .LVU180
 517 0030 0022     		movs	r2, #0
 518 0032 C3F80C21 		str	r2, [r3, #268]
 136:moudels/remote/remote_control.c **** 
 519              		.loc 1 136 1 view .LVU181
 520 0036 10BD     		pop	{r4, pc}
ARM GAS  C:\Users\Sive\AppData\Local\Temp\ccL61uHX.s 			page 13


 521              	.L16:
 130:moudels/remote/remote_control.c **** 			    
 522              		.loc 1 130 10 is_stmt 1 view .LVU182
 130:moudels/remote/remote_control.c **** 			    
 523              		.loc 1 130 42 is_stmt 0 view .LVU183
 524 0038 0122     		movs	r2, #1
 525 003a C3F81021 		str	r2, [r3, #272]
 526 003e F7E7     		b	.L17
 527              	.L20:
 528              		.align	2
 529              	.L19:
 530 0040 00000000 		.word	rc_daemon_instance
 531 0044 00000000 		.word	rc_usart_instance
 532              		.cfi_endproc
 533              	.LFE139:
 535              		.section	.text.RemoteControlInit,"ax",%progbits
 536              		.align	1
 537              		.global	RemoteControlInit
 538              		.syntax unified
 539              		.thumb
 540              		.thumb_func
 542              	RemoteControlInit:
 543              	.LVL20:
 544              	.LFB141:
 148:moudels/remote/remote_control.c **** 
 149:moudels/remote/remote_control.c **** RC_ctrl_t *RemoteControlInit(UART_HandleTypeDef *rc_usart_handle)
 150:moudels/remote/remote_control.c **** {
 545              		.loc 1 150 1 is_stmt 1 view -0
 546              		.cfi_startproc
 547              		@ args = 0, pretend = 0, frame = 24
 548              		@ frame_needed = 0, uses_anonymous_args = 0
 549              		.loc 1 150 1 is_stmt 0 view .LVU185
 550 0000 00B5     		push	{lr}
 551              		.cfi_def_cfa_offset 4
 552              		.cfi_offset 14, -4
 553 0002 87B0     		sub	sp, sp, #28
 554              		.cfi_def_cfa_offset 32
 151:moudels/remote/remote_control.c ****     USART_Init_Config_s conf;
 555              		.loc 1 151 5 is_stmt 1 view .LVU186
 152:moudels/remote/remote_control.c ****     conf.module_callback = RemoteControlRxCallback;
 556              		.loc 1 152 5 view .LVU187
 557              		.loc 1 152 26 is_stmt 0 view .LVU188
 558 0004 0F4B     		ldr	r3, .L23
 559 0006 0593     		str	r3, [sp, #20]
 153:moudels/remote/remote_control.c ****     conf.usart_handle = rc_usart_handle;
 560              		.loc 1 153 5 is_stmt 1 view .LVU189
 561              		.loc 1 153 23 is_stmt 0 view .LVU190
 562 0008 0490     		str	r0, [sp, #16]
 154:moudels/remote/remote_control.c ****     conf.recv_buff_size = REMOTE_CONTROL_FRAME_SIZE;
 563              		.loc 1 154 5 is_stmt 1 view .LVU191
 564              		.loc 1 154 25 is_stmt 0 view .LVU192
 565 000a 1923     		movs	r3, #25
 566 000c 8DF80C30 		strb	r3, [sp, #12]
 155:moudels/remote/remote_control.c ****     rc_usart_instance = USARTRegister(&conf);
 567              		.loc 1 155 5 is_stmt 1 view .LVU193
 568              		.loc 1 155 25 is_stmt 0 view .LVU194
 569 0010 03A8     		add	r0, sp, #12
ARM GAS  C:\Users\Sive\AppData\Local\Temp\ccL61uHX.s 			page 14


 570              	.LVL21:
 571              		.loc 1 155 25 view .LVU195
 572 0012 FFF7FEFF 		bl	USARTRegister
 573              	.LVL22:
 574              		.loc 1 155 23 discriminator 1 view .LVU196
 575 0016 0C4B     		ldr	r3, .L23+4
 576 0018 1860     		str	r0, [r3]
 156:moudels/remote/remote_control.c ****      
 157:moudels/remote/remote_control.c ****     // ËøõË°åÂÆàÊä§ËøõÁ®ãÁöÑÊ≥®ÂÜå,Áî®‰∫éÂÆöÊó∂Ê£ÄÊü•ÈÅ•ÊéßÂô®ÊòØÂê¶Ê≠£Â∏∏Â∑•‰Ωú
 158:moudels/remote/remote_control.c ****     Daemon_Init_Config_s daemon_conf = {
 577              		.loc 1 158 5 is_stmt 1 view .LVU197
 578              		.loc 1 158 26 is_stmt 0 view .LVU198
 579 001a 0023     		movs	r3, #0
 580 001c 0093     		str	r3, [sp]
 581 001e 0193     		str	r3, [sp, #4]
 582 0020 0293     		str	r3, [sp, #8]
 583 0022 0A23     		movs	r3, #10
 584 0024 ADF80030 		strh	r3, [sp]	@ movhi
 585 0028 084B     		ldr	r3, .L23+8
 586 002a 0193     		str	r3, [sp, #4]
 159:moudels/remote/remote_control.c ****         .reload_count = 10, // 100msÊú™Êî∂Âà∞Êï∞ÊçÆËßÜ‰∏∫Á¶ªÁ∫ø,ÈÅ•ÊéßÂô®ÁöÑÊé•Êî∂È¢ëÁéáÂÆûÈôÖ‰∏äÊò
 160:moudels/remote/remote_control.c ****         .callback = RCLostCallback,
 161:moudels/remote/remote_control.c ****         .owner_id = NULL, // Âè™Êúâ1‰∏™ÈÅ•ÊéßÂô®,‰∏çÈúÄË¶Åowner_id
 162:moudels/remote/remote_control.c ****     };
 163:moudels/remote/remote_control.c ****     rc_daemon_instance = DaemonRegister(&daemon_conf);
 587              		.loc 1 163 5 is_stmt 1 view .LVU199
 588              		.loc 1 163 26 is_stmt 0 view .LVU200
 589 002c 6846     		mov	r0, sp
 590 002e FFF7FEFF 		bl	DaemonRegister
 591              	.LVL23:
 592              		.loc 1 163 24 discriminator 1 view .LVU201
 593 0032 074B     		ldr	r3, .L23+12
 594 0034 1860     		str	r0, [r3]
 164:moudels/remote/remote_control.c ****     rc_init_flag = 1;
 595              		.loc 1 164 5 is_stmt 1 view .LVU202
 596              		.loc 1 164 18 is_stmt 0 view .LVU203
 597 0036 074B     		ldr	r3, .L23+16
 598 0038 0122     		movs	r2, #1
 599 003a 1A70     		strb	r2, [r3]
 165:moudels/remote/remote_control.c ****     return rc_ctrl;
 600              		.loc 1 165 5 is_stmt 1 view .LVU204
 166:moudels/remote/remote_control.c **** }
 601              		.loc 1 166 1 is_stmt 0 view .LVU205
 602 003c 0648     		ldr	r0, .L23+20
 603 003e 07B0     		add	sp, sp, #28
 604              		.cfi_def_cfa_offset 4
 605              		@ sp needed
 606 0040 5DF804FB 		ldr	pc, [sp], #4
 607              	.L24:
 608              		.align	2
 609              	.L23:
 610 0044 00000000 		.word	RemoteControlRxCallback
 611 0048 00000000 		.word	rc_usart_instance
 612 004c 00000000 		.word	RCLostCallback
 613 0050 00000000 		.word	rc_daemon_instance
 614 0054 00000000 		.word	rc_init_flag
 615 0058 00000000 		.word	rc_ctrl
ARM GAS  C:\Users\Sive\AppData\Local\Temp\ccL61uHX.s 			page 15


 616              		.cfi_endproc
 617              	.LFE141:
 619              		.section	.text.RemoteControlIsOnline,"ax",%progbits
 620              		.align	1
 621              		.global	RemoteControlIsOnline
 622              		.syntax unified
 623              		.thumb
 624              		.thumb_func
 626              	RemoteControlIsOnline:
 627              	.LFB142:
 167:moudels/remote/remote_control.c **** 
 168:moudels/remote/remote_control.c **** uint8_t RemoteControlIsOnline()
 169:moudels/remote/remote_control.c **** {
 628              		.loc 1 169 1 is_stmt 1 view -0
 629              		.cfi_startproc
 630              		@ args = 0, pretend = 0, frame = 0
 631              		@ frame_needed = 0, uses_anonymous_args = 0
 632 0000 08B5     		push	{r3, lr}
 633              		.cfi_def_cfa_offset 8
 634              		.cfi_offset 3, -8
 635              		.cfi_offset 14, -4
 170:moudels/remote/remote_control.c ****     if (rc_init_flag)
 636              		.loc 1 170 5 view .LVU207
 637              		.loc 1 170 9 is_stmt 0 view .LVU208
 638 0002 044B     		ldr	r3, .L29
 639 0004 1878     		ldrb	r0, [r3]	@ zero_extendqisi2
 640              		.loc 1 170 8 view .LVU209
 641 0006 00B9     		cbnz	r0, .L28
 642              	.L26:
 171:moudels/remote/remote_control.c ****         return DaemonIsOnline(rc_daemon_instance);
 172:moudels/remote/remote_control.c ****     return 0;
 173:moudels/remote/remote_control.c **** }...
 643              		.loc 1 173 1 view .LVU210
 644 0008 08BD     		pop	{r3, pc}
 645              	.L28:
 171:moudels/remote/remote_control.c ****         return DaemonIsOnline(rc_daemon_instance);
 646              		.loc 1 171 9 is_stmt 1 view .LVU211
 171:moudels/remote/remote_control.c ****         return DaemonIsOnline(rc_daemon_instance);
 647              		.loc 1 171 16 is_stmt 0 view .LVU212
 648 000a 034B     		ldr	r3, .L29+4
 649 000c 1868     		ldr	r0, [r3]
 650 000e FFF7FEFF 		bl	DaemonIsOnline
 651              	.LVL24:
 652 0012 F9E7     		b	.L26
 653              	.L30:
 654              		.align	2
 655              	.L29:
 656 0014 00000000 		.word	rc_init_flag
 657 0018 00000000 		.word	rc_daemon_instance
 658              		.cfi_endproc
 659              	.LFE142:
 661              		.section	.bss.ch,"aw",%nobits
 662              		.align	2
 665              	ch:
 666 0000 00000000 		.space	32
 666      00000000 
 666      00000000 
ARM GAS  C:\Users\Sive\AppData\Local\Temp\ccL61uHX.s 			page 16


 666      00000000 
 666      00000000 
 667              		.section	.bss.rc_daemon_instance,"aw",%nobits
 668              		.align	2
 671              	rc_daemon_instance:
 672 0000 00000000 		.space	4
 673              		.section	.bss.rc_usart_instance,"aw",%nobits
 674              		.align	2
 677              	rc_usart_instance:
 678 0000 00000000 		.space	4
 679              		.section	.bss.rc_init_flag,"aw",%nobits
 682              	rc_init_flag:
 683 0000 00       		.space	1
 684              		.section	.bss.rc_ctrl,"aw",%nobits
 685              		.align	2
 688              	rc_ctrl:
 689 0000 00000000 		.space	48
 689      00000000 
 689      00000000 
 689      00000000 
 689      00000000 
 690              		.text
 691              	.Letext0:
 692              		.file 2 "C:/Users/Sive/AppData/Roaming/Code/User/globalStorage/bmd.stm32-for-vscode/@xpack-dev-too
 693              		.file 3 "C:/Users/Sive/AppData/Roaming/Code/User/globalStorage/bmd.stm32-for-vscode/@xpack-dev-too
 694              		.file 4 "Drivers/CMSIS/Device/ST/STM32F4xx/Include/stm32f407xx.h"
 695              		.file 5 "C:/Users/Sive/AppData/Roaming/Code/User/globalStorage/bmd.stm32-for-vscode/@xpack-dev-too
 696              		.file 6 "Drivers/STM32F4xx_HAL_Driver/Inc/stm32f4xx_hal_def.h"
 697              		.file 7 "Drivers/STM32F4xx_HAL_Driver/Inc/stm32f4xx_hal_dma.h"
 698              		.file 8 "Drivers/STM32F4xx_HAL_Driver/Inc/stm32f4xx_hal_uart.h"
 699              		.file 9 "moudels/remote/remote_control.h"
 700              		.file 10 "bsp/usart/bsp_usart.h"
 701              		.file 11 "moudels/daemon/daemon.h"
 702              		.file 12 "C:/Users/Sive/AppData/Roaming/Code/User/globalStorage/bmd.stm32-for-vscode/@xpack-dev-to
 703              		.file 13 "<built-in>"
ARM GAS  C:\Users\Sive\AppData\Local\Temp\ccL61uHX.s 			page 17

