ARM GAS  C:\Users\Sive\AppData\Local\Temp\cclDYmFb.s 			page 1


   1              		.cpu cortex-m4
   2              		.arch armv7e-m
   3              		.fpu fpv4-sp-d16
   4              		.eabi_attribute 27, 1
   5              		.eabi_attribute 28, 1
   6              		.eabi_attribute 20, 1
   7              		.eabi_attribute 21, 1
   8              		.eabi_attribute 23, 3
   9              		.eabi_attribute 24, 1
  10              		.eabi_attribute 25, 1
  11              		.eabi_attribute 26, 1
  12              		.eabi_attribute 30, 1
  13              		.eabi_attribute 34, 1
  14              		.eabi_attribute 18, 4
  15              		.file	"robot_cmd.c"
  16              		.text
  17              	.Ltext0:
  18              		.cfi_sections	.debug_frame
  19              		.file 1 "application/cmd/robot_cmd.c"
  20              		.section	.text.EmergencyHandler,"ax",%progbits
  21              		.align	1
  22              		.syntax unified
  23              		.thumb
  24              		.thumb_func
  26              	EmergencyHandler:
  27              	.LFB171:
   1:application/cmd/robot_cmd.c **** // app
   2:application/cmd/robot_cmd.c **** #include "robot_def.h"
   3:application/cmd/robot_cmd.c **** #include "robot_cmd.h"
   4:application/cmd/robot_cmd.c **** // module
   5:application/cmd/robot_cmd.c **** #include "remote_control.h"
   6:application/cmd/robot_cmd.c **** #include  "distance.h"
   7:application/cmd/robot_cmd.c **** #include "ins_task.h"
   8:application/cmd/robot_cmd.c **** // #include "master_process.h"--è§†è§‰
   9:application/cmd/robot_cmd.c **** #include "message_center.h"
  10:application/cmd/robot_cmd.c **** #include "general_def.h"
  11:application/cmd/robot_cmd.c **** #include "dji_motor.h"
  12:application/cmd/robot_cmd.c **** // bsp
  13:application/cmd/robot_cmd.c **** #include "bsp_dwt.h"
  14:application/cmd/robot_cmd.c **** #include "bsp_log.h"
  15:application/cmd/robot_cmd.c **** 
  16:application/cmd/robot_cmd.c **** #ifdef ONE_BOARD
  17:application/cmd/robot_cmd.c **** static Subscriber_t *chassis_feed_sub; // åº•ç›˜åé¦ˆä¿¡æ¯è®¢é˜…è€…
  18:application/cmd/robot_cmd.c **** static Publisher_t *chassis_cmd_pub;   // åº•ç›˜æ§åˆ¶æ¶ˆæ¯å‘å¸ƒè€…
  19:application/cmd/robot_cmd.c **** #endif                                 // ONE_BOARD
  20:application/cmd/robot_cmd.c **** static Chassis_Ctrl_Cmd_s chassis_cmd_send;      // å‘é€ç»™åº•ç›˜åº”ç”¨çš„ä¿¡æ¯,åŒ…æ‹¬æ§åˆ¶ä¿¡æ
  21:application/cmd/robot_cmd.c **** static Chassis_Upload_Data_s chassis_fetch_data; // ä»åº•ç›˜åº”ç”¨æ¥æ”¶çš„åé¦ˆä¿¡æ¯ä¿¡æ¯,åº•ç
  22:application/cmd/robot_cmd.c **** 
  23:application/cmd/robot_cmd.c **** static RC_ctrl_t *rc_data;              // é¥æ§å™¨æ•°æ®,åˆå§‹åŒ–æ—¶è¿”å›
  24:application/cmd/robot_cmd.c **** static Distance_data *dt_data;
  25:application/cmd/robot_cmd.c **** 
  26:application/cmd/robot_cmd.c **** static Publisher_t *paw_cmd_pub;           // å‘å°„æ§åˆ¶æ¶ˆæ¯å‘å¸ƒè€…
  27:application/cmd/robot_cmd.c **** static Subscriber_t *paw_feed_sub;         // å‘å°„åé¦ˆä¿¡æ¯è®¢é˜…è€…
  28:application/cmd/robot_cmd.c **** static Paw_Ctrl_Cmd_s paw_cmd_send;      // ä¼ é€’ç»™å‘å°„çš„æ§åˆ¶ä¿¡æ¯
  29:application/cmd/robot_cmd.c **** static Paw_Upload_Data_s paw_fetch_data; // ä»å‘å°„è·å–çš„åé¦ˆä¿¡æ¯
  30:application/cmd/robot_cmd.c **** 
  31:application/cmd/robot_cmd.c **** static Publisher_t *shoot_cmd_pub;           // å‘å°„æ§åˆ¶æ¶ˆæ¯å‘å¸ƒè€…
ARM GAS  C:\Users\Sive\AppData\Local\Temp\cclDYmFb.s 			page 2


  32:application/cmd/robot_cmd.c **** static Subscriber_t *shoot_feed_sub;         // å‘å°„åé¦ˆä¿¡æ¯è®¢é˜…è€…
  33:application/cmd/robot_cmd.c **** static Shoot_Ctrl_Cmd_s shoot_cmd_send;      // ä¼ é€’ç»™å‘å°„çš„æ§åˆ¶ä¿¡æ¯
  34:application/cmd/robot_cmd.c **** static Shoot_Upload_Data_s shoot_fetch_data; // ä»å‘å°„è·å–çš„åé¦ˆä¿¡æ¯
  35:application/cmd/robot_cmd.c **** 
  36:application/cmd/robot_cmd.c **** static Robot_Status_e robot_state; // æœºå™¨äººæ•´ä½“å·¥ä½œçŠ¶æ€
  37:application/cmd/robot_cmd.c **** 
  38:application/cmd/robot_cmd.c **** void RobotCMDInit()
  39:application/cmd/robot_cmd.c **** {
  40:application/cmd/robot_cmd.c ****     rc_data = RemoteControlInit(&huart3);   // ä¿®æ”¹ä¸ºå¯¹åº”ä¸²å£,æ³¨æ„å¦‚æœæ˜¯è‡ªç ”æ¿dbuså
  41:application/cmd/robot_cmd.c ****     dt_data = dtInit(&huart1);
  42:application/cmd/robot_cmd.c ****     // vision_recv_data = VisionInit(&huart1); // è§†è§‰é€šä¿¡ä¸²å£
  43:application/cmd/robot_cmd.c **** 
  44:application/cmd/robot_cmd.c ****     // gimbal_cmd_pub = PubRegister("gimbal_cmd", sizeof(Gimbal_Ctrl_Cmd_s));
  45:application/cmd/robot_cmd.c ****     // gimbal_feed_sub = SubRegister("gimbal_feed", sizeof(Gimbal_Upload_Data_s));
  46:application/cmd/robot_cmd.c ****     paw_cmd_pub = PubRegister("paw_cmd", sizeof(Paw_Ctrl_Cmd_s));
  47:application/cmd/robot_cmd.c ****     paw_feed_sub = SubRegister("paw_feed", sizeof(Paw_Upload_Data_s));
  48:application/cmd/robot_cmd.c ****      shoot_cmd_pub = PubRegister("shoot_cmd", sizeof(Shoot_Ctrl_Cmd_s));
  49:application/cmd/robot_cmd.c ****     shoot_feed_sub = SubRegister("shoot_feed", sizeof(Shoot_Upload_Data_s));
  50:application/cmd/robot_cmd.c ****      
  51:application/cmd/robot_cmd.c **** 
  52:application/cmd/robot_cmd.c **** #ifdef ONE_BOARD //  åŒæ¿å…¼å®¹
  53:application/cmd/robot_cmd.c ****     chassis_cmd_pub = PubRegister("chassis_cmd", sizeof(Chassis_Ctrl_Cmd_s));
  54:application/cmd/robot_cmd.c ****     chassis_feed_sub = SubRegister("chassis_feed", sizeof(Chassis_Upload_Data_s));
  55:application/cmd/robot_cmd.c **** #endif // ONE_BOARD
  56:application/cmd/robot_cmd.c **** #ifdef GIMBAL_BOARD
  57:application/cmd/robot_cmd.c ****     CANComm_Init_Config_s comm_conf = {
  58:application/cmd/robot_cmd.c ****         .can_config = {
  59:application/cmd/robot_cmd.c ****             .can_handle = &hcan1,
  60:application/cmd/robot_cmd.c ****             .tx_id = 0x312,
  61:application/cmd/robot_cmd.c ****             .rx_id = 0x311,
  62:application/cmd/robot_cmd.c ****         },
  63:application/cmd/robot_cmd.c ****         .recv_data_len = sizeof(Chassis_Upload_Data_s),
  64:application/cmd/robot_cmd.c ****         .send_data_len = sizeof(Chassis_Ctrl_Cmd_s),
  65:application/cmd/robot_cmd.c ****     };
  66:application/cmd/robot_cmd.c ****     cmd_can_comm = CANCommInit(&comm_conf);
  67:application/cmd/robot_cmd.c **** #endif // GIMBAL_BOARD
  68:application/cmd/robot_cmd.c ****     // gimbal_cmd_send.pitch = 0;--äº‘å°
  69:application/cmd/robot_cmd.c **** 
  70:application/cmd/robot_cmd.c ****     robot_state = ROBOT_READY; // å¯åŠ¨æ—¶æœºå™¨äººè¿›å…¥å·¥ä½œæ¨¡å¼,åç»­åŠ å…¥æ‰€æœ‰åº”ç”¨åˆå
  71:application/cmd/robot_cmd.c **** }
  72:application/cmd/robot_cmd.c **** 
  73:application/cmd/robot_cmd.c **** static void EmergencyHandler()//----è®¾ç½®æ€¥åœ
  74:application/cmd/robot_cmd.c **** {
  28              		.loc 1 74 1 view -0
  29              		.cfi_startproc
  30              		@ args = 0, pretend = 0, frame = 0
  31              		@ frame_needed = 0, uses_anonymous_args = 0
  32              		@ link register save eliminated.
  75:application/cmd/robot_cmd.c ****     // æ‹¨è½®çš„å‘ä¸‹æ‹¨è¶…è¿‡ä¸€åŠè¿›å…¥æ€¥åœæ¨¡å¼.æ³¨æ„å‘æ‰“æ—¶ä¸‹æ‹¨è½®æ˜¯æ­£
  76:application/cmd/robot_cmd.c ****     if (rc_data[TEMP].rc.SE < 0 || robot_state == ROBOT_STOP) // è¿˜éœ€æ·»åŠ é‡è¦åº”ç”¨å’Œæ¨¡å—ç
  33              		.loc 1 76 5 view .LVU1
  34              		.loc 1 76 16 is_stmt 0 view .LVU2
  35 0000 114B     		ldr	r3, .L5
  36 0002 1A68     		ldr	r2, [r3]
  37              		.loc 1 76 25 view .LVU3
  38 0004 B2F90A30 		ldrsh	r3, [r2, #10]
  39              		.loc 1 76 8 view .LVU4
ARM GAS  C:\Users\Sive\AppData\Local\Temp\cclDYmFb.s 			page 3


  40 0008 002B     		cmp	r3, #0
  41 000a 02DB     		blt	.L2
  42              		.loc 1 76 48 discriminator 1 view .LVU5
  43 000c 0F4B     		ldr	r3, .L5+4
  44 000e 1B78     		ldrb	r3, [r3]	@ zero_extendqisi2
  45              		.loc 1 76 33 discriminator 1 view .LVU6
  46 0010 53B9     		cbnz	r3, .L3
  47              	.L2:
  77:application/cmd/robot_cmd.c ****     {
  78:application/cmd/robot_cmd.c ****         robot_state = ROBOT_STOP;
  48              		.loc 1 78 9 is_stmt 1 view .LVU7
  49              		.loc 1 78 21 is_stmt 0 view .LVU8
  50 0012 0023     		movs	r3, #0
  51 0014 0D49     		ldr	r1, .L5+4
  52 0016 0B70     		strb	r3, [r1]
  79:application/cmd/robot_cmd.c ****         // gimbal_cmd_send.gimbal_mode = GIMBAL_ZERO_FORCE;
  80:application/cmd/robot_cmd.c ****         chassis_cmd_send.chassis_mode = CHASSIS_ZERO_FORCE;
  53              		.loc 1 80 9 is_stmt 1 view .LVU9
  54              		.loc 1 80 39 is_stmt 0 view .LVU10
  55 0018 0D49     		ldr	r1, .L5+8
  56 001a 0B75     		strb	r3, [r1, #20]
  81:application/cmd/robot_cmd.c ****         paw_cmd_send.paw_mode = Paw_OFF;
  57              		.loc 1 81 9 is_stmt 1 view .LVU11
  58              		.loc 1 81 31 is_stmt 0 view .LVU12
  59 001c 0D49     		ldr	r1, .L5+12
  60 001e CB70     		strb	r3, [r1, #3]
  82:application/cmd/robot_cmd.c ****         shoot_cmd_send.friction_mode = FRICTION_OFF;
  61              		.loc 1 82 9 is_stmt 1 view .LVU13
  62              		.loc 1 82 38 is_stmt 0 view .LVU14
  63 0020 0D49     		ldr	r1, .L5+16
  64 0022 CB70     		strb	r3, [r1, #3]
  83:application/cmd/robot_cmd.c ****         shoot_cmd_send.load_mode = LOAD_STOP;
  65              		.loc 1 83 9 is_stmt 1 view .LVU15
  66              		.loc 1 83 34 is_stmt 0 view .LVU16
  67 0024 4B70     		strb	r3, [r1, #1]
  84:application/cmd/robot_cmd.c ****         shoot_cmd_send.shoot_mode = SHOOT_OFF;
  68              		.loc 1 84 9 is_stmt 1 view .LVU17
  69              		.loc 1 84 35 is_stmt 0 view .LVU18
  70 0026 0B70     		strb	r3, [r1]
  71              	.L3:
  85:application/cmd/robot_cmd.c ****          LOGERROR("[CMD] emergency stop!");
  72              		.loc 1 85 43 is_stmt 1 view .LVU19
  86:application/cmd/robot_cmd.c ****     }
  87:application/cmd/robot_cmd.c ****     // é¥æ§å™¨å³ä¾§å¼€å…³ä¸º[ä¸Š],æ¢å¤æ­£å¸¸è¿è¡Œ
  88:application/cmd/robot_cmd.c ****     if ( rc_data[TEMP].rc.SE>=0)
  73              		.loc 1 88 5 view .LVU20
  74              		.loc 1 88 26 is_stmt 0 view .LVU21
  75 0028 B2F90A30 		ldrsh	r3, [r2, #10]
  76              		.loc 1 88 8 view .LVU22
  77 002c 002B     		cmp	r3, #0
  78 002e 09DB     		blt	.L1
  89:application/cmd/robot_cmd.c ****     {   
  90:application/cmd/robot_cmd.c ****         shoot_cmd_send.friction_mode = FRICTION_ON;
  79              		.loc 1 90 9 is_stmt 1 view .LVU23
  80              		.loc 1 90 38 is_stmt 0 view .LVU24
  81 0030 094A     		ldr	r2, .L5+16
  82 0032 0123     		movs	r3, #1
ARM GAS  C:\Users\Sive\AppData\Local\Temp\cclDYmFb.s 			page 4


  83 0034 D370     		strb	r3, [r2, #3]
  91:application/cmd/robot_cmd.c ****         shoot_cmd_send.shoot_mode = SHOOT_ON;
  84              		.loc 1 91 9 is_stmt 1 view .LVU25
  85              		.loc 1 91 35 is_stmt 0 view .LVU26
  86 0036 1370     		strb	r3, [r2]
  92:application/cmd/robot_cmd.c ****         robot_state = ROBOT_READY;
  87              		.loc 1 92 9 is_stmt 1 view .LVU27
  88              		.loc 1 92 21 is_stmt 0 view .LVU28
  89 0038 044A     		ldr	r2, .L5+4
  90 003a 1370     		strb	r3, [r2]
  93:application/cmd/robot_cmd.c ****         chassis_cmd_send.chassis_mode = CHASSIS_ROTATE;
  91              		.loc 1 93 9 is_stmt 1 view .LVU29
  92              		.loc 1 93 39 is_stmt 0 view .LVU30
  93 003c 044A     		ldr	r2, .L5+8
  94 003e 1375     		strb	r3, [r2, #20]
  94:application/cmd/robot_cmd.c ****         paw_cmd_send.paw_mode = Paw_ON;
  95              		.loc 1 94 9 is_stmt 1 view .LVU31
  96              		.loc 1 94 31 is_stmt 0 view .LVU32
  97 0040 044A     		ldr	r2, .L5+12
  98 0042 D370     		strb	r3, [r2, #3]
  95:application/cmd/robot_cmd.c ****          LOGINFO("[CMD] reinstate, robot ready");
  99              		.loc 1 95 49 is_stmt 1 view .LVU33
 100              	.L1:
  96:application/cmd/robot_cmd.c ****     }
  97:application/cmd/robot_cmd.c **** }
 101              		.loc 1 97 1 is_stmt 0 view .LVU34
 102 0044 7047     		bx	lr
 103              	.L6:
 104 0046 00BF     		.align	2
 105              	.L5:
 106 0048 00000000 		.word	rc_data
 107 004c 00000000 		.word	robot_state
 108 0050 00000000 		.word	chassis_cmd_send
 109 0054 00000000 		.word	paw_cmd_send
 110 0058 00000000 		.word	shoot_cmd_send
 111              		.cfi_endproc
 112              	.LFE171:
 114              		.section	.text.RemoteControlSet,"ax",%progbits
 115              		.align	1
 116              		.syntax unified
 117              		.thumb
 118              		.thumb_func
 120              	RemoteControlSet:
 121              	.LFB172:
  98:application/cmd/robot_cmd.c **** /**
  99:application/cmd/robot_cmd.c ****  * @brief æ§åˆ¶è¾“å…¥ä¸ºé¥æ§å™¨(è°ƒè¯•æ—¶)çš„æ¨¡å¼å’Œæ§åˆ¶é‡è®¾ç½®
 100:application/cmd/robot_cmd.c ****  *
 101:application/cmd/robot_cmd.c ****  */
 102:application/cmd/robot_cmd.c **** static void RemoteControlSet()
 103:application/cmd/robot_cmd.c **** {
 122              		.loc 1 103 1 is_stmt 1 view -0
 123              		.cfi_startproc
 124              		@ args = 0, pretend = 0, frame = 0
 125              		@ frame_needed = 0, uses_anonymous_args = 0
 126              		@ link register save eliminated.
 104:application/cmd/robot_cmd.c ****     // æ§åˆ¶åº•ç›˜å’Œäº‘å°è¿è¡Œæ¨¡å¼,äº‘å°å¾…æ·»åŠ ,äº‘å°æ˜¯å¦å§‹ç»ˆä½¿ç”¨IMUæ•°æ®?
 105:application/cmd/robot_cmd.c ****     // if (rc_data[TEMP].rc.SE>=0) // å³ä¾§å¼€å…³çŠ¶æ€[ä¸‹],åº•ç›˜è·Ÿéšäº‘å°
ARM GAS  C:\Users\Sive\AppData\Local\Temp\cclDYmFb.s 			page 5


 106:application/cmd/robot_cmd.c ****     // {
 107:application/cmd/robot_cmd.c ****         
 108:application/cmd/robot_cmd.c ****         // gimbal_cmd_send.gimbal_mode = GIMBAL_GYRO_MODE;
 109:application/cmd/robot_cmd.c ****     // }
 110:application/cmd/robot_cmd.c ****     // else if (switch_is_mid(rc_data[TEMP].rc.switch_right)) // å³ä¾§å¼€å…³çŠ¶æ€[ä¸­],åº•ç›˜å’Œä
 111:application/cmd/robot_cmd.c ****     // {
 112:application/cmd/robot_cmd.c ****         // chassis_cmd_send.chassis_mode = CHASSIS_NO_FOLLOW;
 113:application/cmd/robot_cmd.c ****         // gimbal_cmd_send.gimbal_mode = GIMBAL_FREE_MODE;
 114:application/cmd/robot_cmd.c ****     // }
 115:application/cmd/robot_cmd.c **** 
 116:application/cmd/robot_cmd.c ****     // äº‘å°å‚æ•°,ç¡®å®šäº‘å°æ§åˆ¶æ•°æ®
 117:application/cmd/robot_cmd.c ****     // if (switch_is_mid(rc_data[TEMP].rc.switch_left)) // å·¦ä¾§å¼€å…³çŠ¶æ€ä¸º[ä¸­],è§†è§‰æ¨¡å¼
 118:application/cmd/robot_cmd.c ****     // {
 119:application/cmd/robot_cmd.c ****         // å¾…æ·»åŠ ,è§†è§‰ä¼šå‘æ¥å’Œç›®æ ‡çš„è¯¯å·®,åŒæ ·å°†å…¶è½¬åŒ–ä¸ºtotal angleçš„å¢é‡è¿›
 120:application/cmd/robot_cmd.c ****         // ...
 121:application/cmd/robot_cmd.c ****     // }
 122:application/cmd/robot_cmd.c ****     // // å·¦ä¾§å¼€å…³çŠ¶æ€ä¸º[ä¸‹],æˆ–è§†è§‰æœªè¯†åˆ«åˆ°ç›®æ ‡,çº¯é¥æ§å™¨æ‹¨æ†æ§åˆ¶
 123:application/cmd/robot_cmd.c ****     // if (switch_is_down(rc_data[TEMP].rc.switch_left) || vision_recv_data->target_state == NO_TAR
 124:application/cmd/robot_cmd.c ****     // { // æŒ‰ç…§æ‘‡æ†çš„è¾“å‡ºå¤§å°è¿›è¡Œè§’åº¦å¢é‡,å¢ç›Šç³»æ•°éœ€è°ƒæ•´
 125:application/cmd/robot_cmd.c ****     //     gimbal_cmd_send.yaw += 0.005f * (float)rc_data[TEMP].rc.rocker_l_;
 126:application/cmd/robot_cmd.c ****     //     gimbal_cmd_send.pitch += 0.001f * (float)rc_data[TEMP].rc.rocker_l1;
 127:application/cmd/robot_cmd.c ****     // }
 128:application/cmd/robot_cmd.c ****     // paw 0
 129:application/cmd/robot_cmd.c ****     if(rc_data[TEMP].rc.SA<500){
 127              		.loc 1 129 5 view .LVU36
 128              		.loc 1 129 15 is_stmt 0 view .LVU37
 129 0000 434B     		ldr	r3, .L23
 130 0002 1B68     		ldr	r3, [r3]
 131              		.loc 1 129 24 view .LVU38
 132 0004 B3F91020 		ldrsh	r2, [r3, #16]
 133              		.loc 1 129 7 view .LVU39
 134 0008 B2F5FA7F 		cmp	r2, #500
 135 000c 4EDA     		bge	.L8
 130:application/cmd/robot_cmd.c ****         paw_cmd_send.paw0location=up;
 136              		.loc 1 130 9 is_stmt 1 view .LVU40
 137              		.loc 1 130 34 is_stmt 0 view .LVU41
 138 000e 414A     		ldr	r2, .L23+4
 139 0010 0021     		movs	r1, #0
 140 0012 1170     		strb	r1, [r2]
 141              	.L9:
 131:application/cmd/robot_cmd.c ****     }else
 132:application/cmd/robot_cmd.c ****     if(rc_data[TEMP].rc.SA>1500){
 133:application/cmd/robot_cmd.c ****         paw_cmd_send.paw0location=down;
 134:application/cmd/robot_cmd.c ****     }else{
 135:application/cmd/robot_cmd.c ****         paw_cmd_send.paw0location=stand;
 136:application/cmd/robot_cmd.c ****     } 
 137:application/cmd/robot_cmd.c ****     // paw 1
 138:application/cmd/robot_cmd.c ****     if(rc_data[TEMP].rc.SB<500){
 142              		.loc 1 138 5 is_stmt 1 view .LVU42
 143              		.loc 1 138 24 is_stmt 0 view .LVU43
 144 0014 B3F91220 		ldrsh	r2, [r3, #18]
 145              		.loc 1 138 7 view .LVU44
 146 0018 B2F5FA7F 		cmp	r2, #500
 147 001c 52DA     		bge	.L11
 139:application/cmd/robot_cmd.c ****         paw_cmd_send.paw1location=up;
 148              		.loc 1 139 9 is_stmt 1 view .LVU45
 149              		.loc 1 139 34 is_stmt 0 view .LVU46
ARM GAS  C:\Users\Sive\AppData\Local\Temp\cclDYmFb.s 			page 6


 150 001e 3D4A     		ldr	r2, .L23+4
 151 0020 0021     		movs	r1, #0
 152 0022 5170     		strb	r1, [r2, #1]
 153              	.L12:
 140:application/cmd/robot_cmd.c ****     }
 141:application/cmd/robot_cmd.c ****     else if
 142:application/cmd/robot_cmd.c ****     (rc_data[TEMP].rc.SB>1500){
 143:application/cmd/robot_cmd.c ****         paw_cmd_send.paw1location=down;
 144:application/cmd/robot_cmd.c ****     }else {
 145:application/cmd/robot_cmd.c ****         paw_cmd_send.paw1location=stand;
 146:application/cmd/robot_cmd.c ****     }
 147:application/cmd/robot_cmd.c ****     // paw 2    
 148:application/cmd/robot_cmd.c ****     if(rc_data[TEMP].rc.SC<500){
 154              		.loc 1 148 5 is_stmt 1 view .LVU47
 155              		.loc 1 148 24 is_stmt 0 view .LVU48
 156 0024 B3F91420 		ldrsh	r2, [r3, #20]
 157              		.loc 1 148 7 view .LVU49
 158 0028 B2F5FA7F 		cmp	r2, #500
 159 002c 56DA     		bge	.L14
 149:application/cmd/robot_cmd.c ****         paw_cmd_send.paw2location=up;
 160              		.loc 1 149 9 is_stmt 1 view .LVU50
 161              		.loc 1 149 34 is_stmt 0 view .LVU51
 162 002e 394A     		ldr	r2, .L23+4
 163 0030 0021     		movs	r1, #0
 164 0032 9170     		strb	r1, [r2, #2]
 165              	.L15:
 150:application/cmd/robot_cmd.c ****     }
 151:application/cmd/robot_cmd.c ****     else if
 152:application/cmd/robot_cmd.c ****     (rc_data[TEMP].rc.SC>1500){
 153:application/cmd/robot_cmd.c ****         paw_cmd_send.paw2location=down;
 154:application/cmd/robot_cmd.c ****     }else {
 155:application/cmd/robot_cmd.c ****         paw_cmd_send.paw2location=stand;
 156:application/cmd/robot_cmd.c ****     }
 157:application/cmd/robot_cmd.c **** 
 158:application/cmd/robot_cmd.c ****     if(rc_data[TEMP].rc.SD>600){
 166              		.loc 1 158 5 is_stmt 1 view .LVU52
 167              		.loc 1 158 24 is_stmt 0 view .LVU53
 168 0034 B3F91620 		ldrsh	r2, [r3, #22]
 169              		.loc 1 158 7 view .LVU54
 170 0038 B2F5167F 		cmp	r2, #600
 171 003c 5ADD     		ble	.L17
 159:application/cmd/robot_cmd.c ****         shoot_cmd_send.load_mode=LOAD_1_BULLET;
 172              		.loc 1 159 9 is_stmt 1 view .LVU55
 173              		.loc 1 159 33 is_stmt 0 view .LVU56
 174 003e 364A     		ldr	r2, .L23+8
 175 0040 0221     		movs	r1, #2
 176 0042 5170     		strb	r1, [r2, #1]
 177              	.L18:
 160:application/cmd/robot_cmd.c ****     }else{
 161:application/cmd/robot_cmd.c ****         shoot_cmd_send.load_mode=LOAD_STOP;
 162:application/cmd/robot_cmd.c ****     }
 163:application/cmd/robot_cmd.c **** 
 164:application/cmd/robot_cmd.c **** 
 165:application/cmd/robot_cmd.c ****     // åº•ç›˜å‚æ•°,ç›®å‰æ²¡æœ‰åŠ å…¥å°é™€èº(è°ƒè¯•ä¼¼ä¹æš‚æ—¶æ²¡æœ‰å¿…è¦),ç³»æ•°éœ€è¦è°ƒæ•´
 166:application/cmd/robot_cmd.c ****     chassis_cmd_send.vx = 10.0f * (float)rc_data[TEMP].rc.rocker_r_; // _æ°´å¹³æ–¹å‘
 178              		.loc 1 166 5 is_stmt 1 view .LVU57
 179              		.loc 1 166 58 is_stmt 0 view .LVU58
ARM GAS  C:\Users\Sive\AppData\Local\Temp\cclDYmFb.s 			page 7


 180 0044 B3F90420 		ldrsh	r2, [r3, #4]
 181 0048 07EE902A 		vmov	s15, r2	@ int
 182              		.loc 1 166 35 view .LVU59
 183 004c F8EEE77A 		vcvt.f32.s32	s15, s15
 184              		.loc 1 166 33 view .LVU60
 185 0050 B2EE047A 		vmov.f32	s14, #1.0e+1
 186 0054 67EE877A 		vmul.f32	s15, s15, s14
 187              		.loc 1 166 25 view .LVU61
 188 0058 304A     		ldr	r2, .L23+12
 189 005a C2ED007A 		vstr.32	s15, [r2]
 167:application/cmd/robot_cmd.c ****     chassis_cmd_send.vy = 10.0f * (float)rc_data[TEMP].rc.rocker_r1; // 1æ•°å€¼æ–¹å‘
 190              		.loc 1 167 5 is_stmt 1 view .LVU62
 191              		.loc 1 167 58 is_stmt 0 view .LVU63
 192 005e B3F90610 		ldrsh	r1, [r3, #6]
 193 0062 07EE901A 		vmov	s15, r1	@ int
 194              		.loc 1 167 35 view .LVU64
 195 0066 F8EEE77A 		vcvt.f32.s32	s15, s15
 196              		.loc 1 167 33 view .LVU65
 197 006a 67EE877A 		vmul.f32	s15, s15, s14
 198              		.loc 1 167 25 view .LVU66
 199 006e C2ED017A 		vstr.32	s15, [r2, #4]
 168:application/cmd/robot_cmd.c ****      chassis_cmd_send.wz = 10.0f * (float)rc_data[TEMP].rc.rocker_l_;
 200              		.loc 1 168 6 is_stmt 1 view .LVU67
 201              		.loc 1 168 59 is_stmt 0 view .LVU68
 202 0072 B3F90010 		ldrsh	r1, [r3]
 203 0076 07EE901A 		vmov	s15, r1	@ int
 204              		.loc 1 168 36 view .LVU69
 205 007a F8EEE77A 		vcvt.f32.s32	s15, s15
 206              		.loc 1 168 34 view .LVU70
 207 007e 67EE877A 		vmul.f32	s15, s15, s14
 208              		.loc 1 168 26 view .LVU71
 209 0082 C2ED027A 		vstr.32	s15, [r2, #8]
 169:application/cmd/robot_cmd.c ****       // æ—‹è½¬æ–¹å‘
 170:application/cmd/robot_cmd.c **** 
 171:application/cmd/robot_cmd.c ****     if(rc_data[TEMP].rc.SG>800){
 210              		.loc 1 171 5 is_stmt 1 view .LVU72
 211              		.loc 1 171 24 is_stmt 0 view .LVU73
 212 0086 B3F90E20 		ldrsh	r2, [r3, #14]
 213              		.loc 1 171 7 view .LVU74
 214 008a B2F5487F 		cmp	r2, #800
 215 008e 35DD     		ble	.L19
 172:application/cmd/robot_cmd.c ****        
 173:application/cmd/robot_cmd.c ****         shoot_cmd_send.shoot_rate1=60.0f*124;
 216              		.loc 1 173 9 is_stmt 1 view .LVU75
 217              		.loc 1 173 35 is_stmt 0 view .LVU76
 218 0090 2349     		ldr	r1, .L23+16
 219 0092 214A     		ldr	r2, .L23+8
 220 0094 C2F80510 		str	r1, [r2, #5]	@ unaligned
 221              	.L20:
 174:application/cmd/robot_cmd.c ****         
 175:application/cmd/robot_cmd.c ****     }else{
 176:application/cmd/robot_cmd.c ****         shoot_cmd_send.shoot_rate1=0;
 177:application/cmd/robot_cmd.c ****         
 178:application/cmd/robot_cmd.c ****     }
 179:application/cmd/robot_cmd.c ****     if(rc_data[TEMP].rc.SF>800){
 222              		.loc 1 179 5 is_stmt 1 view .LVU77
 223              		.loc 1 179 24 is_stmt 0 view .LVU78
ARM GAS  C:\Users\Sive\AppData\Local\Temp\cclDYmFb.s 			page 8


 224 0098 B3F90830 		ldrsh	r3, [r3, #8]
 225              		.loc 1 179 7 view .LVU79
 226 009c B3F5487F 		cmp	r3, #800
 227 00a0 31DD     		ble	.L21
 180:application/cmd/robot_cmd.c ****         shoot_cmd_send.shoot_rate2= -60.0f *924;
 228              		.loc 1 180 9 is_stmt 1 view .LVU80
 229              		.loc 1 180 35 is_stmt 0 view .LVU81
 230 00a2 204A     		ldr	r2, .L23+20
 231 00a4 1C4B     		ldr	r3, .L23+8
 232 00a6 C3F80920 		str	r2, [r3, #9]	@ unaligned
 233 00aa 7047     		bx	lr
 234              	.L8:
 132:application/cmd/robot_cmd.c ****         paw_cmd_send.paw0location=down;
 235              		.loc 1 132 5 is_stmt 1 view .LVU82
 132:application/cmd/robot_cmd.c ****         paw_cmd_send.paw0location=down;
 236              		.loc 1 132 7 is_stmt 0 view .LVU83
 237 00ac 40F2DC51 		movw	r1, #1500
 238 00b0 8A42     		cmp	r2, r1
 239 00b2 03DD     		ble	.L10
 133:application/cmd/robot_cmd.c ****     }else{
 240              		.loc 1 133 9 is_stmt 1 view .LVU84
 133:application/cmd/robot_cmd.c ****     }else{
 241              		.loc 1 133 34 is_stmt 0 view .LVU85
 242 00b4 174A     		ldr	r2, .L23+4
 243 00b6 0121     		movs	r1, #1
 244 00b8 1170     		strb	r1, [r2]
 245 00ba ABE7     		b	.L9
 246              	.L10:
 135:application/cmd/robot_cmd.c ****     } 
 247              		.loc 1 135 9 is_stmt 1 view .LVU86
 135:application/cmd/robot_cmd.c ****     } 
 248              		.loc 1 135 34 is_stmt 0 view .LVU87
 249 00bc 154A     		ldr	r2, .L23+4
 250 00be 0221     		movs	r1, #2
 251 00c0 1170     		strb	r1, [r2]
 252 00c2 A7E7     		b	.L9
 253              	.L11:
 141:application/cmd/robot_cmd.c ****     (rc_data[TEMP].rc.SB>1500){
 254              		.loc 1 141 10 is_stmt 1 view .LVU88
 142:application/cmd/robot_cmd.c ****         paw_cmd_send.paw1location=down;
 255              		.loc 1 142 5 is_stmt 0 view .LVU89
 256 00c4 40F2DC51 		movw	r1, #1500
 257 00c8 8A42     		cmp	r2, r1
 258 00ca 03DD     		ble	.L13
 143:application/cmd/robot_cmd.c ****     }else {
 259              		.loc 1 143 9 is_stmt 1 view .LVU90
 143:application/cmd/robot_cmd.c ****     }else {
 260              		.loc 1 143 34 is_stmt 0 view .LVU91
 261 00cc 114A     		ldr	r2, .L23+4
 262 00ce 0121     		movs	r1, #1
 263 00d0 5170     		strb	r1, [r2, #1]
 264 00d2 A7E7     		b	.L12
 265              	.L13:
 145:application/cmd/robot_cmd.c ****     }
 266              		.loc 1 145 9 is_stmt 1 view .LVU92
 145:application/cmd/robot_cmd.c ****     }
 267              		.loc 1 145 34 is_stmt 0 view .LVU93
ARM GAS  C:\Users\Sive\AppData\Local\Temp\cclDYmFb.s 			page 9


 268 00d4 0F4A     		ldr	r2, .L23+4
 269 00d6 0221     		movs	r1, #2
 270 00d8 5170     		strb	r1, [r2, #1]
 271 00da A3E7     		b	.L12
 272              	.L14:
 151:application/cmd/robot_cmd.c ****     (rc_data[TEMP].rc.SC>1500){
 273              		.loc 1 151 10 is_stmt 1 view .LVU94
 152:application/cmd/robot_cmd.c ****         paw_cmd_send.paw2location=down;
 274              		.loc 1 152 5 is_stmt 0 view .LVU95
 275 00dc 40F2DC51 		movw	r1, #1500
 276 00e0 8A42     		cmp	r2, r1
 277 00e2 03DD     		ble	.L16
 153:application/cmd/robot_cmd.c ****     }else {
 278              		.loc 1 153 9 is_stmt 1 view .LVU96
 153:application/cmd/robot_cmd.c ****     }else {
 279              		.loc 1 153 34 is_stmt 0 view .LVU97
 280 00e4 0B4A     		ldr	r2, .L23+4
 281 00e6 0121     		movs	r1, #1
 282 00e8 9170     		strb	r1, [r2, #2]
 283 00ea A3E7     		b	.L15
 284              	.L16:
 155:application/cmd/robot_cmd.c ****     }
 285              		.loc 1 155 9 is_stmt 1 view .LVU98
 155:application/cmd/robot_cmd.c ****     }
 286              		.loc 1 155 34 is_stmt 0 view .LVU99
 287 00ec 094A     		ldr	r2, .L23+4
 288 00ee 0221     		movs	r1, #2
 289 00f0 9170     		strb	r1, [r2, #2]
 290 00f2 9FE7     		b	.L15
 291              	.L17:
 161:application/cmd/robot_cmd.c ****     }
 292              		.loc 1 161 9 is_stmt 1 view .LVU100
 161:application/cmd/robot_cmd.c ****     }
 293              		.loc 1 161 33 is_stmt 0 view .LVU101
 294 00f4 084A     		ldr	r2, .L23+8
 295 00f6 0021     		movs	r1, #0
 296 00f8 5170     		strb	r1, [r2, #1]
 297 00fa A3E7     		b	.L18
 298              	.L19:
 176:application/cmd/robot_cmd.c ****         
 299              		.loc 1 176 9 is_stmt 1 view .LVU102
 176:application/cmd/robot_cmd.c ****         
 300              		.loc 1 176 35 is_stmt 0 view .LVU103
 301 00fc 0021     		movs	r1, #0
 302 00fe 064A     		ldr	r2, .L23+8
 303 0100 C2F80510 		str	r1, [r2, #5]	@ unaligned
 304 0104 C8E7     		b	.L20
 305              	.L21:
 181:application/cmd/robot_cmd.c ****     }else{
 182:application/cmd/robot_cmd.c ****         shoot_cmd_send.shoot_rate2= 0;
 306              		.loc 1 182 9 is_stmt 1 view .LVU104
 307              		.loc 1 182 35 is_stmt 0 view .LVU105
 308 0106 0022     		movs	r2, #0
 309 0108 034B     		ldr	r3, .L23+8
 310 010a C3F80920 		str	r2, [r3, #9]	@ unaligned
 183:application/cmd/robot_cmd.c ****     }
 184:application/cmd/robot_cmd.c ****     // å‘å°„å‚æ•°
ARM GAS  C:\Users\Sive\AppData\Local\Temp\cclDYmFb.s 			page 10


 185:application/cmd/robot_cmd.c ****     // if (switch_is_up(rc_data[TEMP].rc.switch_right)) // å³ä¾§å¼€å…³çŠ¶æ€[ä¸Š],å¼¹èˆ±æ‰“å¼€
 186:application/cmd/robot_cmd.c ****     //     ;                                            // å¼¹èˆ±èˆµæœºæ§åˆ¶,å¾…æ·»åŠ servo_motoræ
 187:application/cmd/robot_cmd.c ****     // else
 188:application/cmd/robot_cmd.c ****     //     ; // å¼¹èˆ±èˆµæœºæ§åˆ¶,å¾…æ·»åŠ servo_motoræ¨¡å—,å…³é—­
 189:application/cmd/robot_cmd.c **** 
 190:application/cmd/robot_cmd.c ****     //æ‘©æ“¦è½®æ§åˆ¶,æ‹¨è½®å‘ä¸Šæ‰“ä¸ºè´Ÿ,å‘ä¸‹ä¸ºæ­£
 191:application/cmd/robot_cmd.c ****     // if (rc_data[TEMP].rc.dial < -100) // å‘ä¸Šè¶…è¿‡100,æ‰“å¼€æ‘©æ“¦è½®
 192:application/cmd/robot_cmd.c ****     //     shoot_cmd_send.friction_mode = FRICTION_ON;
 193:application/cmd/robot_cmd.c ****     // else
 194:application/cmd/robot_cmd.c ****     //     shoot_cmd_send.friction_mode = FRICTION_OFF;
 195:application/cmd/robot_cmd.c ****     // // æ‹¨å¼¹æ§åˆ¶,é¥æ§å™¨å›ºå®šä¸ºä¸€ç§æ‹¨å¼¹æ¨¡å¼,å¯è‡ªè¡Œé€‰æ‹©
 196:application/cmd/robot_cmd.c ****     // if (rc_data[TEMP].rc.dial < -500)
 197:application/cmd/robot_cmd.c ****     //     shoot_cmd_send.load_mode = LOAD_BURSTFIRE;
 198:application/cmd/robot_cmd.c ****     // else
 199:application/cmd/robot_cmd.c ****     //     shoot_cmd_send.load_mode = LOAD_STOP;
 200:application/cmd/robot_cmd.c ****     // // å°„é¢‘æ§åˆ¶,å›ºå®šæ¯ç§’1å‘,åç»­å¯ä»¥æ ¹æ®å·¦ä¾§æ‹¨è½®çš„å€¼å¤§å°åˆ‡æ¢å°„é¢‘,
 201:application/cmd/robot_cmd.c ****     // shoot_cmd_send.shoot_rate = 8;
 202:application/cmd/robot_cmd.c **** }
 311              		.loc 1 202 1 view .LVU106
 312 010e 7047     		bx	lr
 313              	.L24:
 314              		.align	2
 315              	.L23:
 316 0110 00000000 		.word	rc_data
 317 0114 00000000 		.word	paw_cmd_send
 318 0118 00000000 		.word	shoot_cmd_send
 319 011c 00000000 		.word	chassis_cmd_send
 320 0120 0080E845 		.word	1172865024
 321 0124 009058C7 		.word	-950497280
 322              		.cfi_endproc
 323              	.LFE172:
 325              		.section	.rodata.RobotCMDInit.str1.4,"aMS",%progbits,1
 326              		.align	2
 327              	.LC0:
 328 0000 7061775F 		.ascii	"paw_cmd\000"
 328      636D6400 
 329              		.align	2
 330              	.LC1:
 331 0008 7061775F 		.ascii	"paw_feed\000"
 331      66656564 
 331      00
 332 0011 000000   		.align	2
 333              	.LC2:
 334 0014 73686F6F 		.ascii	"shoot_cmd\000"
 334      745F636D 
 334      6400
 335 001e 0000     		.align	2
 336              	.LC3:
 337 0020 73686F6F 		.ascii	"shoot_feed\000"
 337      745F6665 
 337      656400
 338 002b 00       		.align	2
 339              	.LC4:
 340 002c 63686173 		.ascii	"chassis_cmd\000"
 340      7369735F 
 340      636D6400 
 341              		.align	2
ARM GAS  C:\Users\Sive\AppData\Local\Temp\cclDYmFb.s 			page 11


 342              	.LC5:
 343 0038 63686173 		.ascii	"chassis_feed\000"
 343      7369735F 
 343      66656564 
 343      00
 344              		.section	.text.RobotCMDInit,"ax",%progbits
 345              		.align	1
 346              		.global	RobotCMDInit
 347              		.syntax unified
 348              		.thumb
 349              		.thumb_func
 351              	RobotCMDInit:
 352              	.LFB170:
  39:application/cmd/robot_cmd.c ****     rc_data = RemoteControlInit(&huart3);   // ä¿®æ”¹ä¸ºå¯¹åº”ä¸²å£,æ³¨æ„å¦‚æœæ˜¯è‡ªç ”æ¿dbuså
 353              		.loc 1 39 1 is_stmt 1 view -0
 354              		.cfi_startproc
 355              		@ args = 0, pretend = 0, frame = 0
 356              		@ frame_needed = 0, uses_anonymous_args = 0
 357 0000 08B5     		push	{r3, lr}
 358              		.cfi_def_cfa_offset 8
 359              		.cfi_offset 3, -8
 360              		.cfi_offset 14, -4
  40:application/cmd/robot_cmd.c ****     dt_data = dtInit(&huart1);
 361              		.loc 1 40 5 view .LVU108
  40:application/cmd/robot_cmd.c ****     dt_data = dtInit(&huart1);
 362              		.loc 1 40 15 is_stmt 0 view .LVU109
 363 0002 1948     		ldr	r0, .L27
 364 0004 FFF7FEFF 		bl	RemoteControlInit
 365              	.LVL0:
  40:application/cmd/robot_cmd.c ****     dt_data = dtInit(&huart1);
 366              		.loc 1 40 13 discriminator 1 view .LVU110
 367 0008 184B     		ldr	r3, .L27+4
 368 000a 1860     		str	r0, [r3]
  41:application/cmd/robot_cmd.c ****     // vision_recv_data = VisionInit(&huart1); // è§†è§‰é€šä¿¡ä¸²å£
 369              		.loc 1 41 5 is_stmt 1 view .LVU111
  41:application/cmd/robot_cmd.c ****     // vision_recv_data = VisionInit(&huart1); // è§†è§‰é€šä¿¡ä¸²å£
 370              		.loc 1 41 15 is_stmt 0 view .LVU112
 371 000c 1848     		ldr	r0, .L27+8
 372 000e FFF7FEFF 		bl	dtInit
 373              	.LVL1:
  41:application/cmd/robot_cmd.c ****     // vision_recv_data = VisionInit(&huart1); // è§†è§‰é€šä¿¡ä¸²å£
 374              		.loc 1 41 13 discriminator 1 view .LVU113
 375 0012 184B     		ldr	r3, .L27+12
 376 0014 1860     		str	r0, [r3]
  46:application/cmd/robot_cmd.c ****     paw_feed_sub = SubRegister("paw_feed", sizeof(Paw_Upload_Data_s));
 377              		.loc 1 46 5 is_stmt 1 view .LVU114
  46:application/cmd/robot_cmd.c ****     paw_feed_sub = SubRegister("paw_feed", sizeof(Paw_Upload_Data_s));
 378              		.loc 1 46 19 is_stmt 0 view .LVU115
 379 0016 0C21     		movs	r1, #12
 380 0018 1748     		ldr	r0, .L27+16
 381 001a FFF7FEFF 		bl	PubRegister
 382              	.LVL2:
  46:application/cmd/robot_cmd.c ****     paw_feed_sub = SubRegister("paw_feed", sizeof(Paw_Upload_Data_s));
 383              		.loc 1 46 17 discriminator 1 view .LVU116
 384 001e 174B     		ldr	r3, .L27+20
 385 0020 1860     		str	r0, [r3]
  47:application/cmd/robot_cmd.c ****      shoot_cmd_pub = PubRegister("shoot_cmd", sizeof(Shoot_Ctrl_Cmd_s));
ARM GAS  C:\Users\Sive\AppData\Local\Temp\cclDYmFb.s 			page 12


 386              		.loc 1 47 5 is_stmt 1 view .LVU117
  47:application/cmd/robot_cmd.c ****      shoot_cmd_pub = PubRegister("shoot_cmd", sizeof(Shoot_Ctrl_Cmd_s));
 387              		.loc 1 47 20 is_stmt 0 view .LVU118
 388 0022 0021     		movs	r1, #0
 389 0024 1648     		ldr	r0, .L27+24
 390 0026 FFF7FEFF 		bl	SubRegister
 391              	.LVL3:
  47:application/cmd/robot_cmd.c ****      shoot_cmd_pub = PubRegister("shoot_cmd", sizeof(Shoot_Ctrl_Cmd_s));
 392              		.loc 1 47 18 discriminator 1 view .LVU119
 393 002a 164B     		ldr	r3, .L27+28
 394 002c 1860     		str	r0, [r3]
  48:application/cmd/robot_cmd.c ****     shoot_feed_sub = SubRegister("shoot_feed", sizeof(Shoot_Upload_Data_s));
 395              		.loc 1 48 6 is_stmt 1 view .LVU120
  48:application/cmd/robot_cmd.c ****     shoot_feed_sub = SubRegister("shoot_feed", sizeof(Shoot_Upload_Data_s));
 396              		.loc 1 48 22 is_stmt 0 view .LVU121
 397 002e 0D21     		movs	r1, #13
 398 0030 1548     		ldr	r0, .L27+32
 399 0032 FFF7FEFF 		bl	PubRegister
 400              	.LVL4:
  48:application/cmd/robot_cmd.c ****     shoot_feed_sub = SubRegister("shoot_feed", sizeof(Shoot_Upload_Data_s));
 401              		.loc 1 48 20 discriminator 1 view .LVU122
 402 0036 154B     		ldr	r3, .L27+36
 403 0038 1860     		str	r0, [r3]
  49:application/cmd/robot_cmd.c ****      
 404              		.loc 1 49 5 is_stmt 1 view .LVU123
  49:application/cmd/robot_cmd.c ****      
 405              		.loc 1 49 22 is_stmt 0 view .LVU124
 406 003a 0021     		movs	r1, #0
 407 003c 1448     		ldr	r0, .L27+40
 408 003e FFF7FEFF 		bl	SubRegister
 409              	.LVL5:
  49:application/cmd/robot_cmd.c ****      
 410              		.loc 1 49 20 discriminator 1 view .LVU125
 411 0042 144B     		ldr	r3, .L27+44
 412 0044 1860     		str	r0, [r3]
  53:application/cmd/robot_cmd.c ****     chassis_feed_sub = SubRegister("chassis_feed", sizeof(Chassis_Upload_Data_s));
 413              		.loc 1 53 5 is_stmt 1 view .LVU126
  53:application/cmd/robot_cmd.c ****     chassis_feed_sub = SubRegister("chassis_feed", sizeof(Chassis_Upload_Data_s));
 414              		.loc 1 53 23 is_stmt 0 view .LVU127
 415 0046 1921     		movs	r1, #25
 416 0048 1348     		ldr	r0, .L27+48
 417 004a FFF7FEFF 		bl	PubRegister
 418              	.LVL6:
  53:application/cmd/robot_cmd.c ****     chassis_feed_sub = SubRegister("chassis_feed", sizeof(Chassis_Upload_Data_s));
 419              		.loc 1 53 21 discriminator 1 view .LVU128
 420 004e 134B     		ldr	r3, .L27+52
 421 0050 1860     		str	r0, [r3]
  54:application/cmd/robot_cmd.c **** #endif // ONE_BOARD
 422              		.loc 1 54 5 is_stmt 1 view .LVU129
  54:application/cmd/robot_cmd.c **** #endif // ONE_BOARD
 423              		.loc 1 54 24 is_stmt 0 view .LVU130
 424 0052 0121     		movs	r1, #1
 425 0054 1248     		ldr	r0, .L27+56
 426 0056 FFF7FEFF 		bl	SubRegister
 427              	.LVL7:
  54:application/cmd/robot_cmd.c **** #endif // ONE_BOARD
 428              		.loc 1 54 22 discriminator 1 view .LVU131
ARM GAS  C:\Users\Sive\AppData\Local\Temp\cclDYmFb.s 			page 13


 429 005a 124B     		ldr	r3, .L27+60
 430 005c 1860     		str	r0, [r3]
  70:application/cmd/robot_cmd.c **** }
 431              		.loc 1 70 5 is_stmt 1 view .LVU132
  70:application/cmd/robot_cmd.c **** }
 432              		.loc 1 70 17 is_stmt 0 view .LVU133
 433 005e 124B     		ldr	r3, .L27+64
 434 0060 0122     		movs	r2, #1
 435 0062 1A70     		strb	r2, [r3]
  71:application/cmd/robot_cmd.c **** 
 436              		.loc 1 71 1 view .LVU134
 437 0064 08BD     		pop	{r3, pc}
 438              	.L28:
 439 0066 00BF     		.align	2
 440              	.L27:
 441 0068 00000000 		.word	huart3
 442 006c 00000000 		.word	rc_data
 443 0070 00000000 		.word	huart1
 444 0074 00000000 		.word	dt_data
 445 0078 00000000 		.word	.LC0
 446 007c 00000000 		.word	paw_cmd_pub
 447 0080 08000000 		.word	.LC1
 448 0084 00000000 		.word	paw_feed_sub
 449 0088 14000000 		.word	.LC2
 450 008c 00000000 		.word	shoot_cmd_pub
 451 0090 20000000 		.word	.LC3
 452 0094 00000000 		.word	shoot_feed_sub
 453 0098 2C000000 		.word	.LC4
 454 009c 00000000 		.word	chassis_cmd_pub
 455 00a0 38000000 		.word	.LC5
 456 00a4 00000000 		.word	chassis_feed_sub
 457 00a8 00000000 		.word	robot_state
 458              		.cfi_endproc
 459              	.LFE170:
 461              		.section	.text.RobotCMDTask,"ax",%progbits
 462              		.align	1
 463              		.global	RobotCMDTask
 464              		.syntax unified
 465              		.thumb
 466              		.thumb_func
 468              	RobotCMDTask:
 469              	.LFB173:
 203:application/cmd/robot_cmd.c **** 
 204:application/cmd/robot_cmd.c **** /* æœºå™¨äººæ ¸å¿ƒæ§åˆ¶ä»»åŠ¡,200Hzé¢‘ç‡è¿è¡Œ(å¿…é¡»é«˜äºè§†è§‰å‘é€é¢‘ç‡) */
 205:application/cmd/robot_cmd.c **** void RobotCMDTask()
 206:application/cmd/robot_cmd.c **** {
 470              		.loc 1 206 1 is_stmt 1 view -0
 471              		.cfi_startproc
 472              		@ args = 0, pretend = 0, frame = 0
 473              		@ frame_needed = 0, uses_anonymous_args = 0
 474 0000 08B5     		push	{r3, lr}
 475              		.cfi_def_cfa_offset 8
 476              		.cfi_offset 3, -8
 477              		.cfi_offset 14, -4
 207:application/cmd/robot_cmd.c ****     // ä»å…¶ä»–åº”ç”¨è·å–å›ä¼ æ•°æ®
 208:application/cmd/robot_cmd.c **** #ifdef ONE_BOARD
 209:application/cmd/robot_cmd.c ****     SubGetMessage(chassis_feed_sub, (void *)&chassis_fetch_data);
ARM GAS  C:\Users\Sive\AppData\Local\Temp\cclDYmFb.s 			page 14


 478              		.loc 1 209 5 view .LVU136
 479 0002 0F49     		ldr	r1, .L31
 480 0004 0F4B     		ldr	r3, .L31+4
 481 0006 1868     		ldr	r0, [r3]
 482 0008 FFF7FEFF 		bl	SubGetMessage
 483              	.LVL8:
 210:application/cmd/robot_cmd.c **** #endif // ONE_BOARD
 211:application/cmd/robot_cmd.c **** #ifdef GIMBAL_BOARD
 212:application/cmd/robot_cmd.c ****     chassis_fetch_data = *(Chassis_Upload_Data_s *)CANCommGet(cmd_can_comm);
 213:application/cmd/robot_cmd.c **** #endif // GIMBAL_BOARD
 214:application/cmd/robot_cmd.c ****     SubGetMessage(paw_feed_sub, &paw_fetch_data);//---äº‘å°å’Œå‘å°„
 484              		.loc 1 214 5 view .LVU137
 485 000c 0E49     		ldr	r1, .L31+8
 486 000e 0F4B     		ldr	r3, .L31+12
 487 0010 1868     		ldr	r0, [r3]
 488 0012 FFF7FEFF 		bl	SubGetMessage
 489              	.LVL9:
 215:application/cmd/robot_cmd.c ****     // SubGetMessage(gimbal_feed_sub, &gimbal_fetch_data);
 216:application/cmd/robot_cmd.c **** 
 217:application/cmd/robot_cmd.c ****     // æ ¹æ®gimbalçš„åé¦ˆå€¼è®¡ç®—äº‘å°å’Œåº•ç›˜æ­£æ–¹å‘çš„å¤¹è§’,ä¸éœ€è¦ä¼ å‚,é€šè¿‡static
 218:application/cmd/robot_cmd.c ****     // CalcOffsetAngle();
 219:application/cmd/robot_cmd.c ****     // // æ ¹æ®é¥æ§å™¨å·¦ä¾§å¼€å…³,ç¡®å®šå½“å‰ä½¿ç”¨çš„æ§åˆ¶æ¨¡å¼ä¸ºé¥æ§å™¨è°ƒè¯•è¿˜æ˜¯é”®é
 220:application/cmd/robot_cmd.c ****     // if (switch_is_down(rc_data[TEMP].rc.switch_left)) // é¥æ§å™¨å·¦ä¾§å¼€å…³çŠ¶æ€ä¸º[ä¸‹],é¥
 221:application/cmd/robot_cmd.c ****         RemoteControlSet();
 490              		.loc 1 221 9 view .LVU138
 491 0016 FFF7FEFF 		bl	RemoteControlSet
 492              	.LVL10:
 222:application/cmd/robot_cmd.c ****     // else if (switch_is_up(rc_data[TEMP].rc.switch_left)) // é¥æ§å™¨å·¦ä¾§å¼€å…³çŠ¶æ€ä¸º[ä¸Š],
 223:application/cmd/robot_cmd.c ****         // MouseKeySet();
 224:application/cmd/robot_cmd.c **** 
 225:application/cmd/robot_cmd.c ****         EmergencyHandler(); // å¤„ç†æ¨¡å—ç¦»çº¿å’Œé¥æ§å™¨æ€¥åœç­‰ç´§æ€¥æƒ…å†µ
 493              		.loc 1 225 9 view .LVU139
 494 001a FFF7FEFF 		bl	EmergencyHandler
 495              	.LVL11:
 226:application/cmd/robot_cmd.c **** 
 227:application/cmd/robot_cmd.c ****     // è®¾ç½®è§†è§‰å‘é€æ•°æ®,è¿˜éœ€å¢åŠ åŠ é€Ÿåº¦å’Œè§’é€Ÿåº¦æ•°æ®
 228:application/cmd/robot_cmd.c ****     // VisionSetFlag(chassis_fetch_data.enemy_color,,chassis_fetch_data.bullet_speed)
 229:application/cmd/robot_cmd.c **** 
 230:application/cmd/robot_cmd.c ****     // æ¨é€æ¶ˆæ¯,åŒæ¿é€šä¿¡,è§†è§‰é€šä¿¡ç­‰
 231:application/cmd/robot_cmd.c ****     // å…¶ä»–åº”ç”¨æ‰€éœ€çš„æ§åˆ¶æ•°æ®åœ¨remotecontrolsetmodeå’Œmousekeysetmodeä¸­å®Œæˆè®¾ç½®
 232:application/cmd/robot_cmd.c **** #ifdef ONE_BOARD
 233:application/cmd/robot_cmd.c ****     PubPushMessage(chassis_cmd_pub, (void *)&chassis_cmd_send);
 496              		.loc 1 233 5 view .LVU140
 497 001e 0C49     		ldr	r1, .L31+16
 498 0020 0C4B     		ldr	r3, .L31+20
 499 0022 1868     		ldr	r0, [r3]
 500 0024 FFF7FEFF 		bl	PubPushMessage
 501              	.LVL12:
 234:application/cmd/robot_cmd.c ****     PubPushMessage(paw_cmd_pub, (void *)&paw_cmd_send);
 502              		.loc 1 234 5 view .LVU141
 503 0028 0B49     		ldr	r1, .L31+24
 504 002a 0C4B     		ldr	r3, .L31+28
 505 002c 1868     		ldr	r0, [r3]
 506 002e FFF7FEFF 		bl	PubPushMessage
 507              	.LVL13:
 235:application/cmd/robot_cmd.c ****     PubPushMessage(shoot_cmd_pub, (void *)&shoot_cmd_send);
 508              		.loc 1 235 5 view .LVU142
ARM GAS  C:\Users\Sive\AppData\Local\Temp\cclDYmFb.s 			page 15


 509 0032 0B49     		ldr	r1, .L31+32
 510 0034 0B4B     		ldr	r3, .L31+36
 511 0036 1868     		ldr	r0, [r3]
 512 0038 FFF7FEFF 		bl	PubPushMessage
 513              	.LVL14:
 236:application/cmd/robot_cmd.c **** #endif // ONE_BOARD
 237:application/cmd/robot_cmd.c **** #ifdef GIMBAL_BOARD
 238:application/cmd/robot_cmd.c ****     CANCommSend(cmd_can_comm, (void *)&chassis_cmd_send);
 239:application/cmd/robot_cmd.c **** #endif // GIMBAL_BOARD
 240:application/cmd/robot_cmd.c ****     
 241:application/cmd/robot_cmd.c ****     // PubPushMessage(gimbal_cmd_pub, (void *)&gimbal_cmd_send);
 242:application/cmd/robot_cmd.c ****     // VisionSend(&vision_send_data);
 243:application/cmd/robot_cmd.c **** }
 514              		.loc 1 243 1 is_stmt 0 view .LVU143
 515 003c 08BD     		pop	{r3, pc}
 516              	.L32:
 517 003e 00BF     		.align	2
 518              	.L31:
 519 0040 00000000 		.word	chassis_fetch_data
 520 0044 00000000 		.word	chassis_feed_sub
 521 0048 00000000 		.word	paw_fetch_data
 522 004c 00000000 		.word	paw_feed_sub
 523 0050 00000000 		.word	chassis_cmd_send
 524 0054 00000000 		.word	chassis_cmd_pub
 525 0058 00000000 		.word	paw_cmd_send
 526 005c 00000000 		.word	paw_cmd_pub
 527 0060 00000000 		.word	shoot_cmd_send
 528 0064 00000000 		.word	shoot_cmd_pub
 529              		.cfi_endproc
 530              	.LFE173:
 532              		.section	.bss.robot_state,"aw",%nobits
 535              	robot_state:
 536 0000 00       		.space	1
 537              		.section	.bss.shoot_cmd_send,"aw",%nobits
 538              		.align	2
 541              	shoot_cmd_send:
 542 0000 00000000 		.space	13
 542      00000000 
 542      00000000 
 542      00
 543              		.section	.bss.shoot_feed_sub,"aw",%nobits
 544              		.align	2
 547              	shoot_feed_sub:
 548 0000 00000000 		.space	4
 549              		.section	.bss.shoot_cmd_pub,"aw",%nobits
 550              		.align	2
 553              	shoot_cmd_pub:
 554 0000 00000000 		.space	4
 555              		.section	.bss.paw_fetch_data,"aw",%nobits
 556              		.align	2
 559              	paw_fetch_data:
 560              		.section	.bss.paw_cmd_send,"aw",%nobits
 561              		.align	2
 564              	paw_cmd_send:
 565 0000 00000000 		.space	12
 565      00000000 
 565      00000000 
ARM GAS  C:\Users\Sive\AppData\Local\Temp\cclDYmFb.s 			page 16


 566              		.section	.bss.paw_feed_sub,"aw",%nobits
 567              		.align	2
 570              	paw_feed_sub:
 571 0000 00000000 		.space	4
 572              		.section	.bss.paw_cmd_pub,"aw",%nobits
 573              		.align	2
 576              	paw_cmd_pub:
 577 0000 00000000 		.space	4
 578              		.section	.bss.dt_data,"aw",%nobits
 579              		.align	2
 582              	dt_data:
 583 0000 00000000 		.space	4
 584              		.section	.bss.rc_data,"aw",%nobits
 585              		.align	2
 588              	rc_data:
 589 0000 00000000 		.space	4
 590              		.section	.bss.chassis_fetch_data,"aw",%nobits
 591              		.align	2
 594              	chassis_fetch_data:
 595 0000 00       		.space	1
 596              		.section	.bss.chassis_cmd_send,"aw",%nobits
 597              		.align	2
 600              	chassis_cmd_send:
 601 0000 00000000 		.space	25
 601      00000000 
 601      00000000 
 601      00000000 
 601      00000000 
 602              		.section	.bss.chassis_cmd_pub,"aw",%nobits
 603              		.align	2
 606              	chassis_cmd_pub:
 607 0000 00000000 		.space	4
 608              		.section	.bss.chassis_feed_sub,"aw",%nobits
 609              		.align	2
 612              	chassis_feed_sub:
 613 0000 00000000 		.space	4
 614              		.text
 615              	.Letext0:
 616              		.file 2 "C:/Users/Sive/AppData/Roaming/Code/User/globalStorage/bmd.stm32-for-vscode/@xpack-dev-too
 617              		.file 3 "C:/Users/Sive/AppData/Roaming/Code/User/globalStorage/bmd.stm32-for-vscode/@xpack-dev-too
 618              		.file 4 "Drivers/CMSIS/Device/ST/STM32F4xx/Include/stm32f407xx.h"
 619              		.file 5 "Drivers/STM32F4xx_HAL_Driver/Inc/stm32f4xx_hal_def.h"
 620              		.file 6 "Drivers/STM32F4xx_HAL_Driver/Inc/stm32f4xx_hal_dma.h"
 621              		.file 7 "Drivers/STM32F4xx_HAL_Driver/Inc/stm32f4xx_hal_uart.h"
 622              		.file 8 "application/robot_def.h"
 623              		.file 9 "Core/Inc/usart.h"
 624              		.file 10 "moudels/remote/remote_control.h"
 625              		.file 11 "moudels/distance/distance.h"
 626              		.file 12 "moudels/message_center/message_center.h"
ARM GAS  C:\Users\Sive\AppData\Local\Temp\cclDYmFb.s 			page 17


DEFINED SYMBOLS
                            *ABS*:00000000 robot_cmd.c
C:\Users\Sive\AppData\Local\Temp\cclDYmFb.s:21     .text.EmergencyHandler:00000000 $t
C:\Users\Sive\AppData\Local\Temp\cclDYmFb.s:26     .text.EmergencyHandler:00000000 EmergencyHandler
C:\Users\Sive\AppData\Local\Temp\cclDYmFb.s:106    .text.EmergencyHandler:00000048 $d
C:\Users\Sive\AppData\Local\Temp\cclDYmFb.s:588    .bss.rc_data:00000000 rc_data
C:\Users\Sive\AppData\Local\Temp\cclDYmFb.s:535    .bss.robot_state:00000000 robot_state
C:\Users\Sive\AppData\Local\Temp\cclDYmFb.s:600    .bss.chassis_cmd_send:00000000 chassis_cmd_send
C:\Users\Sive\AppData\Local\Temp\cclDYmFb.s:564    .bss.paw_cmd_send:00000000 paw_cmd_send
C:\Users\Sive\AppData\Local\Temp\cclDYmFb.s:541    .bss.shoot_cmd_send:00000000 shoot_cmd_send
C:\Users\Sive\AppData\Local\Temp\cclDYmFb.s:115    .text.RemoteControlSet:00000000 $t
C:\Users\Sive\AppData\Local\Temp\cclDYmFb.s:120    .text.RemoteControlSet:00000000 RemoteControlSet
C:\Users\Sive\AppData\Local\Temp\cclDYmFb.s:316    .text.RemoteControlSet:00000110 $d
C:\Users\Sive\AppData\Local\Temp\cclDYmFb.s:326    .rodata.RobotCMDInit.str1.4:00000000 $d
C:\Users\Sive\AppData\Local\Temp\cclDYmFb.s:345    .text.RobotCMDInit:00000000 $t
C:\Users\Sive\AppData\Local\Temp\cclDYmFb.s:351    .text.RobotCMDInit:00000000 RobotCMDInit
C:\Users\Sive\AppData\Local\Temp\cclDYmFb.s:441    .text.RobotCMDInit:00000068 $d
C:\Users\Sive\AppData\Local\Temp\cclDYmFb.s:582    .bss.dt_data:00000000 dt_data
C:\Users\Sive\AppData\Local\Temp\cclDYmFb.s:576    .bss.paw_cmd_pub:00000000 paw_cmd_pub
C:\Users\Sive\AppData\Local\Temp\cclDYmFb.s:570    .bss.paw_feed_sub:00000000 paw_feed_sub
C:\Users\Sive\AppData\Local\Temp\cclDYmFb.s:553    .bss.shoot_cmd_pub:00000000 shoot_cmd_pub
C:\Users\Sive\AppData\Local\Temp\cclDYmFb.s:547    .bss.shoot_feed_sub:00000000 shoot_feed_sub
C:\Users\Sive\AppData\Local\Temp\cclDYmFb.s:606    .bss.chassis_cmd_pub:00000000 chassis_cmd_pub
C:\Users\Sive\AppData\Local\Temp\cclDYmFb.s:612    .bss.chassis_feed_sub:00000000 chassis_feed_sub
C:\Users\Sive\AppData\Local\Temp\cclDYmFb.s:462    .text.RobotCMDTask:00000000 $t
C:\Users\Sive\AppData\Local\Temp\cclDYmFb.s:468    .text.RobotCMDTask:00000000 RobotCMDTask
C:\Users\Sive\AppData\Local\Temp\cclDYmFb.s:519    .text.RobotCMDTask:00000040 $d
C:\Users\Sive\AppData\Local\Temp\cclDYmFb.s:594    .bss.chassis_fetch_data:00000000 chassis_fetch_data
C:\Users\Sive\AppData\Local\Temp\cclDYmFb.s:559    .bss.paw_fetch_data:00000000 paw_fetch_data
C:\Users\Sive\AppData\Local\Temp\cclDYmFb.s:536    .bss.robot_state:00000000 $d
C:\Users\Sive\AppData\Local\Temp\cclDYmFb.s:538    .bss.shoot_cmd_send:00000000 $d
C:\Users\Sive\AppData\Local\Temp\cclDYmFb.s:544    .bss.shoot_feed_sub:00000000 $d
C:\Users\Sive\AppData\Local\Temp\cclDYmFb.s:550    .bss.shoot_cmd_pub:00000000 $d
C:\Users\Sive\AppData\Local\Temp\cclDYmFb.s:561    .bss.paw_cmd_send:00000000 $d
C:\Users\Sive\AppData\Local\Temp\cclDYmFb.s:567    .bss.paw_feed_sub:00000000 $d
C:\Users\Sive\AppData\Local\Temp\cclDYmFb.s:573    .bss.paw_cmd_pub:00000000 $d
C:\Users\Sive\AppData\Local\Temp\cclDYmFb.s:579    .bss.dt_data:00000000 $d
C:\Users\Sive\AppData\Local\Temp\cclDYmFb.s:585    .bss.rc_data:00000000 $d
C:\Users\Sive\AppData\Local\Temp\cclDYmFb.s:591    .bss.chassis_fetch_data:00000000 $d
C:\Users\Sive\AppData\Local\Temp\cclDYmFb.s:597    .bss.chassis_cmd_send:00000000 $d
C:\Users\Sive\AppData\Local\Temp\cclDYmFb.s:603    .bss.chassis_cmd_pub:00000000 $d
C:\Users\Sive\AppData\Local\Temp\cclDYmFb.s:609    .bss.chassis_feed_sub:00000000 $d

UNDEFINED SYMBOLS
RemoteControlInit
dtInit
PubRegister
SubRegister
huart3
huart1
SubGetMessage
PubPushMessage
