ARM GAS  C:\Users\Sive\AppData\Local\Temp\ccwBwFnT.s 			page 1


   1              		.cpu cortex-m4
   2              		.arch armv7e-m
   3              		.fpu fpv4-sp-d16
   4              		.eabi_attribute 27, 1
   5              		.eabi_attribute 28, 1
   6              		.eabi_attribute 20, 1
   7              		.eabi_attribute 21, 1
   8              		.eabi_attribute 23, 3
   9              		.eabi_attribute 24, 1
  10              		.eabi_attribute 25, 1
  11              		.eabi_attribute 26, 1
  12              		.eabi_attribute 30, 1
  13              		.eabi_attribute 34, 1
  14              		.eabi_attribute 18, 4
  15              		.file	"robot_cmd.c"
  16              		.text
  17              	.Ltext0:
  18              		.cfi_sections	.debug_frame
  19              		.file 1 "application/cmd/robot_cmd.c"
  20              		.section	.text.EmergencyHandler,"ax",%progbits
  21              		.align	1
  22              		.syntax unified
  23              		.thumb
  24              		.thumb_func
  26              	EmergencyHandler:
  27              	.LFB171:
   1:application/cmd/robot_cmd.c **** // app
   2:application/cmd/robot_cmd.c **** #include "robot_def.h"
   3:application/cmd/robot_cmd.c **** #include "robot_cmd.h"
   4:application/cmd/robot_cmd.c **** // module
   5:application/cmd/robot_cmd.c **** #include "remote_control.h"
   6:application/cmd/robot_cmd.c **** #include  "distance.h"
   7:application/cmd/robot_cmd.c **** #include "ins_task.h"
   8:application/cmd/robot_cmd.c **** // #include "master_process.h"--è§†è§‰
   9:application/cmd/robot_cmd.c **** #include "message_center.h"
  10:application/cmd/robot_cmd.c **** #include "general_def.h"
  11:application/cmd/robot_cmd.c **** #include "dji_motor.h"
  12:application/cmd/robot_cmd.c **** // bsp
  13:application/cmd/robot_cmd.c **** #include "bsp_dwt.h"
  14:application/cmd/robot_cmd.c **** #include "bsp_log.h"
  15:application/cmd/robot_cmd.c **** #include "ins_task.h"
  16:application/cmd/robot_cmd.c **** #ifdef ONE_BOARD
  17:application/cmd/robot_cmd.c **** static Subscriber_t *chassis_feed_sub; // åº•ç›˜åé¦ˆä¿¡æ¯è®¢é˜…è€…
  18:application/cmd/robot_cmd.c **** static Publisher_t *chassis_cmd_pub;   // åº•ç›˜æ§åˆ¶æ¶ˆæ¯å‘å¸ƒè€…
  19:application/cmd/robot_cmd.c **** #endif                                 // ONE_BOARD
  20:application/cmd/robot_cmd.c **** static Chassis_Ctrl_Cmd_s chassis_cmd_send;      // å‘é€ç»™åº•ç›˜åº”ç”¨çš„ä¿¡æ¯,åŒ…æ‹¬æ§åˆ¶ä¿¡æ
  21:application/cmd/robot_cmd.c **** static Chassis_Upload_Data_s chassis_fetch_data; // ä»åº•ç›˜åº”ç”¨æ¥æ”¶çš„åé¦ˆä¿¡æ¯ä¿¡æ¯,åº•ç
  22:application/cmd/robot_cmd.c **** 
  23:application/cmd/robot_cmd.c **** static RC_ctrl_t *rc_data;              // é¥æ§å™¨æ•°æ®,åˆå§‹åŒ–æ—¶è¿”å›
  24:application/cmd/robot_cmd.c **** static Distance_data *dt_data;
  25:application/cmd/robot_cmd.c **** 
  26:application/cmd/robot_cmd.c **** static Publisher_t *paw_cmd_pub;           // å‘å°„æ§åˆ¶æ¶ˆæ¯å‘å¸ƒè€…
  27:application/cmd/robot_cmd.c **** static Subscriber_t *paw_feed_sub;         // å‘å°„åé¦ˆä¿¡æ¯è®¢é˜…è€…
  28:application/cmd/robot_cmd.c **** static Paw_Ctrl_Cmd_s paw_cmd_send;      // ä¼ é€’ç»™å‘å°„çš„æ§åˆ¶ä¿¡æ¯
  29:application/cmd/robot_cmd.c **** static Paw_Upload_Data_s paw_fetch_data; // ä»å‘å°„è·å–çš„åé¦ˆä¿¡æ¯
  30:application/cmd/robot_cmd.c **** 
  31:application/cmd/robot_cmd.c **** static Publisher_t *shoot_cmd_pub;           // å‘å°„æ§åˆ¶æ¶ˆæ¯å‘å¸ƒè€…
ARM GAS  C:\Users\Sive\AppData\Local\Temp\ccwBwFnT.s 			page 2


  32:application/cmd/robot_cmd.c **** static Subscriber_t *shoot_feed_sub;         // å‘å°„åé¦ˆä¿¡æ¯è®¢é˜…è€…
  33:application/cmd/robot_cmd.c **** static Shoot_Ctrl_Cmd_s shoot_cmd_send;      // ä¼ é€’ç»™å‘å°„çš„æ§åˆ¶ä¿¡æ¯
  34:application/cmd/robot_cmd.c **** static Shoot_Upload_Data_s shoot_fetch_data; // ä»å‘å°„è·å–çš„åé¦ˆä¿¡æ¯
  35:application/cmd/robot_cmd.c **** 
  36:application/cmd/robot_cmd.c **** static Robot_Status_e robot_state; // æœºå™¨äººæ•´ä½“å·¥ä½œçŠ¶æ€
  37:application/cmd/robot_cmd.c **** 
  38:application/cmd/robot_cmd.c **** void RobotCMDInit()
  39:application/cmd/robot_cmd.c **** {
  40:application/cmd/robot_cmd.c ****     rc_data = RemoteControlInit(&huart3);   // ä¿®æ”¹ä¸ºå¯¹åº”ä¸²å£,æ³¨æ„å¦‚æœæ˜¯è‡ªç ”æ¿dbuså
  41:application/cmd/robot_cmd.c ****     dt_data = dtInit(&huart1); //è·å¾—æµ‹è·ä¼ æ„Ÿå™¨æ•°æ®
  42:application/cmd/robot_cmd.c ****     // vision_recv_data = VisionInit(&huart1); // è§†è§‰é€šä¿¡ä¸²å£
  43:application/cmd/robot_cmd.c **** 
  44:application/cmd/robot_cmd.c ****     // gimbal_cmd_pub = PubRegister("gimbal_cmd", sizeof(Gimbal_Ctrl_Cmd_s));
  45:application/cmd/robot_cmd.c ****     // gimbal_feed_sub = SubRegister("gimbal_feed", sizeof(Gimbal_Upload_Data_s));
  46:application/cmd/robot_cmd.c ****     paw_cmd_pub = PubRegister("paw_cmd", sizeof(Paw_Ctrl_Cmd_s));
  47:application/cmd/robot_cmd.c ****     paw_feed_sub = SubRegister("paw_feed", sizeof(Paw_Upload_Data_s));
  48:application/cmd/robot_cmd.c ****      shoot_cmd_pub = PubRegister("shoot_cmd", sizeof(Shoot_Ctrl_Cmd_s));
  49:application/cmd/robot_cmd.c ****     shoot_feed_sub = SubRegister("shoot_feed", sizeof(Shoot_Upload_Data_s));
  50:application/cmd/robot_cmd.c ****      
  51:application/cmd/robot_cmd.c **** 
  52:application/cmd/robot_cmd.c **** #ifdef ONE_BOARD //  åŒæ¿å…¼å®¹
  53:application/cmd/robot_cmd.c ****     chassis_cmd_pub = PubRegister("chassis_cmd", sizeof(Chassis_Ctrl_Cmd_s));
  54:application/cmd/robot_cmd.c ****     chassis_feed_sub = SubRegister("chassis_feed", sizeof(Chassis_Upload_Data_s));
  55:application/cmd/robot_cmd.c **** #endif // ONE_BOARD
  56:application/cmd/robot_cmd.c **** #ifdef GIMBAL_BOARD
  57:application/cmd/robot_cmd.c ****     CANComm_Init_Config_s comm_conf = {
  58:application/cmd/robot_cmd.c ****         .can_config = {
  59:application/cmd/robot_cmd.c ****             .can_handle = &hcan1,
  60:application/cmd/robot_cmd.c ****             .tx_id = 0x312,
  61:application/cmd/robot_cmd.c ****             .rx_id = 0x311,
  62:application/cmd/robot_cmd.c ****         },
  63:application/cmd/robot_cmd.c ****         .recv_data_len = sizeof(Chassis_Upload_Data_s),
  64:application/cmd/robot_cmd.c ****         .send_data_len = sizeof(Chassis_Ctrl_Cmd_s),
  65:application/cmd/robot_cmd.c ****     };
  66:application/cmd/robot_cmd.c ****     cmd_can_comm = CANCommInit(&comm_conf);
  67:application/cmd/robot_cmd.c **** #endif // GIMBAL_BOARD
  68:application/cmd/robot_cmd.c ****     // gimbal_cmd_send.pitch = 0;--äº‘å°
  69:application/cmd/robot_cmd.c **** 
  70:application/cmd/robot_cmd.c ****     robot_state = ROBOT_READY; // å¯åŠ¨æ—¶æœºå™¨äººè¿›å…¥å·¥ä½œæ¨¡å¼,åç»­åŠ å…¥æ‰€æœ‰åº”ç”¨åˆå
  71:application/cmd/robot_cmd.c **** }
  72:application/cmd/robot_cmd.c **** 
  73:application/cmd/robot_cmd.c **** static void EmergencyHandler()//----è®¾ç½®æ€¥åœ
  74:application/cmd/robot_cmd.c **** {
  28              		.loc 1 74 1 view -0
  29              		.cfi_startproc
  30              		@ args = 0, pretend = 0, frame = 0
  31              		@ frame_needed = 0, uses_anonymous_args = 0
  32              		@ link register save eliminated.
  75:application/cmd/robot_cmd.c ****     // æ‹¨è½®çš„å‘ä¸‹æ‹¨è¶…è¿‡ä¸€åŠè¿›å…¥æ€¥åœæ¨¡å¼.æ³¨æ„å‘æ‰“æ—¶ä¸‹æ‹¨è½®æ˜¯æ­£
  76:application/cmd/robot_cmd.c ****     if (rc_data[TEMP].rc.SE < 0 || robot_state == ROBOT_STOP) // è¿˜éœ€æ·»åŠ é‡è¦åº”ç”¨å’Œæ¨¡å—ç
  33              		.loc 1 76 5 view .LVU1
  34              		.loc 1 76 16 is_stmt 0 view .LVU2
  35 0000 114B     		ldr	r3, .L5
  36 0002 1A68     		ldr	r2, [r3]
  37              		.loc 1 76 25 view .LVU3
  38 0004 B2F90A30 		ldrsh	r3, [r2, #10]
  39              		.loc 1 76 8 view .LVU4
ARM GAS  C:\Users\Sive\AppData\Local\Temp\ccwBwFnT.s 			page 3


  40 0008 002B     		cmp	r3, #0
  41 000a 02DB     		blt	.L2
  42              		.loc 1 76 48 discriminator 1 view .LVU5
  43 000c 0F4B     		ldr	r3, .L5+4
  44 000e 1B78     		ldrb	r3, [r3]	@ zero_extendqisi2
  45              		.loc 1 76 33 discriminator 1 view .LVU6
  46 0010 53B9     		cbnz	r3, .L3
  47              	.L2:
  77:application/cmd/robot_cmd.c ****     {
  78:application/cmd/robot_cmd.c ****         robot_state = ROBOT_STOP;
  48              		.loc 1 78 9 is_stmt 1 view .LVU7
  49              		.loc 1 78 21 is_stmt 0 view .LVU8
  50 0012 0023     		movs	r3, #0
  51 0014 0D49     		ldr	r1, .L5+4
  52 0016 0B70     		strb	r3, [r1]
  79:application/cmd/robot_cmd.c ****         // gimbal_cmd_send.gimbal_mode = GIMBAL_ZERO_FORCE;
  80:application/cmd/robot_cmd.c ****         chassis_cmd_send.chassis_mode = CHASSIS_ZERO_FORCE;
  53              		.loc 1 80 9 is_stmt 1 view .LVU9
  54              		.loc 1 80 39 is_stmt 0 view .LVU10
  55 0018 0D49     		ldr	r1, .L5+8
  56 001a 0B75     		strb	r3, [r1, #20]
  81:application/cmd/robot_cmd.c ****         paw_cmd_send.paw_mode = Paw_OFF;
  57              		.loc 1 81 9 is_stmt 1 view .LVU11
  58              		.loc 1 81 31 is_stmt 0 view .LVU12
  59 001c 0D49     		ldr	r1, .L5+12
  60 001e CB70     		strb	r3, [r1, #3]
  82:application/cmd/robot_cmd.c ****         shoot_cmd_send.friction_mode = FRICTION_OFF;
  61              		.loc 1 82 9 is_stmt 1 view .LVU13
  62              		.loc 1 82 38 is_stmt 0 view .LVU14
  63 0020 0D49     		ldr	r1, .L5+16
  64 0022 CB70     		strb	r3, [r1, #3]
  83:application/cmd/robot_cmd.c ****         shoot_cmd_send.load_mode = LOAD_STOP;
  65              		.loc 1 83 9 is_stmt 1 view .LVU15
  66              		.loc 1 83 34 is_stmt 0 view .LVU16
  67 0024 4B70     		strb	r3, [r1, #1]
  84:application/cmd/robot_cmd.c ****         shoot_cmd_send.shoot_mode = SHOOT_OFF;
  68              		.loc 1 84 9 is_stmt 1 view .LVU17
  69              		.loc 1 84 35 is_stmt 0 view .LVU18
  70 0026 0B70     		strb	r3, [r1]
  71              	.L3:
  85:application/cmd/robot_cmd.c ****          LOGERROR("[CMD] emergency stop!");
  72              		.loc 1 85 43 is_stmt 1 view .LVU19
  86:application/cmd/robot_cmd.c ****     }
  87:application/cmd/robot_cmd.c ****     // é¥æ§å™¨å³ä¾§å¼€å…³ä¸º[ä¸Š],æ¢å¤æ­£å¸¸è¿è¡Œ
  88:application/cmd/robot_cmd.c ****     if ( rc_data[TEMP].rc.SE>=0)
  73              		.loc 1 88 5 view .LVU20
  74              		.loc 1 88 26 is_stmt 0 view .LVU21
  75 0028 B2F90A30 		ldrsh	r3, [r2, #10]
  76              		.loc 1 88 8 view .LVU22
  77 002c 002B     		cmp	r3, #0
  78 002e 09DB     		blt	.L1
  89:application/cmd/robot_cmd.c ****     {   
  90:application/cmd/robot_cmd.c ****         shoot_cmd_send.friction_mode = FRICTION_ON;
  79              		.loc 1 90 9 is_stmt 1 view .LVU23
  80              		.loc 1 90 38 is_stmt 0 view .LVU24
  81 0030 094A     		ldr	r2, .L5+16
  82 0032 0123     		movs	r3, #1
ARM GAS  C:\Users\Sive\AppData\Local\Temp\ccwBwFnT.s 			page 4


  83 0034 D370     		strb	r3, [r2, #3]
  91:application/cmd/robot_cmd.c ****         shoot_cmd_send.shoot_mode = SHOOT_ON;
  84              		.loc 1 91 9 is_stmt 1 view .LVU25
  85              		.loc 1 91 35 is_stmt 0 view .LVU26
  86 0036 1370     		strb	r3, [r2]
  92:application/cmd/robot_cmd.c ****         robot_state = ROBOT_READY;
  87              		.loc 1 92 9 is_stmt 1 view .LVU27
  88              		.loc 1 92 21 is_stmt 0 view .LVU28
  89 0038 044A     		ldr	r2, .L5+4
  90 003a 1370     		strb	r3, [r2]
  93:application/cmd/robot_cmd.c ****         chassis_cmd_send.chassis_mode = CHASSIS_ROTATE;
  91              		.loc 1 93 9 is_stmt 1 view .LVU29
  92              		.loc 1 93 39 is_stmt 0 view .LVU30
  93 003c 044A     		ldr	r2, .L5+8
  94 003e 1375     		strb	r3, [r2, #20]
  94:application/cmd/robot_cmd.c ****         paw_cmd_send.paw_mode = Paw_ON;
  95              		.loc 1 94 9 is_stmt 1 view .LVU31
  96              		.loc 1 94 31 is_stmt 0 view .LVU32
  97 0040 044A     		ldr	r2, .L5+12
  98 0042 D370     		strb	r3, [r2, #3]
  95:application/cmd/robot_cmd.c ****          LOGINFO("[CMD] reinstate, robot ready");
  99              		.loc 1 95 49 is_stmt 1 view .LVU33
 100              	.L1:
  96:application/cmd/robot_cmd.c ****     }
  97:application/cmd/robot_cmd.c **** }
 101              		.loc 1 97 1 is_stmt 0 view .LVU34
 102 0044 7047     		bx	lr
 103              	.L6:
 104 0046 00BF     		.align	2
 105              	.L5:
 106 0048 00000000 		.word	rc_data
 107 004c 00000000 		.word	robot_state
 108 0050 00000000 		.word	chassis_cmd_send
 109 0054 00000000 		.word	paw_cmd_send
 110 0058 00000000 		.word	shoot_cmd_send
 111              		.cfi_endproc
 112              	.LFE171:
 114              		.section	.text.CalcOffsetAngleDistance,"ax",%progbits
 115              		.align	1
 116              		.syntax unified
 117              		.thumb
 118              		.thumb_func
 120              	CalcOffsetAngleDistance:
 121              	.LFB172:
  98:application/cmd/robot_cmd.c **** 
  99:application/cmd/robot_cmd.c **** /**
 100:application/cmd/robot_cmd.c ****  * @brief è·å¾—åº•ç›˜çš„å½“å‰è§’åº¦å’Œè·ç¦»
 101:application/cmd/robot_cmd.c ****  *
 102:application/cmd/robot_cmd.c ****  */
 103:application/cmd/robot_cmd.c **** static void CalcOffsetAngleDistance(){
 122              		.loc 1 103 38 is_stmt 1 view -0
 123              		.cfi_startproc
 124              		@ args = 0, pretend = 0, frame = 0
 125              		@ frame_needed = 0, uses_anonymous_args = 0
 126              		@ link register save eliminated.
 104:application/cmd/robot_cmd.c ****     chassis_cmd_send.x=(dt_data[TEMP].l2+dt_data[TEMP].r1)/2;
 127              		.loc 1 104 5 view .LVU36
ARM GAS  C:\Users\Sive\AppData\Local\Temp\ccwBwFnT.s 			page 5


 128              		.loc 1 104 32 is_stmt 0 view .LVU37
 129 0000 074B     		ldr	r3, .L8
 130 0002 1A68     		ldr	r2, [r3]
 131              		.loc 1 104 38 view .LVU38
 132 0004 5388     		ldrh	r3, [r2, #2]
 133              		.loc 1 104 55 view .LVU39
 134 0006 9288     		ldrh	r2, [r2, #4]
 135              		.loc 1 104 59 view .LVU40
 136 0008 1344     		add	r3, r3, r2
 137 000a 5B10     		asrs	r3, r3, #1
 138              		.loc 1 104 23 view .LVU41
 139 000c 07EE903A 		vmov	s15, r3	@ int
 140 0010 F8EEE77A 		vcvt.f32.s32	s15, s15
 141 0014 17EE903A 		vmov	r3, s15
 142 0018 024A     		ldr	r2, .L8+4
 143 001a C2F81930 		str	r3, [r2, #25]	@ unaligned
 105:application/cmd/robot_cmd.c **** }
 144              		.loc 1 105 1 view .LVU42
 145 001e 7047     		bx	lr
 146              	.L9:
 147              		.align	2
 148              	.L8:
 149 0020 00000000 		.word	dt_data
 150 0024 00000000 		.word	chassis_cmd_send
 151              		.cfi_endproc
 152              	.LFE172:
 154              		.section	.text.RemoteControlSet,"ax",%progbits
 155              		.align	1
 156              		.syntax unified
 157              		.thumb
 158              		.thumb_func
 160              	RemoteControlSet:
 161              	.LFB173:
 106:application/cmd/robot_cmd.c **** 
 107:application/cmd/robot_cmd.c **** 
 108:application/cmd/robot_cmd.c **** /**
 109:application/cmd/robot_cmd.c ****  * @brief æ§åˆ¶è¾“å…¥ä¸ºé¥æ§å™¨(è°ƒè¯•æ—¶)çš„æ¨¡å¼å’Œæ§åˆ¶é‡è®¾ç½®
 110:application/cmd/robot_cmd.c ****  *
 111:application/cmd/robot_cmd.c ****  */
 112:application/cmd/robot_cmd.c **** static void RemoteControlSet()
 113:application/cmd/robot_cmd.c **** {
 162              		.loc 1 113 1 is_stmt 1 view -0
 163              		.cfi_startproc
 164              		@ args = 0, pretend = 0, frame = 0
 165              		@ frame_needed = 0, uses_anonymous_args = 0
 166              		@ link register save eliminated.
 114:application/cmd/robot_cmd.c ****     // æ§åˆ¶åº•ç›˜å’Œäº‘å°è¿è¡Œæ¨¡å¼,äº‘å°å¾…æ·»åŠ ,äº‘å°æ˜¯å¦å§‹ç»ˆä½¿ç”¨IMUæ•°æ®?
 115:application/cmd/robot_cmd.c ****     // if (rc_data[TEMP].rc.SE>=0) // å³ä¾§å¼€å…³çŠ¶æ€[ä¸‹],åº•ç›˜è·Ÿéšäº‘å°
 116:application/cmd/robot_cmd.c ****     // {
 117:application/cmd/robot_cmd.c ****         
 118:application/cmd/robot_cmd.c ****         // gimbal_cmd_send.gimbal_mode = GIMBAL_GYRO_MODE;
 119:application/cmd/robot_cmd.c ****     // }
 120:application/cmd/robot_cmd.c ****     // else if (switch_is_mid(rc_data[TEMP].rc.switch_right)) // å³ä¾§å¼€å…³çŠ¶æ€[ä¸­],åº•ç›˜å’Œä
 121:application/cmd/robot_cmd.c ****     // {
 122:application/cmd/robot_cmd.c ****         // chassis_cmd_send.chassis_mode = CHASSIS_NO_FOLLOW;
 123:application/cmd/robot_cmd.c ****         // gimbal_cmd_send.gimbal_mode = GIMBAL_FREE_MODE;
 124:application/cmd/robot_cmd.c ****     // }
ARM GAS  C:\Users\Sive\AppData\Local\Temp\ccwBwFnT.s 			page 6


 125:application/cmd/robot_cmd.c **** 
 126:application/cmd/robot_cmd.c ****     // äº‘å°å‚æ•°,ç¡®å®šäº‘å°æ§åˆ¶æ•°æ®
 127:application/cmd/robot_cmd.c ****     // if (switch_is_mid(rc_data[TEMP].rc.switch_left)) // å·¦ä¾§å¼€å…³çŠ¶æ€ä¸º[ä¸­],è§†è§‰æ¨¡å¼
 128:application/cmd/robot_cmd.c ****     // {
 129:application/cmd/robot_cmd.c ****         // å¾…æ·»åŠ ,è§†è§‰ä¼šå‘æ¥å’Œç›®æ ‡çš„è¯¯å·®,åŒæ ·å°†å…¶è½¬åŒ–ä¸ºtotal angleçš„å¢é‡è¿›
 130:application/cmd/robot_cmd.c ****         // ...
 131:application/cmd/robot_cmd.c ****     // }
 132:application/cmd/robot_cmd.c ****     // // å·¦ä¾§å¼€å…³çŠ¶æ€ä¸º[ä¸‹],æˆ–è§†è§‰æœªè¯†åˆ«åˆ°ç›®æ ‡,çº¯é¥æ§å™¨æ‹¨æ†æ§åˆ¶
 133:application/cmd/robot_cmd.c ****     // if (switch_is_down(rc_data[TEMP].rc.switch_left) || vision_recv_data->target_state == NO_TAR
 134:application/cmd/robot_cmd.c ****     // { // æŒ‰ç…§æ‘‡æ†çš„è¾“å‡ºå¤§å°è¿›è¡Œè§’åº¦å¢é‡,å¢ç›Šç³»æ•°éœ€è°ƒæ•´
 135:application/cmd/robot_cmd.c ****     //     gimbal_cmd_send.yaw += 0.005f * (float)rc_data[TEMP].rc.rocker_l_;
 136:application/cmd/robot_cmd.c ****     //     gimbal_cmd_send.pitch += 0.001f * (float)rc_data[TEMP].rc.rocker_l1;
 137:application/cmd/robot_cmd.c ****     // }
 138:application/cmd/robot_cmd.c ****     // paw 0
 139:application/cmd/robot_cmd.c ****     if(rc_data[TEMP].rc.SA<500){
 167              		.loc 1 139 5 view .LVU44
 168              		.loc 1 139 15 is_stmt 0 view .LVU45
 169 0000 3F4B     		ldr	r3, .L26
 170 0002 1B68     		ldr	r3, [r3]
 171              		.loc 1 139 24 view .LVU46
 172 0004 B3F91020 		ldrsh	r2, [r3, #16]
 173              		.loc 1 139 7 view .LVU47
 174 0008 B2F5FA7F 		cmp	r2, #500
 175 000c 46DA     		bge	.L11
 140:application/cmd/robot_cmd.c ****         paw_cmd_send.paw0location=up;
 176              		.loc 1 140 9 is_stmt 1 view .LVU48
 177              		.loc 1 140 34 is_stmt 0 view .LVU49
 178 000e 3D4A     		ldr	r2, .L26+4
 179 0010 0021     		movs	r1, #0
 180 0012 1170     		strb	r1, [r2]
 181              	.L12:
 141:application/cmd/robot_cmd.c ****     }else
 142:application/cmd/robot_cmd.c ****     if(rc_data[TEMP].rc.SA>1500){
 143:application/cmd/robot_cmd.c ****         paw_cmd_send.paw0location=down;
 144:application/cmd/robot_cmd.c ****     }else{
 145:application/cmd/robot_cmd.c ****         paw_cmd_send.paw0location=stand;
 146:application/cmd/robot_cmd.c ****     } 
 147:application/cmd/robot_cmd.c ****     // paw 1
 148:application/cmd/robot_cmd.c ****     if(rc_data[TEMP].rc.SB<500){
 182              		.loc 1 148 5 is_stmt 1 view .LVU50
 183              		.loc 1 148 24 is_stmt 0 view .LVU51
 184 0014 B3F91220 		ldrsh	r2, [r3, #18]
 185              		.loc 1 148 7 view .LVU52
 186 0018 B2F5FA7F 		cmp	r2, #500
 187 001c 4ADA     		bge	.L14
 149:application/cmd/robot_cmd.c ****         paw_cmd_send.paw1location=up;
 188              		.loc 1 149 9 is_stmt 1 view .LVU53
 189              		.loc 1 149 34 is_stmt 0 view .LVU54
 190 001e 394A     		ldr	r2, .L26+4
 191 0020 0021     		movs	r1, #0
 192 0022 5170     		strb	r1, [r2, #1]
 193              	.L15:
 150:application/cmd/robot_cmd.c ****     }
 151:application/cmd/robot_cmd.c ****     else if
 152:application/cmd/robot_cmd.c ****     (rc_data[TEMP].rc.SB>1500){
 153:application/cmd/robot_cmd.c ****         paw_cmd_send.paw1location=down;
 154:application/cmd/robot_cmd.c ****     }else {
ARM GAS  C:\Users\Sive\AppData\Local\Temp\ccwBwFnT.s 			page 7


 155:application/cmd/robot_cmd.c ****         paw_cmd_send.paw1location=stand;
 156:application/cmd/robot_cmd.c ****     }
 157:application/cmd/robot_cmd.c ****     // paw 2    
 158:application/cmd/robot_cmd.c ****     if(rc_data[TEMP].rc.SC<500){
 194              		.loc 1 158 5 is_stmt 1 view .LVU55
 195              		.loc 1 158 24 is_stmt 0 view .LVU56
 196 0024 B3F91420 		ldrsh	r2, [r3, #20]
 197              		.loc 1 158 7 view .LVU57
 198 0028 B2F5FA7F 		cmp	r2, #500
 199 002c 4EDA     		bge	.L17
 159:application/cmd/robot_cmd.c ****         paw_cmd_send.paw2location=up;
 200              		.loc 1 159 9 is_stmt 1 view .LVU58
 201              		.loc 1 159 34 is_stmt 0 view .LVU59
 202 002e 354A     		ldr	r2, .L26+4
 203 0030 0021     		movs	r1, #0
 204 0032 9170     		strb	r1, [r2, #2]
 205              	.L18:
 160:application/cmd/robot_cmd.c ****     }
 161:application/cmd/robot_cmd.c ****     else if
 162:application/cmd/robot_cmd.c ****     (rc_data[TEMP].rc.SC>1500){
 163:application/cmd/robot_cmd.c ****         paw_cmd_send.paw2location=down;
 164:application/cmd/robot_cmd.c ****     }else {
 165:application/cmd/robot_cmd.c ****         paw_cmd_send.paw2location=stand;
 166:application/cmd/robot_cmd.c ****     }
 167:application/cmd/robot_cmd.c **** 
 168:application/cmd/robot_cmd.c ****     if(rc_data[TEMP].rc.SD>600){
 206              		.loc 1 168 5 is_stmt 1 view .LVU60
 207              		.loc 1 168 24 is_stmt 0 view .LVU61
 208 0034 B3F91620 		ldrsh	r2, [r3, #22]
 209              		.loc 1 168 7 view .LVU62
 210 0038 B2F5167F 		cmp	r2, #600
 211 003c 52DD     		ble	.L20
 169:application/cmd/robot_cmd.c ****         shoot_cmd_send.load_mode=LOAD_1_BULLET;
 212              		.loc 1 169 9 is_stmt 1 view .LVU63
 213              		.loc 1 169 33 is_stmt 0 view .LVU64
 214 003e 324A     		ldr	r2, .L26+8
 215 0040 0221     		movs	r1, #2
 216 0042 5170     		strb	r1, [r2, #1]
 217              	.L21:
 170:application/cmd/robot_cmd.c ****     }else{
 171:application/cmd/robot_cmd.c ****         shoot_cmd_send.load_mode=LOAD_STOP;
 172:application/cmd/robot_cmd.c ****     }
 173:application/cmd/robot_cmd.c **** 
 174:application/cmd/robot_cmd.c **** 
 175:application/cmd/robot_cmd.c ****     // åº•ç›˜å‚æ•°,ç›®å‰æ²¡æœ‰åŠ å…¥å°é™€èº(è°ƒè¯•ä¼¼ä¹æš‚æ—¶æ²¡æœ‰å¿…è¦),ç³»æ•°éœ€è¦è°ƒæ•´
 176:application/cmd/robot_cmd.c ****     chassis_cmd_send.vx =   (float)rc_data[TEMP].rc.rocker_r_; // _æ°´å¹³æ–¹å‘
 218              		.loc 1 176 5 is_stmt 1 view .LVU65
 219              		.loc 1 176 52 is_stmt 0 view .LVU66
 220 0044 B3F90420 		ldrsh	r2, [r3, #4]
 221 0048 07EE902A 		vmov	s15, r2	@ int
 222              		.loc 1 176 29 view .LVU67
 223 004c F8EEE77A 		vcvt.f32.s32	s15, s15
 224              		.loc 1 176 25 view .LVU68
 225 0050 2E4A     		ldr	r2, .L26+12
 226 0052 C2ED007A 		vstr.32	s15, [r2]
 177:application/cmd/robot_cmd.c ****     chassis_cmd_send.vy =  (float)rc_data[TEMP].rc.rocker_r1; // 1æ•°å€¼æ–¹å‘
 227              		.loc 1 177 5 is_stmt 1 view .LVU69
ARM GAS  C:\Users\Sive\AppData\Local\Temp\ccwBwFnT.s 			page 8


 228              		.loc 1 177 51 is_stmt 0 view .LVU70
 229 0056 B3F90610 		ldrsh	r1, [r3, #6]
 230 005a 07EE901A 		vmov	s15, r1	@ int
 231              		.loc 1 177 28 view .LVU71
 232 005e F8EEE77A 		vcvt.f32.s32	s15, s15
 233              		.loc 1 177 25 view .LVU72
 234 0062 C2ED017A 		vstr.32	s15, [r2, #4]
 178:application/cmd/robot_cmd.c ****      chassis_cmd_send.wz =   (float)rc_data[TEMP].rc.rocker_l_;
 235              		.loc 1 178 6 is_stmt 1 view .LVU73
 236              		.loc 1 178 53 is_stmt 0 view .LVU74
 237 0066 B3F90010 		ldrsh	r1, [r3]
 238 006a 07EE901A 		vmov	s15, r1	@ int
 239              		.loc 1 178 30 view .LVU75
 240 006e F8EEE77A 		vcvt.f32.s32	s15, s15
 241              		.loc 1 178 26 view .LVU76
 242 0072 C2ED027A 		vstr.32	s15, [r2, #8]
 179:application/cmd/robot_cmd.c ****       // æ—‹è½¬æ–¹å‘
 180:application/cmd/robot_cmd.c **** 
 181:application/cmd/robot_cmd.c ****     if(rc_data[TEMP].rc.SG>800){
 243              		.loc 1 181 5 is_stmt 1 view .LVU77
 244              		.loc 1 181 24 is_stmt 0 view .LVU78
 245 0076 B3F90E20 		ldrsh	r2, [r3, #14]
 246              		.loc 1 181 7 view .LVU79
 247 007a B2F5487F 		cmp	r2, #800
 248 007e 35DD     		ble	.L22
 182:application/cmd/robot_cmd.c ****        
 183:application/cmd/robot_cmd.c ****         shoot_cmd_send.shoot_rate1=60.0f*124;
 249              		.loc 1 183 9 is_stmt 1 view .LVU80
 250              		.loc 1 183 35 is_stmt 0 view .LVU81
 251 0080 2349     		ldr	r1, .L26+16
 252 0082 214A     		ldr	r2, .L26+8
 253 0084 C2F80510 		str	r1, [r2, #5]	@ unaligned
 254              	.L23:
 184:application/cmd/robot_cmd.c ****         
 185:application/cmd/robot_cmd.c ****     }else{
 186:application/cmd/robot_cmd.c ****         shoot_cmd_send.shoot_rate1=0;
 187:application/cmd/robot_cmd.c ****         
 188:application/cmd/robot_cmd.c ****     }
 189:application/cmd/robot_cmd.c ****     if(rc_data[TEMP].rc.SF>800){
 255              		.loc 1 189 5 is_stmt 1 view .LVU82
 256              		.loc 1 189 24 is_stmt 0 view .LVU83
 257 0088 B3F90830 		ldrsh	r3, [r3, #8]
 258              		.loc 1 189 7 view .LVU84
 259 008c B3F5487F 		cmp	r3, #800
 260 0090 31DD     		ble	.L24
 190:application/cmd/robot_cmd.c ****         shoot_cmd_send.shoot_rate2= -60.0f *924;
 261              		.loc 1 190 9 is_stmt 1 view .LVU85
 262              		.loc 1 190 35 is_stmt 0 view .LVU86
 263 0092 204A     		ldr	r2, .L26+20
 264 0094 1C4B     		ldr	r3, .L26+8
 265 0096 C3F80920 		str	r2, [r3, #9]	@ unaligned
 266 009a 7047     		bx	lr
 267              	.L11:
 142:application/cmd/robot_cmd.c ****         paw_cmd_send.paw0location=down;
 268              		.loc 1 142 5 is_stmt 1 view .LVU87
 142:application/cmd/robot_cmd.c ****         paw_cmd_send.paw0location=down;
 269              		.loc 1 142 7 is_stmt 0 view .LVU88
ARM GAS  C:\Users\Sive\AppData\Local\Temp\ccwBwFnT.s 			page 9


 270 009c 40F2DC51 		movw	r1, #1500
 271 00a0 8A42     		cmp	r2, r1
 272 00a2 03DD     		ble	.L13
 143:application/cmd/robot_cmd.c ****     }else{
 273              		.loc 1 143 9 is_stmt 1 view .LVU89
 143:application/cmd/robot_cmd.c ****     }else{
 274              		.loc 1 143 34 is_stmt 0 view .LVU90
 275 00a4 174A     		ldr	r2, .L26+4
 276 00a6 0121     		movs	r1, #1
 277 00a8 1170     		strb	r1, [r2]
 278 00aa B3E7     		b	.L12
 279              	.L13:
 145:application/cmd/robot_cmd.c ****     } 
 280              		.loc 1 145 9 is_stmt 1 view .LVU91
 145:application/cmd/robot_cmd.c ****     } 
 281              		.loc 1 145 34 is_stmt 0 view .LVU92
 282 00ac 154A     		ldr	r2, .L26+4
 283 00ae 0221     		movs	r1, #2
 284 00b0 1170     		strb	r1, [r2]
 285 00b2 AFE7     		b	.L12
 286              	.L14:
 151:application/cmd/robot_cmd.c ****     (rc_data[TEMP].rc.SB>1500){
 287              		.loc 1 151 10 is_stmt 1 view .LVU93
 152:application/cmd/robot_cmd.c ****         paw_cmd_send.paw1location=down;
 288              		.loc 1 152 5 is_stmt 0 view .LVU94
 289 00b4 40F2DC51 		movw	r1, #1500
 290 00b8 8A42     		cmp	r2, r1
 291 00ba 03DD     		ble	.L16
 153:application/cmd/robot_cmd.c ****     }else {
 292              		.loc 1 153 9 is_stmt 1 view .LVU95
 153:application/cmd/robot_cmd.c ****     }else {
 293              		.loc 1 153 34 is_stmt 0 view .LVU96
 294 00bc 114A     		ldr	r2, .L26+4
 295 00be 0121     		movs	r1, #1
 296 00c0 5170     		strb	r1, [r2, #1]
 297 00c2 AFE7     		b	.L15
 298              	.L16:
 155:application/cmd/robot_cmd.c ****     }
 299              		.loc 1 155 9 is_stmt 1 view .LVU97
 155:application/cmd/robot_cmd.c ****     }
 300              		.loc 1 155 34 is_stmt 0 view .LVU98
 301 00c4 0F4A     		ldr	r2, .L26+4
 302 00c6 0221     		movs	r1, #2
 303 00c8 5170     		strb	r1, [r2, #1]
 304 00ca ABE7     		b	.L15
 305              	.L17:
 161:application/cmd/robot_cmd.c ****     (rc_data[TEMP].rc.SC>1500){
 306              		.loc 1 161 10 is_stmt 1 view .LVU99
 162:application/cmd/robot_cmd.c ****         paw_cmd_send.paw2location=down;
 307              		.loc 1 162 5 is_stmt 0 view .LVU100
 308 00cc 40F2DC51 		movw	r1, #1500
 309 00d0 8A42     		cmp	r2, r1
 310 00d2 03DD     		ble	.L19
 163:application/cmd/robot_cmd.c ****     }else {
 311              		.loc 1 163 9 is_stmt 1 view .LVU101
 163:application/cmd/robot_cmd.c ****     }else {
 312              		.loc 1 163 34 is_stmt 0 view .LVU102
ARM GAS  C:\Users\Sive\AppData\Local\Temp\ccwBwFnT.s 			page 10


 313 00d4 0B4A     		ldr	r2, .L26+4
 314 00d6 0121     		movs	r1, #1
 315 00d8 9170     		strb	r1, [r2, #2]
 316 00da ABE7     		b	.L18
 317              	.L19:
 165:application/cmd/robot_cmd.c ****     }
 318              		.loc 1 165 9 is_stmt 1 view .LVU103
 165:application/cmd/robot_cmd.c ****     }
 319              		.loc 1 165 34 is_stmt 0 view .LVU104
 320 00dc 094A     		ldr	r2, .L26+4
 321 00de 0221     		movs	r1, #2
 322 00e0 9170     		strb	r1, [r2, #2]
 323 00e2 A7E7     		b	.L18
 324              	.L20:
 171:application/cmd/robot_cmd.c ****     }
 325              		.loc 1 171 9 is_stmt 1 view .LVU105
 171:application/cmd/robot_cmd.c ****     }
 326              		.loc 1 171 33 is_stmt 0 view .LVU106
 327 00e4 084A     		ldr	r2, .L26+8
 328 00e6 0021     		movs	r1, #0
 329 00e8 5170     		strb	r1, [r2, #1]
 330 00ea ABE7     		b	.L21
 331              	.L22:
 186:application/cmd/robot_cmd.c ****         
 332              		.loc 1 186 9 is_stmt 1 view .LVU107
 186:application/cmd/robot_cmd.c ****         
 333              		.loc 1 186 35 is_stmt 0 view .LVU108
 334 00ec 0021     		movs	r1, #0
 335 00ee 064A     		ldr	r2, .L26+8
 336 00f0 C2F80510 		str	r1, [r2, #5]	@ unaligned
 337 00f4 C8E7     		b	.L23
 338              	.L24:
 191:application/cmd/robot_cmd.c ****     }else{
 192:application/cmd/robot_cmd.c ****         shoot_cmd_send.shoot_rate2= 0;
 339              		.loc 1 192 9 is_stmt 1 view .LVU109
 340              		.loc 1 192 35 is_stmt 0 view .LVU110
 341 00f6 0022     		movs	r2, #0
 342 00f8 034B     		ldr	r3, .L26+8
 343 00fa C3F80920 		str	r2, [r3, #9]	@ unaligned
 193:application/cmd/robot_cmd.c ****     }
 194:application/cmd/robot_cmd.c ****     // å‘å°„å‚æ•°
 195:application/cmd/robot_cmd.c ****     // if (switch_is_up(rc_data[TEMP].rc.switch_right)) // å³ä¾§å¼€å…³çŠ¶æ€[ä¸Š],å¼¹èˆ±æ‰“å¼€
 196:application/cmd/robot_cmd.c ****     //     ;                                            // å¼¹èˆ±èˆµæœºæ§åˆ¶,å¾…æ·»åŠ servo_motoræ
 197:application/cmd/robot_cmd.c ****     // else
 198:application/cmd/robot_cmd.c ****     //     ; // å¼¹èˆ±èˆµæœºæ§åˆ¶,å¾…æ·»åŠ servo_motoræ¨¡å—,å…³é—­
 199:application/cmd/robot_cmd.c **** 
 200:application/cmd/robot_cmd.c ****     //æ‘©æ“¦è½®æ§åˆ¶,æ‹¨è½®å‘ä¸Šæ‰“ä¸ºè´Ÿ,å‘ä¸‹ä¸ºæ­£
 201:application/cmd/robot_cmd.c ****     // if (rc_data[TEMP].rc.dial < -100) // å‘ä¸Šè¶…è¿‡100,æ‰“å¼€æ‘©æ“¦è½®
 202:application/cmd/robot_cmd.c ****     //     shoot_cmd_send.friction_mode = FRICTION_ON;
 203:application/cmd/robot_cmd.c ****     // else
 204:application/cmd/robot_cmd.c ****     //     shoot_cmd_send.friction_mode = FRICTION_OFF;
 205:application/cmd/robot_cmd.c ****     // // æ‹¨å¼¹æ§åˆ¶,é¥æ§å™¨å›ºå®šä¸ºä¸€ç§æ‹¨å¼¹æ¨¡å¼,å¯è‡ªè¡Œé€‰æ‹©
 206:application/cmd/robot_cmd.c ****     // if (rc_data[TEMP].rc.dial < -500)
 207:application/cmd/robot_cmd.c ****     //     shoot_cmd_send.load_mode = LOAD_BURSTFIRE;
 208:application/cmd/robot_cmd.c ****     // else
 209:application/cmd/robot_cmd.c ****     //     shoot_cmd_send.load_mode = LOAD_STOP;
 210:application/cmd/robot_cmd.c ****     // // å°„é¢‘æ§åˆ¶,å›ºå®šæ¯ç§’1å‘,åç»­å¯ä»¥æ ¹æ®å·¦ä¾§æ‹¨è½®çš„å€¼å¤§å°åˆ‡æ¢å°„é¢‘,
ARM GAS  C:\Users\Sive\AppData\Local\Temp\ccwBwFnT.s 			page 11


 211:application/cmd/robot_cmd.c ****     // shoot_cmd_send.shoot_rate = 8;
 212:application/cmd/robot_cmd.c **** }
 344              		.loc 1 212 1 view .LVU111
 345 00fe 7047     		bx	lr
 346              	.L27:
 347              		.align	2
 348              	.L26:
 349 0100 00000000 		.word	rc_data
 350 0104 00000000 		.word	paw_cmd_send
 351 0108 00000000 		.word	shoot_cmd_send
 352 010c 00000000 		.word	chassis_cmd_send
 353 0110 0080E845 		.word	1172865024
 354 0114 009058C7 		.word	-950497280
 355              		.cfi_endproc
 356              	.LFE173:
 358              		.section	.rodata.RobotCMDInit.str1.4,"aMS",%progbits,1
 359              		.align	2
 360              	.LC0:
 361 0000 7061775F 		.ascii	"paw_cmd\000"
 361      636D6400 
 362              		.align	2
 363              	.LC1:
 364 0008 7061775F 		.ascii	"paw_feed\000"
 364      66656564 
 364      00
 365 0011 000000   		.align	2
 366              	.LC2:
 367 0014 73686F6F 		.ascii	"shoot_cmd\000"
 367      745F636D 
 367      6400
 368 001e 0000     		.align	2
 369              	.LC3:
 370 0020 73686F6F 		.ascii	"shoot_feed\000"
 370      745F6665 
 370      656400
 371 002b 00       		.align	2
 372              	.LC4:
 373 002c 63686173 		.ascii	"chassis_cmd\000"
 373      7369735F 
 373      636D6400 
 374              		.align	2
 375              	.LC5:
 376 0038 63686173 		.ascii	"chassis_feed\000"
 376      7369735F 
 376      66656564 
 376      00
 377              		.section	.text.RobotCMDInit,"ax",%progbits
 378              		.align	1
 379              		.global	RobotCMDInit
 380              		.syntax unified
 381              		.thumb
 382              		.thumb_func
 384              	RobotCMDInit:
 385              	.LFB170:
  39:application/cmd/robot_cmd.c ****     rc_data = RemoteControlInit(&huart3);   // ä¿®æ”¹ä¸ºå¯¹åº”ä¸²å£,æ³¨æ„å¦‚æœæ˜¯è‡ªç ”æ¿dbuså
 386              		.loc 1 39 1 is_stmt 1 view -0
 387              		.cfi_startproc
ARM GAS  C:\Users\Sive\AppData\Local\Temp\ccwBwFnT.s 			page 12


 388              		@ args = 0, pretend = 0, frame = 0
 389              		@ frame_needed = 0, uses_anonymous_args = 0
 390 0000 08B5     		push	{r3, lr}
 391              		.cfi_def_cfa_offset 8
 392              		.cfi_offset 3, -8
 393              		.cfi_offset 14, -4
  40:application/cmd/robot_cmd.c ****     dt_data = dtInit(&huart1); //è·å¾—æµ‹è·ä¼ æ„Ÿå™¨æ•°æ®
 394              		.loc 1 40 5 view .LVU113
  40:application/cmd/robot_cmd.c ****     dt_data = dtInit(&huart1); //è·å¾—æµ‹è·ä¼ æ„Ÿå™¨æ•°æ®
 395              		.loc 1 40 15 is_stmt 0 view .LVU114
 396 0002 1948     		ldr	r0, .L30
 397 0004 FFF7FEFF 		bl	RemoteControlInit
 398              	.LVL0:
  40:application/cmd/robot_cmd.c ****     dt_data = dtInit(&huart1); //è·å¾—æµ‹è·ä¼ æ„Ÿå™¨æ•°æ®
 399              		.loc 1 40 13 discriminator 1 view .LVU115
 400 0008 184B     		ldr	r3, .L30+4
 401 000a 1860     		str	r0, [r3]
  41:application/cmd/robot_cmd.c ****     // vision_recv_data = VisionInit(&huart1); // è§†è§‰é€šä¿¡ä¸²å£
 402              		.loc 1 41 5 is_stmt 1 view .LVU116
  41:application/cmd/robot_cmd.c ****     // vision_recv_data = VisionInit(&huart1); // è§†è§‰é€šä¿¡ä¸²å£
 403              		.loc 1 41 15 is_stmt 0 view .LVU117
 404 000c 1848     		ldr	r0, .L30+8
 405 000e FFF7FEFF 		bl	dtInit
 406              	.LVL1:
  41:application/cmd/robot_cmd.c ****     // vision_recv_data = VisionInit(&huart1); // è§†è§‰é€šä¿¡ä¸²å£
 407              		.loc 1 41 13 discriminator 1 view .LVU118
 408 0012 184B     		ldr	r3, .L30+12
 409 0014 1860     		str	r0, [r3]
  46:application/cmd/robot_cmd.c ****     paw_feed_sub = SubRegister("paw_feed", sizeof(Paw_Upload_Data_s));
 410              		.loc 1 46 5 is_stmt 1 view .LVU119
  46:application/cmd/robot_cmd.c ****     paw_feed_sub = SubRegister("paw_feed", sizeof(Paw_Upload_Data_s));
 411              		.loc 1 46 19 is_stmt 0 view .LVU120
 412 0016 0C21     		movs	r1, #12
 413 0018 1748     		ldr	r0, .L30+16
 414 001a FFF7FEFF 		bl	PubRegister
 415              	.LVL2:
  46:application/cmd/robot_cmd.c ****     paw_feed_sub = SubRegister("paw_feed", sizeof(Paw_Upload_Data_s));
 416              		.loc 1 46 17 discriminator 1 view .LVU121
 417 001e 174B     		ldr	r3, .L30+20
 418 0020 1860     		str	r0, [r3]
  47:application/cmd/robot_cmd.c ****      shoot_cmd_pub = PubRegister("shoot_cmd", sizeof(Shoot_Ctrl_Cmd_s));
 419              		.loc 1 47 5 is_stmt 1 view .LVU122
  47:application/cmd/robot_cmd.c ****      shoot_cmd_pub = PubRegister("shoot_cmd", sizeof(Shoot_Ctrl_Cmd_s));
 420              		.loc 1 47 20 is_stmt 0 view .LVU123
 421 0022 0021     		movs	r1, #0
 422 0024 1648     		ldr	r0, .L30+24
 423 0026 FFF7FEFF 		bl	SubRegister
 424              	.LVL3:
  47:application/cmd/robot_cmd.c ****      shoot_cmd_pub = PubRegister("shoot_cmd", sizeof(Shoot_Ctrl_Cmd_s));
 425              		.loc 1 47 18 discriminator 1 view .LVU124
 426 002a 164B     		ldr	r3, .L30+28
 427 002c 1860     		str	r0, [r3]
  48:application/cmd/robot_cmd.c ****     shoot_feed_sub = SubRegister("shoot_feed", sizeof(Shoot_Upload_Data_s));
 428              		.loc 1 48 6 is_stmt 1 view .LVU125
  48:application/cmd/robot_cmd.c ****     shoot_feed_sub = SubRegister("shoot_feed", sizeof(Shoot_Upload_Data_s));
 429              		.loc 1 48 22 is_stmt 0 view .LVU126
 430 002e 0D21     		movs	r1, #13
ARM GAS  C:\Users\Sive\AppData\Local\Temp\ccwBwFnT.s 			page 13


 431 0030 1548     		ldr	r0, .L30+32
 432 0032 FFF7FEFF 		bl	PubRegister
 433              	.LVL4:
  48:application/cmd/robot_cmd.c ****     shoot_feed_sub = SubRegister("shoot_feed", sizeof(Shoot_Upload_Data_s));
 434              		.loc 1 48 20 discriminator 1 view .LVU127
 435 0036 154B     		ldr	r3, .L30+36
 436 0038 1860     		str	r0, [r3]
  49:application/cmd/robot_cmd.c ****      
 437              		.loc 1 49 5 is_stmt 1 view .LVU128
  49:application/cmd/robot_cmd.c ****      
 438              		.loc 1 49 22 is_stmt 0 view .LVU129
 439 003a 0021     		movs	r1, #0
 440 003c 1448     		ldr	r0, .L30+40
 441 003e FFF7FEFF 		bl	SubRegister
 442              	.LVL5:
  49:application/cmd/robot_cmd.c ****      
 443              		.loc 1 49 20 discriminator 1 view .LVU130
 444 0042 144B     		ldr	r3, .L30+44
 445 0044 1860     		str	r0, [r3]
  53:application/cmd/robot_cmd.c ****     chassis_feed_sub = SubRegister("chassis_feed", sizeof(Chassis_Upload_Data_s));
 446              		.loc 1 53 5 is_stmt 1 view .LVU131
  53:application/cmd/robot_cmd.c ****     chassis_feed_sub = SubRegister("chassis_feed", sizeof(Chassis_Upload_Data_s));
 447              		.loc 1 53 23 is_stmt 0 view .LVU132
 448 0046 2521     		movs	r1, #37
 449 0048 1348     		ldr	r0, .L30+48
 450 004a FFF7FEFF 		bl	PubRegister
 451              	.LVL6:
  53:application/cmd/robot_cmd.c ****     chassis_feed_sub = SubRegister("chassis_feed", sizeof(Chassis_Upload_Data_s));
 452              		.loc 1 53 21 discriminator 1 view .LVU133
 453 004e 134B     		ldr	r3, .L30+52
 454 0050 1860     		str	r0, [r3]
  54:application/cmd/robot_cmd.c **** #endif // ONE_BOARD
 455              		.loc 1 54 5 is_stmt 1 view .LVU134
  54:application/cmd/robot_cmd.c **** #endif // ONE_BOARD
 456              		.loc 1 54 24 is_stmt 0 view .LVU135
 457 0052 0121     		movs	r1, #1
 458 0054 1248     		ldr	r0, .L30+56
 459 0056 FFF7FEFF 		bl	SubRegister
 460              	.LVL7:
  54:application/cmd/robot_cmd.c **** #endif // ONE_BOARD
 461              		.loc 1 54 22 discriminator 1 view .LVU136
 462 005a 124B     		ldr	r3, .L30+60
 463 005c 1860     		str	r0, [r3]
  70:application/cmd/robot_cmd.c **** }
 464              		.loc 1 70 5 is_stmt 1 view .LVU137
  70:application/cmd/robot_cmd.c **** }
 465              		.loc 1 70 17 is_stmt 0 view .LVU138
 466 005e 124B     		ldr	r3, .L30+64
 467 0060 0122     		movs	r2, #1
 468 0062 1A70     		strb	r2, [r3]
  71:application/cmd/robot_cmd.c **** 
 469              		.loc 1 71 1 view .LVU139
 470 0064 08BD     		pop	{r3, pc}
 471              	.L31:
 472 0066 00BF     		.align	2
 473              	.L30:
 474 0068 00000000 		.word	huart3
ARM GAS  C:\Users\Sive\AppData\Local\Temp\ccwBwFnT.s 			page 14


 475 006c 00000000 		.word	rc_data
 476 0070 00000000 		.word	huart1
 477 0074 00000000 		.word	dt_data
 478 0078 00000000 		.word	.LC0
 479 007c 00000000 		.word	paw_cmd_pub
 480 0080 08000000 		.word	.LC1
 481 0084 00000000 		.word	paw_feed_sub
 482 0088 14000000 		.word	.LC2
 483 008c 00000000 		.word	shoot_cmd_pub
 484 0090 20000000 		.word	.LC3
 485 0094 00000000 		.word	shoot_feed_sub
 486 0098 2C000000 		.word	.LC4
 487 009c 00000000 		.word	chassis_cmd_pub
 488 00a0 38000000 		.word	.LC5
 489 00a4 00000000 		.word	chassis_feed_sub
 490 00a8 00000000 		.word	robot_state
 491              		.cfi_endproc
 492              	.LFE170:
 494              		.section	.text.RobotCMDTask,"ax",%progbits
 495              		.align	1
 496              		.global	RobotCMDTask
 497              		.syntax unified
 498              		.thumb
 499              		.thumb_func
 501              	RobotCMDTask:
 502              	.LFB174:
 213:application/cmd/robot_cmd.c **** 
 214:application/cmd/robot_cmd.c **** /* æœºå™¨äººæ ¸å¿ƒæ§åˆ¶ä»»åŠ¡,200Hzé¢‘ç‡è¿è¡Œ(å¿…é¡»é«˜äºè§†è§‰å‘é€é¢‘ç‡) */
 215:application/cmd/robot_cmd.c **** void RobotCMDTask()
 216:application/cmd/robot_cmd.c **** {
 503              		.loc 1 216 1 is_stmt 1 view -0
 504              		.cfi_startproc
 505              		@ args = 0, pretend = 0, frame = 0
 506              		@ frame_needed = 0, uses_anonymous_args = 0
 507 0000 08B5     		push	{r3, lr}
 508              		.cfi_def_cfa_offset 8
 509              		.cfi_offset 3, -8
 510              		.cfi_offset 14, -4
 217:application/cmd/robot_cmd.c ****     // ä»å…¶ä»–åº”ç”¨è·å–å›ä¼ æ•°æ®
 218:application/cmd/robot_cmd.c **** #ifdef ONE_BOARD
 219:application/cmd/robot_cmd.c ****     SubGetMessage(chassis_feed_sub, (void *)&chassis_fetch_data);
 511              		.loc 1 219 5 view .LVU141
 512 0002 1049     		ldr	r1, .L34
 513 0004 104B     		ldr	r3, .L34+4
 514 0006 1868     		ldr	r0, [r3]
 515 0008 FFF7FEFF 		bl	SubGetMessage
 516              	.LVL8:
 220:application/cmd/robot_cmd.c **** #endif // ONE_BOARD
 221:application/cmd/robot_cmd.c **** #ifdef GIMBAL_BOARD
 222:application/cmd/robot_cmd.c ****     chassis_fetch_data = *(Chassis_Upload_Data_s *)CANCommGet(cmd_can_comm);
 223:application/cmd/robot_cmd.c **** #endif // GIMBAL_BOARD
 224:application/cmd/robot_cmd.c ****     SubGetMessage(paw_feed_sub, &paw_fetch_data);//---äº‘å°å’Œå‘å°„
 517              		.loc 1 224 5 view .LVU142
 518 000c 0F49     		ldr	r1, .L34+8
 519 000e 104B     		ldr	r3, .L34+12
 520 0010 1868     		ldr	r0, [r3]
 521 0012 FFF7FEFF 		bl	SubGetMessage
ARM GAS  C:\Users\Sive\AppData\Local\Temp\ccwBwFnT.s 			page 15


 522              	.LVL9:
 225:application/cmd/robot_cmd.c ****     // SubGetMessage(gimbal_feed_sub, &gimbal_fetch_data);
 226:application/cmd/robot_cmd.c **** 
 227:application/cmd/robot_cmd.c ****     // æ ¹æ®gimbalçš„åé¦ˆå€¼è®¡ç®—äº‘å°å’Œåº•ç›˜æ­£æ–¹å‘çš„å¤¹è§’,ä¸éœ€è¦ä¼ å‚,é€šè¿‡static
 228:application/cmd/robot_cmd.c ****         CalcOffsetAngleDistance();
 523              		.loc 1 228 9 view .LVU143
 524 0016 FFF7FEFF 		bl	CalcOffsetAngleDistance
 525              	.LVL10:
 229:application/cmd/robot_cmd.c ****     // // æ ¹æ®é¥æ§å™¨å·¦ä¾§å¼€å…³,ç¡®å®šå½“å‰ä½¿ç”¨çš„æ§åˆ¶æ¨¡å¼ä¸ºé¥æ§å™¨è°ƒè¯•è¿˜æ˜¯é”®é
 230:application/cmd/robot_cmd.c ****     // if (switch_is_down(rc_data[TEMP].rc.switch_left)) // é¥æ§å™¨å·¦ä¾§å¼€å…³çŠ¶æ€ä¸º[ä¸‹],é¥
 231:application/cmd/robot_cmd.c ****         RemoteControlSet();
 526              		.loc 1 231 9 view .LVU144
 527 001a FFF7FEFF 		bl	RemoteControlSet
 528              	.LVL11:
 232:application/cmd/robot_cmd.c ****     // else if (switch_is_up(rc_data[TEMP].rc.switch_left)) // é¥æ§å™¨å·¦ä¾§å¼€å…³çŠ¶æ€ä¸º[ä¸Š],
 233:application/cmd/robot_cmd.c ****         // MouseKeySet();
 234:application/cmd/robot_cmd.c **** 
 235:application/cmd/robot_cmd.c ****         EmergencyHandler(); // å¤„ç†æ¨¡å—ç¦»çº¿å’Œé¥æ§å™¨æ€¥åœç­‰ç´§æ€¥æƒ…å†µ
 529              		.loc 1 235 9 view .LVU145
 530 001e FFF7FEFF 		bl	EmergencyHandler
 531              	.LVL12:
 236:application/cmd/robot_cmd.c **** 
 237:application/cmd/robot_cmd.c ****     // è®¾ç½®è§†è§‰å‘é€æ•°æ®,è¿˜éœ€å¢åŠ åŠ é€Ÿåº¦å’Œè§’é€Ÿåº¦æ•°æ®
 238:application/cmd/robot_cmd.c ****     // VisionSetFlag(chassis_fetch_data.enemy_color,,chassis_fetch_data.bullet_speed)
 239:application/cmd/robot_cmd.c **** 
 240:application/cmd/robot_cmd.c ****     // æ¨é€æ¶ˆæ¯,åŒæ¿é€šä¿¡,è§†è§‰é€šä¿¡ç­‰
 241:application/cmd/robot_cmd.c ****     // å…¶ä»–åº”ç”¨æ‰€éœ€çš„æ§åˆ¶æ•°æ®åœ¨remotecontrolsetmodeå’Œmousekeysetmodeä¸­å®Œæˆè®¾ç½®
 242:application/cmd/robot_cmd.c **** #ifdef ONE_BOARD
 243:application/cmd/robot_cmd.c ****     PubPushMessage(chassis_cmd_pub, (void *)&chassis_cmd_send);
 532              		.loc 1 243 5 view .LVU146
 533 0022 0C49     		ldr	r1, .L34+16
 534 0024 0C4B     		ldr	r3, .L34+20
 535 0026 1868     		ldr	r0, [r3]
 536 0028 FFF7FEFF 		bl	PubPushMessage
 537              	.LVL13:
 244:application/cmd/robot_cmd.c ****     PubPushMessage(paw_cmd_pub, (void *)&paw_cmd_send);
 538              		.loc 1 244 5 view .LVU147
 539 002c 0B49     		ldr	r1, .L34+24
 540 002e 0C4B     		ldr	r3, .L34+28
 541 0030 1868     		ldr	r0, [r3]
 542 0032 FFF7FEFF 		bl	PubPushMessage
 543              	.LVL14:
 245:application/cmd/robot_cmd.c ****     PubPushMessage(shoot_cmd_pub, (void *)&shoot_cmd_send);
 544              		.loc 1 245 5 view .LVU148
 545 0036 0B49     		ldr	r1, .L34+32
 546 0038 0B4B     		ldr	r3, .L34+36
 547 003a 1868     		ldr	r0, [r3]
 548 003c FFF7FEFF 		bl	PubPushMessage
 549              	.LVL15:
 246:application/cmd/robot_cmd.c **** #endif // ONE_BOARD
 247:application/cmd/robot_cmd.c **** #ifdef GIMBAL_BOARD
 248:application/cmd/robot_cmd.c ****     CANCommSend(cmd_can_comm, (void *)&chassis_cmd_send);
 249:application/cmd/robot_cmd.c **** #endif // GIMBAL_BOARD
 250:application/cmd/robot_cmd.c ****     
 251:application/cmd/robot_cmd.c ****     // PubPushMessage(gimbal_cmd_pub, (void *)&gimbal_cmd_send);
 252:application/cmd/robot_cmd.c ****     // VisionSend(&vision_send_data);
 253:application/cmd/robot_cmd.c **** }
ARM GAS  C:\Users\Sive\AppData\Local\Temp\ccwBwFnT.s 			page 16


 550              		.loc 1 253 1 is_stmt 0 view .LVU149
 551 0040 08BD     		pop	{r3, pc}
 552              	.L35:
 553 0042 00BF     		.align	2
 554              	.L34:
 555 0044 00000000 		.word	chassis_fetch_data
 556 0048 00000000 		.word	chassis_feed_sub
 557 004c 00000000 		.word	paw_fetch_data
 558 0050 00000000 		.word	paw_feed_sub
 559 0054 00000000 		.word	chassis_cmd_send
 560 0058 00000000 		.word	chassis_cmd_pub
 561 005c 00000000 		.word	paw_cmd_send
 562 0060 00000000 		.word	paw_cmd_pub
 563 0064 00000000 		.word	shoot_cmd_send
 564 0068 00000000 		.word	shoot_cmd_pub
 565              		.cfi_endproc
 566              	.LFE174:
 568              		.section	.bss.robot_state,"aw",%nobits
 571              	robot_state:
 572 0000 00       		.space	1
 573              		.section	.bss.shoot_cmd_send,"aw",%nobits
 574              		.align	2
 577              	shoot_cmd_send:
 578 0000 00000000 		.space	13
 578      00000000 
 578      00000000 
 578      00
 579              		.section	.bss.shoot_feed_sub,"aw",%nobits
 580              		.align	2
 583              	shoot_feed_sub:
 584 0000 00000000 		.space	4
 585              		.section	.bss.shoot_cmd_pub,"aw",%nobits
 586              		.align	2
 589              	shoot_cmd_pub:
 590 0000 00000000 		.space	4
 591              		.section	.bss.paw_fetch_data,"aw",%nobits
 592              		.align	2
 595              	paw_fetch_data:
 596              		.section	.bss.paw_cmd_send,"aw",%nobits
 597              		.align	2
 600              	paw_cmd_send:
 601 0000 00000000 		.space	12
 601      00000000 
 601      00000000 
 602              		.section	.bss.paw_feed_sub,"aw",%nobits
 603              		.align	2
 606              	paw_feed_sub:
 607 0000 00000000 		.space	4
 608              		.section	.bss.paw_cmd_pub,"aw",%nobits
 609              		.align	2
 612              	paw_cmd_pub:
 613 0000 00000000 		.space	4
 614              		.section	.bss.dt_data,"aw",%nobits
 615              		.align	2
 618              	dt_data:
 619 0000 00000000 		.space	4
 620              		.section	.bss.rc_data,"aw",%nobits
ARM GAS  C:\Users\Sive\AppData\Local\Temp\ccwBwFnT.s 			page 17


 621              		.align	2
 624              	rc_data:
 625 0000 00000000 		.space	4
 626              		.section	.bss.chassis_fetch_data,"aw",%nobits
 627              		.align	2
 630              	chassis_fetch_data:
 631 0000 00       		.space	1
 632              		.section	.bss.chassis_cmd_send,"aw",%nobits
 633              		.align	2
 636              	chassis_cmd_send:
 637 0000 00000000 		.space	37
 637      00000000 
 637      00000000 
 637      00000000 
 637      00000000 
 638              		.section	.bss.chassis_cmd_pub,"aw",%nobits
 639              		.align	2
 642              	chassis_cmd_pub:
 643 0000 00000000 		.space	4
 644              		.section	.bss.chassis_feed_sub,"aw",%nobits
 645              		.align	2
 648              	chassis_feed_sub:
 649 0000 00000000 		.space	4
 650              		.text
 651              	.Letext0:
 652              		.file 2 "C:/Users/Sive/AppData/Roaming/Code/User/globalStorage/bmd.stm32-for-vscode/@xpack-dev-too
 653              		.file 3 "C:/Users/Sive/AppData/Roaming/Code/User/globalStorage/bmd.stm32-for-vscode/@xpack-dev-too
 654              		.file 4 "Drivers/CMSIS/Device/ST/STM32F4xx/Include/stm32f407xx.h"
 655              		.file 5 "Drivers/STM32F4xx_HAL_Driver/Inc/stm32f4xx_hal_def.h"
 656              		.file 6 "Drivers/STM32F4xx_HAL_Driver/Inc/stm32f4xx_hal_dma.h"
 657              		.file 7 "Drivers/STM32F4xx_HAL_Driver/Inc/stm32f4xx_hal_uart.h"
 658              		.file 8 "application/robot_def.h"
 659              		.file 9 "Core/Inc/usart.h"
 660              		.file 10 "moudels/remote/remote_control.h"
 661              		.file 11 "moudels/distance/distance.h"
 662              		.file 12 "moudels/message_center/message_center.h"
ARM GAS  C:\Users\Sive\AppData\Local\Temp\ccwBwFnT.s 			page 18


DEFINED SYMBOLS
                            *ABS*:00000000 robot_cmd.c
C:\Users\Sive\AppData\Local\Temp\ccwBwFnT.s:21     .text.EmergencyHandler:00000000 $t
C:\Users\Sive\AppData\Local\Temp\ccwBwFnT.s:26     .text.EmergencyHandler:00000000 EmergencyHandler
C:\Users\Sive\AppData\Local\Temp\ccwBwFnT.s:106    .text.EmergencyHandler:00000048 $d
C:\Users\Sive\AppData\Local\Temp\ccwBwFnT.s:624    .bss.rc_data:00000000 rc_data
C:\Users\Sive\AppData\Local\Temp\ccwBwFnT.s:571    .bss.robot_state:00000000 robot_state
C:\Users\Sive\AppData\Local\Temp\ccwBwFnT.s:636    .bss.chassis_cmd_send:00000000 chassis_cmd_send
C:\Users\Sive\AppData\Local\Temp\ccwBwFnT.s:600    .bss.paw_cmd_send:00000000 paw_cmd_send
C:\Users\Sive\AppData\Local\Temp\ccwBwFnT.s:577    .bss.shoot_cmd_send:00000000 shoot_cmd_send
C:\Users\Sive\AppData\Local\Temp\ccwBwFnT.s:115    .text.CalcOffsetAngleDistance:00000000 $t
C:\Users\Sive\AppData\Local\Temp\ccwBwFnT.s:120    .text.CalcOffsetAngleDistance:00000000 CalcOffsetAngleDistance
C:\Users\Sive\AppData\Local\Temp\ccwBwFnT.s:149    .text.CalcOffsetAngleDistance:00000020 $d
C:\Users\Sive\AppData\Local\Temp\ccwBwFnT.s:618    .bss.dt_data:00000000 dt_data
C:\Users\Sive\AppData\Local\Temp\ccwBwFnT.s:155    .text.RemoteControlSet:00000000 $t
C:\Users\Sive\AppData\Local\Temp\ccwBwFnT.s:160    .text.RemoteControlSet:00000000 RemoteControlSet
C:\Users\Sive\AppData\Local\Temp\ccwBwFnT.s:349    .text.RemoteControlSet:00000100 $d
C:\Users\Sive\AppData\Local\Temp\ccwBwFnT.s:359    .rodata.RobotCMDInit.str1.4:00000000 $d
C:\Users\Sive\AppData\Local\Temp\ccwBwFnT.s:378    .text.RobotCMDInit:00000000 $t
C:\Users\Sive\AppData\Local\Temp\ccwBwFnT.s:384    .text.RobotCMDInit:00000000 RobotCMDInit
C:\Users\Sive\AppData\Local\Temp\ccwBwFnT.s:474    .text.RobotCMDInit:00000068 $d
C:\Users\Sive\AppData\Local\Temp\ccwBwFnT.s:612    .bss.paw_cmd_pub:00000000 paw_cmd_pub
C:\Users\Sive\AppData\Local\Temp\ccwBwFnT.s:606    .bss.paw_feed_sub:00000000 paw_feed_sub
C:\Users\Sive\AppData\Local\Temp\ccwBwFnT.s:589    .bss.shoot_cmd_pub:00000000 shoot_cmd_pub
C:\Users\Sive\AppData\Local\Temp\ccwBwFnT.s:583    .bss.shoot_feed_sub:00000000 shoot_feed_sub
C:\Users\Sive\AppData\Local\Temp\ccwBwFnT.s:642    .bss.chassis_cmd_pub:00000000 chassis_cmd_pub
C:\Users\Sive\AppData\Local\Temp\ccwBwFnT.s:648    .bss.chassis_feed_sub:00000000 chassis_feed_sub
C:\Users\Sive\AppData\Local\Temp\ccwBwFnT.s:495    .text.RobotCMDTask:00000000 $t
C:\Users\Sive\AppData\Local\Temp\ccwBwFnT.s:501    .text.RobotCMDTask:00000000 RobotCMDTask
C:\Users\Sive\AppData\Local\Temp\ccwBwFnT.s:555    .text.RobotCMDTask:00000044 $d
C:\Users\Sive\AppData\Local\Temp\ccwBwFnT.s:630    .bss.chassis_fetch_data:00000000 chassis_fetch_data
C:\Users\Sive\AppData\Local\Temp\ccwBwFnT.s:595    .bss.paw_fetch_data:00000000 paw_fetch_data
C:\Users\Sive\AppData\Local\Temp\ccwBwFnT.s:572    .bss.robot_state:00000000 $d
C:\Users\Sive\AppData\Local\Temp\ccwBwFnT.s:574    .bss.shoot_cmd_send:00000000 $d
C:\Users\Sive\AppData\Local\Temp\ccwBwFnT.s:580    .bss.shoot_feed_sub:00000000 $d
C:\Users\Sive\AppData\Local\Temp\ccwBwFnT.s:586    .bss.shoot_cmd_pub:00000000 $d
C:\Users\Sive\AppData\Local\Temp\ccwBwFnT.s:597    .bss.paw_cmd_send:00000000 $d
C:\Users\Sive\AppData\Local\Temp\ccwBwFnT.s:603    .bss.paw_feed_sub:00000000 $d
C:\Users\Sive\AppData\Local\Temp\ccwBwFnT.s:609    .bss.paw_cmd_pub:00000000 $d
C:\Users\Sive\AppData\Local\Temp\ccwBwFnT.s:615    .bss.dt_data:00000000 $d
C:\Users\Sive\AppData\Local\Temp\ccwBwFnT.s:621    .bss.rc_data:00000000 $d
C:\Users\Sive\AppData\Local\Temp\ccwBwFnT.s:627    .bss.chassis_fetch_data:00000000 $d
C:\Users\Sive\AppData\Local\Temp\ccwBwFnT.s:633    .bss.chassis_cmd_send:00000000 $d
C:\Users\Sive\AppData\Local\Temp\ccwBwFnT.s:639    .bss.chassis_cmd_pub:00000000 $d
C:\Users\Sive\AppData\Local\Temp\ccwBwFnT.s:645    .bss.chassis_feed_sub:00000000 $d

UNDEFINED SYMBOLS
RemoteControlInit
dtInit
PubRegister
SubRegister
huart3
huart1
SubGetMessage
PubPushMessage
