ARM GAS  C:\Users\Sive\AppData\Local\Temp\ccjzVTSy.s 			page 1


   1              		.cpu cortex-m4
   2              		.arch armv7e-m
   3              		.fpu fpv4-sp-d16
   4              		.eabi_attribute 27, 1
   5              		.eabi_attribute 28, 1
   6              		.eabi_attribute 20, 1
   7              		.eabi_attribute 21, 1
   8              		.eabi_attribute 23, 3
   9              		.eabi_attribute 24, 1
  10              		.eabi_attribute 25, 1
  11              		.eabi_attribute 26, 1
  12              		.eabi_attribute 30, 1
  13              		.eabi_attribute 34, 1
  14              		.eabi_attribute 18, 4
  15              		.file	"robot_cmd.c"
  16              		.text
  17              	.Ltext0:
  18              		.cfi_sections	.debug_frame
  19              		.file 1 "application/cmd/robot_cmd.c"
  20              		.section	.text.EmergencyHandler,"ax",%progbits
  21              		.align	1
  22              		.syntax unified
  23              		.thumb
  24              		.thumb_func
  26              	EmergencyHandler:
  27              	.LFB171:
   1:application/cmd/robot_cmd.c **** // app
   2:application/cmd/robot_cmd.c **** #include "robot_def.h"
   3:application/cmd/robot_cmd.c **** #include "robot_cmd.h"
   4:application/cmd/robot_cmd.c **** // module
   5:application/cmd/robot_cmd.c **** #include "remote_control.h"
   6:application/cmd/robot_cmd.c **** #include "ins_task.h"
   7:application/cmd/robot_cmd.c **** // #include "master_process.h"--è§†è§‰
   8:application/cmd/robot_cmd.c **** #include "message_center.h"
   9:application/cmd/robot_cmd.c **** #include "general_def.h"
  10:application/cmd/robot_cmd.c **** #include "dji_motor.h"
  11:application/cmd/robot_cmd.c **** // bsp
  12:application/cmd/robot_cmd.c **** #include "bsp_dwt.h"
  13:application/cmd/robot_cmd.c **** #include "bsp_log.h"
  14:application/cmd/robot_cmd.c **** 
  15:application/cmd/robot_cmd.c **** #ifdef ONE_BOARD
  16:application/cmd/robot_cmd.c **** static Subscriber_t *chassis_feed_sub; // åº•ç›˜åé¦ˆä¿¡æ¯è®¢é˜…è€…
  17:application/cmd/robot_cmd.c **** static Publisher_t *chassis_cmd_pub;   // åº•ç›˜æ§åˆ¶æ¶ˆæ¯å‘å¸ƒè€…
  18:application/cmd/robot_cmd.c **** #endif                                 // ONE_BOARD
  19:application/cmd/robot_cmd.c **** static Chassis_Ctrl_Cmd_s chassis_cmd_send;      // å‘é€ç»™åº•ç›˜åº”ç”¨çš„ä¿¡æ¯,åŒ…æ‹¬æ§åˆ¶ä¿¡æ
  20:application/cmd/robot_cmd.c **** static Chassis_Upload_Data_s chassis_fetch_data; // ä»åº•ç›˜åº”ç”¨æ¥æ”¶çš„åé¦ˆä¿¡æ¯ä¿¡æ¯,åº•ç
  21:application/cmd/robot_cmd.c **** 
  22:application/cmd/robot_cmd.c **** static RC_ctrl_t *rc_data;              // é¥æ§å™¨æ•°æ®,åˆå§‹åŒ–æ—¶è¿”å›
  23:application/cmd/robot_cmd.c **** 
  24:application/cmd/robot_cmd.c **** static Publisher_t *paw_cmd_pub;           // å‘å°„æ§åˆ¶æ¶ˆæ¯å‘å¸ƒè€…
  25:application/cmd/robot_cmd.c **** static Subscriber_t *paw_feed_sub;         // å‘å°„åé¦ˆä¿¡æ¯è®¢é˜…è€…
  26:application/cmd/robot_cmd.c **** static Paw_Ctrl_Cmd_s paw_cmd_send;      // ä¼ é€’ç»™å‘å°„çš„æ§åˆ¶ä¿¡æ¯
  27:application/cmd/robot_cmd.c **** static Paw_Upload_Data_s paw_fetch_data; // ä»å‘å°„è·å–çš„åé¦ˆä¿¡æ¯
  28:application/cmd/robot_cmd.c **** 
  29:application/cmd/robot_cmd.c **** static Publisher_t *shoot_cmd_pub;           // å‘å°„æ§åˆ¶æ¶ˆæ¯å‘å¸ƒè€…
  30:application/cmd/robot_cmd.c **** static Subscriber_t *shoot_feed_sub;         // å‘å°„åé¦ˆä¿¡æ¯è®¢é˜…è€…
  31:application/cmd/robot_cmd.c **** static Shoot_Ctrl_Cmd_s shoot_cmd_send;      // ä¼ é€’ç»™å‘å°„çš„æ§åˆ¶ä¿¡æ¯
ARM GAS  C:\Users\Sive\AppData\Local\Temp\ccjzVTSy.s 			page 2


  32:application/cmd/robot_cmd.c **** static Shoot_Upload_Data_s shoot_fetch_data; // ä»å‘å°„è·å–çš„åé¦ˆä¿¡æ¯
  33:application/cmd/robot_cmd.c **** 
  34:application/cmd/robot_cmd.c **** static Robot_Status_e robot_state; // æœºå™¨äººæ•´ä½“å·¥ä½œçŠ¶æ€
  35:application/cmd/robot_cmd.c **** 
  36:application/cmd/robot_cmd.c **** void RobotCMDInit()
  37:application/cmd/robot_cmd.c **** {
  38:application/cmd/robot_cmd.c ****     rc_data = RemoteControlInit(&huart3);   // ä¿®æ”¹ä¸ºå¯¹åº”ä¸²å£,æ³¨æ„å¦‚æœæ˜¯è‡ªç ”æ¿dbuså
  39:application/cmd/robot_cmd.c ****     // vision_recv_data = VisionInit(&huart1); // è§†è§‰é€šä¿¡ä¸²å£
  40:application/cmd/robot_cmd.c **** 
  41:application/cmd/robot_cmd.c ****     // gimbal_cmd_pub = PubRegister("gimbal_cmd", sizeof(Gimbal_Ctrl_Cmd_s));
  42:application/cmd/robot_cmd.c ****     // gimbal_feed_sub = SubRegister("gimbal_feed", sizeof(Gimbal_Upload_Data_s));
  43:application/cmd/robot_cmd.c ****     paw_cmd_pub = PubRegister("paw_cmd", sizeof(Paw_Ctrl_Cmd_s));
  44:application/cmd/robot_cmd.c ****     paw_feed_sub = SubRegister("paw_feed", sizeof(Paw_Upload_Data_s));
  45:application/cmd/robot_cmd.c ****      shoot_cmd_pub = PubRegister("shoot_cmd", sizeof(Shoot_Ctrl_Cmd_s));
  46:application/cmd/robot_cmd.c ****     shoot_feed_sub = SubRegister("shoot_feed", sizeof(Shoot_Upload_Data_s));
  47:application/cmd/robot_cmd.c ****      
  48:application/cmd/robot_cmd.c **** 
  49:application/cmd/robot_cmd.c **** #ifdef ONE_BOARD //  åŒæ¿å…¼å®¹
  50:application/cmd/robot_cmd.c ****     chassis_cmd_pub = PubRegister("chassis_cmd", sizeof(Chassis_Ctrl_Cmd_s));
  51:application/cmd/robot_cmd.c ****     chassis_feed_sub = SubRegister("chassis_feed", sizeof(Chassis_Upload_Data_s));
  52:application/cmd/robot_cmd.c **** #endif // ONE_BOARD
  53:application/cmd/robot_cmd.c **** #ifdef GIMBAL_BOARD
  54:application/cmd/robot_cmd.c ****     CANComm_Init_Config_s comm_conf = {
  55:application/cmd/robot_cmd.c ****         .can_config = {
  56:application/cmd/robot_cmd.c ****             .can_handle = &hcan1,
  57:application/cmd/robot_cmd.c ****             .tx_id = 0x312,
  58:application/cmd/robot_cmd.c ****             .rx_id = 0x311,
  59:application/cmd/robot_cmd.c ****         },
  60:application/cmd/robot_cmd.c ****         .recv_data_len = sizeof(Chassis_Upload_Data_s),
  61:application/cmd/robot_cmd.c ****         .send_data_len = sizeof(Chassis_Ctrl_Cmd_s),
  62:application/cmd/robot_cmd.c ****     };
  63:application/cmd/robot_cmd.c ****     cmd_can_comm = CANCommInit(&comm_conf);
  64:application/cmd/robot_cmd.c **** #endif // GIMBAL_BOARD
  65:application/cmd/robot_cmd.c ****     // gimbal_cmd_send.pitch = 0;--äº‘å°
  66:application/cmd/robot_cmd.c **** 
  67:application/cmd/robot_cmd.c ****     robot_state = ROBOT_READY; // å¯åŠ¨æ—¶æœºå™¨äººè¿›å…¥å·¥ä½œæ¨¡å¼,åç»­åŠ å…¥æ‰€æœ‰åº”ç”¨åˆå
  68:application/cmd/robot_cmd.c **** }
  69:application/cmd/robot_cmd.c **** 
  70:application/cmd/robot_cmd.c **** static void EmergencyHandler()//----è®¾ç½®æ€¥åœ
  71:application/cmd/robot_cmd.c **** {
  28              		.loc 1 71 1 view -0
  29              		.cfi_startproc
  30              		@ args = 0, pretend = 0, frame = 0
  31              		@ frame_needed = 0, uses_anonymous_args = 0
  32              		@ link register save eliminated.
  72:application/cmd/robot_cmd.c ****     // æ‹¨è½®çš„å‘ä¸‹æ‹¨è¶…è¿‡ä¸€åŠè¿›å…¥æ€¥åœæ¨¡å¼.æ³¨æ„å‘æ‰“æ—¶ä¸‹æ‹¨è½®æ˜¯æ­£
  73:application/cmd/robot_cmd.c ****     if (rc_data[TEMP].rc.SE < 0 || robot_state == ROBOT_STOP) // è¿˜éœ€æ·»åŠ é‡è¦åº”ç”¨å’Œæ¨¡å—ç
  33              		.loc 1 73 5 view .LVU1
  34              		.loc 1 73 16 is_stmt 0 view .LVU2
  35 0000 114B     		ldr	r3, .L5
  36 0002 1A68     		ldr	r2, [r3]
  37              		.loc 1 73 25 view .LVU3
  38 0004 B2F90A30 		ldrsh	r3, [r2, #10]
  39              		.loc 1 73 8 view .LVU4
  40 0008 002B     		cmp	r3, #0
  41 000a 02DB     		blt	.L2
  42              		.loc 1 73 48 discriminator 1 view .LVU5
ARM GAS  C:\Users\Sive\AppData\Local\Temp\ccjzVTSy.s 			page 3


  43 000c 0F4B     		ldr	r3, .L5+4
  44 000e 1B78     		ldrb	r3, [r3]	@ zero_extendqisi2
  45              		.loc 1 73 33 discriminator 1 view .LVU6
  46 0010 53B9     		cbnz	r3, .L3
  47              	.L2:
  74:application/cmd/robot_cmd.c ****     {
  75:application/cmd/robot_cmd.c ****         robot_state = ROBOT_STOP;
  48              		.loc 1 75 9 is_stmt 1 view .LVU7
  49              		.loc 1 75 21 is_stmt 0 view .LVU8
  50 0012 0023     		movs	r3, #0
  51 0014 0D49     		ldr	r1, .L5+4
  52 0016 0B70     		strb	r3, [r1]
  76:application/cmd/robot_cmd.c ****         // gimbal_cmd_send.gimbal_mode = GIMBAL_ZERO_FORCE;
  77:application/cmd/robot_cmd.c ****         chassis_cmd_send.chassis_mode = CHASSIS_ZERO_FORCE;
  53              		.loc 1 77 9 is_stmt 1 view .LVU9
  54              		.loc 1 77 39 is_stmt 0 view .LVU10
  55 0018 0D49     		ldr	r1, .L5+8
  56 001a 0B75     		strb	r3, [r1, #20]
  78:application/cmd/robot_cmd.c ****         paw_cmd_send.paw_mode = Paw_OFF;
  57              		.loc 1 78 9 is_stmt 1 view .LVU11
  58              		.loc 1 78 31 is_stmt 0 view .LVU12
  59 001c 0D49     		ldr	r1, .L5+12
  60 001e CB70     		strb	r3, [r1, #3]
  79:application/cmd/robot_cmd.c ****         shoot_cmd_send.friction_mode = FRICTION_OFF;
  61              		.loc 1 79 9 is_stmt 1 view .LVU13
  62              		.loc 1 79 38 is_stmt 0 view .LVU14
  63 0020 0D49     		ldr	r1, .L5+16
  64 0022 CB70     		strb	r3, [r1, #3]
  80:application/cmd/robot_cmd.c ****         shoot_cmd_send.load_mode = LOAD_STOP;
  65              		.loc 1 80 9 is_stmt 1 view .LVU15
  66              		.loc 1 80 34 is_stmt 0 view .LVU16
  67 0024 4B70     		strb	r3, [r1, #1]
  81:application/cmd/robot_cmd.c ****         shoot_cmd_send.shoot_mode = SHOOT_OFF;
  68              		.loc 1 81 9 is_stmt 1 view .LVU17
  69              		.loc 1 81 35 is_stmt 0 view .LVU18
  70 0026 0B70     		strb	r3, [r1]
  71              	.L3:
  82:application/cmd/robot_cmd.c ****          LOGERROR("[CMD] emergency stop!");
  72              		.loc 1 82 43 is_stmt 1 view .LVU19
  83:application/cmd/robot_cmd.c ****     }
  84:application/cmd/robot_cmd.c ****     // é¥æ§å™¨å³ä¾§å¼€å…³ä¸º[ä¸Š],æ¢å¤æ­£å¸¸è¿è¡Œ
  85:application/cmd/robot_cmd.c ****     if ( rc_data[TEMP].rc.SE>=0)
  73              		.loc 1 85 5 view .LVU20
  74              		.loc 1 85 26 is_stmt 0 view .LVU21
  75 0028 B2F90A30 		ldrsh	r3, [r2, #10]
  76              		.loc 1 85 8 view .LVU22
  77 002c 002B     		cmp	r3, #0
  78 002e 09DB     		blt	.L1
  86:application/cmd/robot_cmd.c ****     {   
  87:application/cmd/robot_cmd.c ****         shoot_cmd_send.friction_mode = FRICTION_ON;
  79              		.loc 1 87 9 is_stmt 1 view .LVU23
  80              		.loc 1 87 38 is_stmt 0 view .LVU24
  81 0030 094A     		ldr	r2, .L5+16
  82 0032 0123     		movs	r3, #1
  83 0034 D370     		strb	r3, [r2, #3]
  88:application/cmd/robot_cmd.c ****         shoot_cmd_send.shoot_mode = SHOOT_ON;
  84              		.loc 1 88 9 is_stmt 1 view .LVU25
ARM GAS  C:\Users\Sive\AppData\Local\Temp\ccjzVTSy.s 			page 4


  85              		.loc 1 88 35 is_stmt 0 view .LVU26
  86 0036 1370     		strb	r3, [r2]
  89:application/cmd/robot_cmd.c ****         robot_state = ROBOT_READY;
  87              		.loc 1 89 9 is_stmt 1 view .LVU27
  88              		.loc 1 89 21 is_stmt 0 view .LVU28
  89 0038 044A     		ldr	r2, .L5+4
  90 003a 1370     		strb	r3, [r2]
  90:application/cmd/robot_cmd.c ****         chassis_cmd_send.chassis_mode = CHASSIS_ROTATE;
  91              		.loc 1 90 9 is_stmt 1 view .LVU29
  92              		.loc 1 90 39 is_stmt 0 view .LVU30
  93 003c 044A     		ldr	r2, .L5+8
  94 003e 1375     		strb	r3, [r2, #20]
  91:application/cmd/robot_cmd.c ****         paw_cmd_send.paw_mode = Paw_ON;
  95              		.loc 1 91 9 is_stmt 1 view .LVU31
  96              		.loc 1 91 31 is_stmt 0 view .LVU32
  97 0040 044A     		ldr	r2, .L5+12
  98 0042 D370     		strb	r3, [r2, #3]
  92:application/cmd/robot_cmd.c ****          LOGINFO("[CMD] reinstate, robot ready");
  99              		.loc 1 92 49 is_stmt 1 view .LVU33
 100              	.L1:
  93:application/cmd/robot_cmd.c ****     }
  94:application/cmd/robot_cmd.c **** }
 101              		.loc 1 94 1 is_stmt 0 view .LVU34
 102 0044 7047     		bx	lr
 103              	.L6:
 104 0046 00BF     		.align	2
 105              	.L5:
 106 0048 00000000 		.word	rc_data
 107 004c 00000000 		.word	robot_state
 108 0050 00000000 		.word	chassis_cmd_send
 109 0054 00000000 		.word	paw_cmd_send
 110 0058 00000000 		.word	shoot_cmd_send
 111              		.cfi_endproc
 112              	.LFE171:
 114              		.section	.text.RemoteControlSet,"ax",%progbits
 115              		.align	1
 116              		.syntax unified
 117              		.thumb
 118              		.thumb_func
 120              	RemoteControlSet:
 121              	.LFB172:
  95:application/cmd/robot_cmd.c **** /**
  96:application/cmd/robot_cmd.c ****  * @brief æ§åˆ¶è¾“å…¥ä¸ºé¥æ§å™¨(è°ƒè¯•æ—¶)çš„æ¨¡å¼å’Œæ§åˆ¶é‡è®¾ç½®
  97:application/cmd/robot_cmd.c ****  *
  98:application/cmd/robot_cmd.c ****  */
  99:application/cmd/robot_cmd.c **** static void RemoteControlSet()
 100:application/cmd/robot_cmd.c **** {
 122              		.loc 1 100 1 is_stmt 1 view -0
 123              		.cfi_startproc
 124              		@ args = 0, pretend = 0, frame = 0
 125              		@ frame_needed = 0, uses_anonymous_args = 0
 126              		@ link register save eliminated.
 101:application/cmd/robot_cmd.c ****     // æ§åˆ¶åº•ç›˜å’Œäº‘å°è¿è¡Œæ¨¡å¼,äº‘å°å¾…æ·»åŠ ,äº‘å°æ˜¯å¦å§‹ç»ˆä½¿ç”¨IMUæ•°æ®?
 102:application/cmd/robot_cmd.c ****     // if (rc_data[TEMP].rc.SE>=0) // å³ä¾§å¼€å…³çŠ¶æ€[ä¸‹],åº•ç›˜è·Ÿéšäº‘å°
 103:application/cmd/robot_cmd.c ****     // {
 104:application/cmd/robot_cmd.c ****         
 105:application/cmd/robot_cmd.c ****         // gimbal_cmd_send.gimbal_mode = GIMBAL_GYRO_MODE;
ARM GAS  C:\Users\Sive\AppData\Local\Temp\ccjzVTSy.s 			page 5


 106:application/cmd/robot_cmd.c ****     // }
 107:application/cmd/robot_cmd.c ****     // else if (switch_is_mid(rc_data[TEMP].rc.switch_right)) // å³ä¾§å¼€å…³çŠ¶æ€[ä¸­],åº•ç›˜å’Œä
 108:application/cmd/robot_cmd.c ****     // {
 109:application/cmd/robot_cmd.c ****         // chassis_cmd_send.chassis_mode = CHASSIS_NO_FOLLOW;
 110:application/cmd/robot_cmd.c ****         // gimbal_cmd_send.gimbal_mode = GIMBAL_FREE_MODE;
 111:application/cmd/robot_cmd.c ****     // }
 112:application/cmd/robot_cmd.c **** 
 113:application/cmd/robot_cmd.c ****     // äº‘å°å‚æ•°,ç¡®å®šäº‘å°æ§åˆ¶æ•°æ®
 114:application/cmd/robot_cmd.c ****     // if (switch_is_mid(rc_data[TEMP].rc.switch_left)) // å·¦ä¾§å¼€å…³çŠ¶æ€ä¸º[ä¸­],è§†è§‰æ¨¡å¼
 115:application/cmd/robot_cmd.c ****     // {
 116:application/cmd/robot_cmd.c ****         // å¾…æ·»åŠ ,è§†è§‰ä¼šå‘æ¥å’Œç›®æ ‡çš„è¯¯å·®,åŒæ ·å°†å…¶è½¬åŒ–ä¸ºtotal angleçš„å¢é‡è¿›
 117:application/cmd/robot_cmd.c ****         // ...
 118:application/cmd/robot_cmd.c ****     // }
 119:application/cmd/robot_cmd.c ****     // // å·¦ä¾§å¼€å…³çŠ¶æ€ä¸º[ä¸‹],æˆ–è§†è§‰æœªè¯†åˆ«åˆ°ç›®æ ‡,çº¯é¥æ§å™¨æ‹¨æ†æ§åˆ¶
 120:application/cmd/robot_cmd.c ****     // if (switch_is_down(rc_data[TEMP].rc.switch_left) || vision_recv_data->target_state == NO_TAR
 121:application/cmd/robot_cmd.c ****     // { // æŒ‰ç…§æ‘‡æ†çš„è¾“å‡ºå¤§å°è¿›è¡Œè§’åº¦å¢é‡,å¢ç›Šç³»æ•°éœ€è°ƒæ•´
 122:application/cmd/robot_cmd.c ****     //     gimbal_cmd_send.yaw += 0.005f * (float)rc_data[TEMP].rc.rocker_l_;
 123:application/cmd/robot_cmd.c ****     //     gimbal_cmd_send.pitch += 0.001f * (float)rc_data[TEMP].rc.rocker_l1;
 124:application/cmd/robot_cmd.c ****     // }
 125:application/cmd/robot_cmd.c ****     // paw 0
 126:application/cmd/robot_cmd.c ****     if(rc_data[TEMP].rc.SA<500){
 127              		.loc 1 126 5 view .LVU36
 128              		.loc 1 126 15 is_stmt 0 view .LVU37
 129 0000 494B     		ldr	r3, .L21
 130 0002 1B68     		ldr	r3, [r3]
 131              		.loc 1 126 24 view .LVU38
 132 0004 B3F91020 		ldrsh	r2, [r3, #16]
 133              		.loc 1 126 7 view .LVU39
 134 0008 B2F5FA7F 		cmp	r2, #500
 135 000c 48DA     		bge	.L8
 127:application/cmd/robot_cmd.c ****         paw_cmd_send.paw0location=up;
 136              		.loc 1 127 9 is_stmt 1 view .LVU40
 137              		.loc 1 127 34 is_stmt 0 view .LVU41
 138 000e 474A     		ldr	r2, .L21+4
 139 0010 0021     		movs	r1, #0
 140 0012 1170     		strb	r1, [r2]
 141              	.L9:
 128:application/cmd/robot_cmd.c ****     }else
 129:application/cmd/robot_cmd.c ****     if(rc_data[TEMP].rc.SA>1500){
 130:application/cmd/robot_cmd.c ****         paw_cmd_send.paw0location=down;
 131:application/cmd/robot_cmd.c ****     }else{
 132:application/cmd/robot_cmd.c ****         paw_cmd_send.paw0location=stand;
 133:application/cmd/robot_cmd.c ****     } 
 134:application/cmd/robot_cmd.c ****     // paw 1
 135:application/cmd/robot_cmd.c ****     if(rc_data[TEMP].rc.SB<500){
 142              		.loc 1 135 5 is_stmt 1 view .LVU42
 143              		.loc 1 135 24 is_stmt 0 view .LVU43
 144 0014 B3F91220 		ldrsh	r2, [r3, #18]
 145              		.loc 1 135 7 view .LVU44
 146 0018 B2F5FA7F 		cmp	r2, #500
 147 001c 4CDA     		bge	.L11
 136:application/cmd/robot_cmd.c ****         paw_cmd_send.paw1location=up;
 148              		.loc 1 136 9 is_stmt 1 view .LVU45
 149              		.loc 1 136 34 is_stmt 0 view .LVU46
 150 001e 434A     		ldr	r2, .L21+4
 151 0020 0021     		movs	r1, #0
 152 0022 5170     		strb	r1, [r2, #1]
ARM GAS  C:\Users\Sive\AppData\Local\Temp\ccjzVTSy.s 			page 6


 153              	.L12:
 137:application/cmd/robot_cmd.c ****     }
 138:application/cmd/robot_cmd.c ****     else if
 139:application/cmd/robot_cmd.c ****     (rc_data[TEMP].rc.SB>1500){
 140:application/cmd/robot_cmd.c ****         paw_cmd_send.paw1location=down;
 141:application/cmd/robot_cmd.c ****     }else {
 142:application/cmd/robot_cmd.c ****         paw_cmd_send.paw1location=stand;
 143:application/cmd/robot_cmd.c ****     }
 144:application/cmd/robot_cmd.c ****     // paw 2    
 145:application/cmd/robot_cmd.c ****     if(rc_data[TEMP].rc.SC<500){
 154              		.loc 1 145 5 is_stmt 1 view .LVU47
 155              		.loc 1 145 24 is_stmt 0 view .LVU48
 156 0024 B3F91420 		ldrsh	r2, [r3, #20]
 157              		.loc 1 145 7 view .LVU49
 158 0028 B2F5FA7F 		cmp	r2, #500
 159 002c 50DA     		bge	.L14
 146:application/cmd/robot_cmd.c ****         paw_cmd_send.paw2location=up;
 160              		.loc 1 146 9 is_stmt 1 view .LVU50
 161              		.loc 1 146 34 is_stmt 0 view .LVU51
 162 002e 3F4A     		ldr	r2, .L21+4
 163 0030 0021     		movs	r1, #0
 164 0032 9170     		strb	r1, [r2, #2]
 165              	.L15:
 147:application/cmd/robot_cmd.c ****     }
 148:application/cmd/robot_cmd.c ****     else if
 149:application/cmd/robot_cmd.c ****     (rc_data[TEMP].rc.SC>1500){
 150:application/cmd/robot_cmd.c ****         paw_cmd_send.paw2location=down;
 151:application/cmd/robot_cmd.c ****     }else {
 152:application/cmd/robot_cmd.c ****         paw_cmd_send.paw2location=stand;
 153:application/cmd/robot_cmd.c ****     }
 154:application/cmd/robot_cmd.c **** 
 155:application/cmd/robot_cmd.c ****     if(rc_data[TEMP].rc.SD>600){
 166              		.loc 1 155 5 is_stmt 1 view .LVU52
 167              		.loc 1 155 24 is_stmt 0 view .LVU53
 168 0034 B3F91620 		ldrsh	r2, [r3, #22]
 169              		.loc 1 155 7 view .LVU54
 170 0038 B2F5167F 		cmp	r2, #600
 171 003c 54DD     		ble	.L17
 156:application/cmd/robot_cmd.c ****         shoot_cmd_send.load_mode=LOAD_1_BULLET;
 172              		.loc 1 156 9 is_stmt 1 view .LVU55
 173              		.loc 1 156 33 is_stmt 0 view .LVU56
 174 003e 3C4A     		ldr	r2, .L21+8
 175 0040 0221     		movs	r1, #2
 176 0042 5170     		strb	r1, [r2, #1]
 177              	.L18:
 157:application/cmd/robot_cmd.c ****     }else{
 158:application/cmd/robot_cmd.c ****         shoot_cmd_send.load_mode=LOAD_STOP;
 159:application/cmd/robot_cmd.c ****     }
 160:application/cmd/robot_cmd.c **** 
 161:application/cmd/robot_cmd.c **** 
 162:application/cmd/robot_cmd.c ****     // åº•ç›˜å‚æ•°,ç›®å‰æ²¡æœ‰åŠ å…¥å°é™€èº(è°ƒè¯•ä¼¼ä¹æš‚æ—¶æ²¡æœ‰å¿…è¦),ç³»æ•°éœ€è¦è°ƒæ•´
 163:application/cmd/robot_cmd.c ****     chassis_cmd_send.vx = 10.0f * (float)rc_data[TEMP].rc.rocker_r_; // _æ°´å¹³æ–¹å‘
 178              		.loc 1 163 5 is_stmt 1 view .LVU57
 179              		.loc 1 163 58 is_stmt 0 view .LVU58
 180 0044 B3F90420 		ldrsh	r2, [r3, #4]
 181 0048 07EE902A 		vmov	s15, r2	@ int
 182              		.loc 1 163 35 view .LVU59
ARM GAS  C:\Users\Sive\AppData\Local\Temp\ccjzVTSy.s 			page 7


 183 004c F8EEE77A 		vcvt.f32.s32	s15, s15
 184              		.loc 1 163 33 view .LVU60
 185 0050 B2EE047A 		vmov.f32	s14, #1.0e+1
 186 0054 67EE877A 		vmul.f32	s15, s15, s14
 187              		.loc 1 163 25 view .LVU61
 188 0058 364A     		ldr	r2, .L21+12
 189 005a C2ED007A 		vstr.32	s15, [r2]
 164:application/cmd/robot_cmd.c ****     chassis_cmd_send.vy = 10.0f * (float)rc_data[TEMP].rc.rocker_r1; // 1æ•°å€¼æ–¹å‘
 190              		.loc 1 164 5 is_stmt 1 view .LVU62
 191              		.loc 1 164 58 is_stmt 0 view .LVU63
 192 005e B3F90610 		ldrsh	r1, [r3, #6]
 193 0062 07EE901A 		vmov	s15, r1	@ int
 194              		.loc 1 164 35 view .LVU64
 195 0066 F8EEE77A 		vcvt.f32.s32	s15, s15
 196              		.loc 1 164 33 view .LVU65
 197 006a 67EE877A 		vmul.f32	s15, s15, s14
 198              		.loc 1 164 25 view .LVU66
 199 006e C2ED017A 		vstr.32	s15, [r2, #4]
 165:application/cmd/robot_cmd.c ****       // æ—‹è½¬æ–¹å‘
 166:application/cmd/robot_cmd.c **** 
 167:application/cmd/robot_cmd.c ****     if(rc_data[TEMP].rc.SG>1000){
 200              		.loc 1 167 5 is_stmt 1 view .LVU67
 201              		.loc 1 167 24 is_stmt 0 view .LVU68
 202 0072 B3F90E20 		ldrsh	r2, [r3, #14]
 203              		.loc 1 167 7 view .LVU69
 204 0076 B2F57A7F 		cmp	r2, #1000
 205 007a 39DD     		ble	.L19
 168:application/cmd/robot_cmd.c ****         chassis_cmd_send.wz = 10.0f * (float)rc_data[TEMP].rc.rocker_l_;
 206              		.loc 1 168 9 is_stmt 1 view .LVU70
 207              		.loc 1 168 62 is_stmt 0 view .LVU71
 208 007c B3F90030 		ldrsh	r3, [r3]
 209 0080 07EE903A 		vmov	s15, r3	@ int
 210              		.loc 1 168 39 view .LVU72
 211 0084 F8EEE77A 		vcvt.f32.s32	s15, s15
 212              		.loc 1 168 37 view .LVU73
 213 0088 67EE877A 		vmul.f32	s15, s15, s14
 214              		.loc 1 168 29 view .LVU74
 215 008c 294B     		ldr	r3, .L21+12
 216 008e C3ED027A 		vstr.32	s15, [r3, #8]
 169:application/cmd/robot_cmd.c ****         shoot_cmd_send.shoot_rate1=0;
 217              		.loc 1 169 9 is_stmt 1 view .LVU75
 218              		.loc 1 169 35 is_stmt 0 view .LVU76
 219 0092 274B     		ldr	r3, .L21+8
 220 0094 0022     		movs	r2, #0
 221 0096 C3F80520 		str	r2, [r3, #5]	@ unaligned
 170:application/cmd/robot_cmd.c ****         shoot_cmd_send.shoot_rate2= 0;
 222              		.loc 1 170 9 is_stmt 1 view .LVU77
 223              		.loc 1 170 35 is_stmt 0 view .LVU78
 224 009a C3F80920 		str	r2, [r3, #9]	@ unaligned
 225 009e 7047     		bx	lr
 226              	.L8:
 129:application/cmd/robot_cmd.c ****         paw_cmd_send.paw0location=down;
 227              		.loc 1 129 5 is_stmt 1 view .LVU79
 129:application/cmd/robot_cmd.c ****         paw_cmd_send.paw0location=down;
 228              		.loc 1 129 7 is_stmt 0 view .LVU80
 229 00a0 40F2DC51 		movw	r1, #1500
 230 00a4 8A42     		cmp	r2, r1
ARM GAS  C:\Users\Sive\AppData\Local\Temp\ccjzVTSy.s 			page 8


 231 00a6 03DD     		ble	.L10
 130:application/cmd/robot_cmd.c ****     }else{
 232              		.loc 1 130 9 is_stmt 1 view .LVU81
 130:application/cmd/robot_cmd.c ****     }else{
 233              		.loc 1 130 34 is_stmt 0 view .LVU82
 234 00a8 204A     		ldr	r2, .L21+4
 235 00aa 0121     		movs	r1, #1
 236 00ac 1170     		strb	r1, [r2]
 237 00ae B1E7     		b	.L9
 238              	.L10:
 132:application/cmd/robot_cmd.c ****     } 
 239              		.loc 1 132 9 is_stmt 1 view .LVU83
 132:application/cmd/robot_cmd.c ****     } 
 240              		.loc 1 132 34 is_stmt 0 view .LVU84
 241 00b0 1E4A     		ldr	r2, .L21+4
 242 00b2 0221     		movs	r1, #2
 243 00b4 1170     		strb	r1, [r2]
 244 00b6 ADE7     		b	.L9
 245              	.L11:
 138:application/cmd/robot_cmd.c ****     (rc_data[TEMP].rc.SB>1500){
 246              		.loc 1 138 10 is_stmt 1 view .LVU85
 139:application/cmd/robot_cmd.c ****         paw_cmd_send.paw1location=down;
 247              		.loc 1 139 5 is_stmt 0 view .LVU86
 248 00b8 40F2DC51 		movw	r1, #1500
 249 00bc 8A42     		cmp	r2, r1
 250 00be 03DD     		ble	.L13
 140:application/cmd/robot_cmd.c ****     }else {
 251              		.loc 1 140 9 is_stmt 1 view .LVU87
 140:application/cmd/robot_cmd.c ****     }else {
 252              		.loc 1 140 34 is_stmt 0 view .LVU88
 253 00c0 1A4A     		ldr	r2, .L21+4
 254 00c2 0121     		movs	r1, #1
 255 00c4 5170     		strb	r1, [r2, #1]
 256 00c6 ADE7     		b	.L12
 257              	.L13:
 142:application/cmd/robot_cmd.c ****     }
 258              		.loc 1 142 9 is_stmt 1 view .LVU89
 142:application/cmd/robot_cmd.c ****     }
 259              		.loc 1 142 34 is_stmt 0 view .LVU90
 260 00c8 184A     		ldr	r2, .L21+4
 261 00ca 0221     		movs	r1, #2
 262 00cc 5170     		strb	r1, [r2, #1]
 263 00ce A9E7     		b	.L12
 264              	.L14:
 148:application/cmd/robot_cmd.c ****     (rc_data[TEMP].rc.SC>1500){
 265              		.loc 1 148 10 is_stmt 1 view .LVU91
 149:application/cmd/robot_cmd.c ****         paw_cmd_send.paw2location=down;
 266              		.loc 1 149 5 is_stmt 0 view .LVU92
 267 00d0 40F2DC51 		movw	r1, #1500
 268 00d4 8A42     		cmp	r2, r1
 269 00d6 03DD     		ble	.L16
 150:application/cmd/robot_cmd.c ****     }else {
 270              		.loc 1 150 9 is_stmt 1 view .LVU93
 150:application/cmd/robot_cmd.c ****     }else {
 271              		.loc 1 150 34 is_stmt 0 view .LVU94
 272 00d8 144A     		ldr	r2, .L21+4
 273 00da 0121     		movs	r1, #1
ARM GAS  C:\Users\Sive\AppData\Local\Temp\ccjzVTSy.s 			page 9


 274 00dc 9170     		strb	r1, [r2, #2]
 275 00de A9E7     		b	.L15
 276              	.L16:
 152:application/cmd/robot_cmd.c ****     }
 277              		.loc 1 152 9 is_stmt 1 view .LVU95
 152:application/cmd/robot_cmd.c ****     }
 278              		.loc 1 152 34 is_stmt 0 view .LVU96
 279 00e0 124A     		ldr	r2, .L21+4
 280 00e2 0221     		movs	r1, #2
 281 00e4 9170     		strb	r1, [r2, #2]
 282 00e6 A5E7     		b	.L15
 283              	.L17:
 158:application/cmd/robot_cmd.c ****     }
 284              		.loc 1 158 9 is_stmt 1 view .LVU97
 158:application/cmd/robot_cmd.c ****     }
 285              		.loc 1 158 33 is_stmt 0 view .LVU98
 286 00e8 114A     		ldr	r2, .L21+8
 287 00ea 0021     		movs	r1, #0
 288 00ec 5170     		strb	r1, [r2, #1]
 289 00ee A9E7     		b	.L18
 290              	.L19:
 171:application/cmd/robot_cmd.c ****     }else{
 172:application/cmd/robot_cmd.c ****         shoot_cmd_send.shoot_rate1=60.0f * (float)rc_data[TEMP].rc.rocker_l_;
 291              		.loc 1 172 9 is_stmt 1 view .LVU99
 292              		.loc 1 172 67 is_stmt 0 view .LVU100
 293 00f0 B3F90020 		ldrsh	r2, [r3]
 294 00f4 07EE902A 		vmov	s15, r2	@ int
 295              		.loc 1 172 44 view .LVU101
 296 00f8 F8EEE77A 		vcvt.f32.s32	s15, s15
 297              		.loc 1 172 42 view .LVU102
 298 00fc 9FED0E7A 		vldr.32	s14, .L21+16
 299              		.loc 1 172 35 view .LVU103
 300 0100 0B4A     		ldr	r2, .L21+8
 301 0102 67EE877A 		vmul.f32	s15, s15, s14
 302 0106 17EE901A 		vmov	r1, s15	@ int
 303 010a C2F80510 		str	r1, [r2, #5]	@ unaligned
 173:application/cmd/robot_cmd.c ****         shoot_cmd_send.shoot_rate2= 60.0f * (float)rc_data[TEMP].rc.rocker_r1;
 304              		.loc 1 173 9 is_stmt 1 view .LVU104
 305              		.loc 1 173 68 is_stmt 0 view .LVU105
 306 010e B3F90630 		ldrsh	r3, [r3, #6]
 307 0112 07EE903A 		vmov	s15, r3	@ int
 308              		.loc 1 173 45 view .LVU106
 309 0116 F8EEE77A 		vcvt.f32.s32	s15, s15
 310              		.loc 1 173 35 view .LVU107
 311 011a 67EE877A 		vmul.f32	s15, s15, s14
 312 011e 17EE903A 		vmov	r3, s15	@ int
 313 0122 C2F80930 		str	r3, [r2, #9]	@ unaligned
 174:application/cmd/robot_cmd.c ****     }
 175:application/cmd/robot_cmd.c ****     // å‘å°„å‚æ•°
 176:application/cmd/robot_cmd.c ****     // if (switch_is_up(rc_data[TEMP].rc.switch_right)) // å³ä¾§å¼€å…³çŠ¶æ€[ä¸Š],å¼¹èˆ±æ‰“å¼€
 177:application/cmd/robot_cmd.c ****     //     ;                                            // å¼¹èˆ±èˆµæœºæ§åˆ¶,å¾…æ·»åŠ servo_motoræ
 178:application/cmd/robot_cmd.c ****     // else
 179:application/cmd/robot_cmd.c ****     //     ; // å¼¹èˆ±èˆµæœºæ§åˆ¶,å¾…æ·»åŠ servo_motoræ¨¡å—,å…³é—­
 180:application/cmd/robot_cmd.c **** 
 181:application/cmd/robot_cmd.c ****     //æ‘©æ“¦è½®æ§åˆ¶,æ‹¨è½®å‘ä¸Šæ‰“ä¸ºè´Ÿ,å‘ä¸‹ä¸ºæ­£
 182:application/cmd/robot_cmd.c ****     // if (rc_data[TEMP].rc.dial < -100) // å‘ä¸Šè¶…è¿‡100,æ‰“å¼€æ‘©æ“¦è½®
 183:application/cmd/robot_cmd.c ****     //     shoot_cmd_send.friction_mode = FRICTION_ON;
ARM GAS  C:\Users\Sive\AppData\Local\Temp\ccjzVTSy.s 			page 10


 184:application/cmd/robot_cmd.c ****     // else
 185:application/cmd/robot_cmd.c ****     //     shoot_cmd_send.friction_mode = FRICTION_OFF;
 186:application/cmd/robot_cmd.c ****     // // æ‹¨å¼¹æ§åˆ¶,é¥æ§å™¨å›ºå®šä¸ºä¸€ç§æ‹¨å¼¹æ¨¡å¼,å¯è‡ªè¡Œé€‰æ‹©
 187:application/cmd/robot_cmd.c ****     // if (rc_data[TEMP].rc.dial < -500)
 188:application/cmd/robot_cmd.c ****     //     shoot_cmd_send.load_mode = LOAD_BURSTFIRE;
 189:application/cmd/robot_cmd.c ****     // else
 190:application/cmd/robot_cmd.c ****     //     shoot_cmd_send.load_mode = LOAD_STOP;
 191:application/cmd/robot_cmd.c ****     // // å°„é¢‘æ§åˆ¶,å›ºå®šæ¯ç§’1å‘,åç»­å¯ä»¥æ ¹æ®å·¦ä¾§æ‹¨è½®çš„å€¼å¤§å°åˆ‡æ¢å°„é¢‘,
 192:application/cmd/robot_cmd.c ****     // shoot_cmd_send.shoot_rate = 8;
 193:application/cmd/robot_cmd.c **** }
 314              		.loc 1 193 1 view .LVU108
 315 0126 7047     		bx	lr
 316              	.L22:
 317              		.align	2
 318              	.L21:
 319 0128 00000000 		.word	rc_data
 320 012c 00000000 		.word	paw_cmd_send
 321 0130 00000000 		.word	shoot_cmd_send
 322 0134 00000000 		.word	chassis_cmd_send
 323 0138 00007042 		.word	1114636288
 324              		.cfi_endproc
 325              	.LFE172:
 327              		.section	.rodata.RobotCMDInit.str1.4,"aMS",%progbits,1
 328              		.align	2
 329              	.LC0:
 330 0000 7061775F 		.ascii	"paw_cmd\000"
 330      636D6400 
 331              		.align	2
 332              	.LC1:
 333 0008 7061775F 		.ascii	"paw_feed\000"
 333      66656564 
 333      00
 334 0011 000000   		.align	2
 335              	.LC2:
 336 0014 73686F6F 		.ascii	"shoot_cmd\000"
 336      745F636D 
 336      6400
 337 001e 0000     		.align	2
 338              	.LC3:
 339 0020 73686F6F 		.ascii	"shoot_feed\000"
 339      745F6665 
 339      656400
 340 002b 00       		.align	2
 341              	.LC4:
 342 002c 63686173 		.ascii	"chassis_cmd\000"
 342      7369735F 
 342      636D6400 
 343              		.align	2
 344              	.LC5:
 345 0038 63686173 		.ascii	"chassis_feed\000"
 345      7369735F 
 345      66656564 
 345      00
 346              		.section	.text.RobotCMDInit,"ax",%progbits
 347              		.align	1
 348              		.global	RobotCMDInit
 349              		.syntax unified
ARM GAS  C:\Users\Sive\AppData\Local\Temp\ccjzVTSy.s 			page 11


 350              		.thumb
 351              		.thumb_func
 353              	RobotCMDInit:
 354              	.LFB170:
  37:application/cmd/robot_cmd.c ****     rc_data = RemoteControlInit(&huart3);   // ä¿®æ”¹ä¸ºå¯¹åº”ä¸²å£,æ³¨æ„å¦‚æœæ˜¯è‡ªç ”æ¿dbuså
 355              		.loc 1 37 1 is_stmt 1 view -0
 356              		.cfi_startproc
 357              		@ args = 0, pretend = 0, frame = 0
 358              		@ frame_needed = 0, uses_anonymous_args = 0
 359 0000 08B5     		push	{r3, lr}
 360              		.cfi_def_cfa_offset 8
 361              		.cfi_offset 3, -8
 362              		.cfi_offset 14, -4
  38:application/cmd/robot_cmd.c ****     // vision_recv_data = VisionInit(&huart1); // è§†è§‰é€šä¿¡ä¸²å£
 363              		.loc 1 38 5 view .LVU110
  38:application/cmd/robot_cmd.c ****     // vision_recv_data = VisionInit(&huart1); // è§†è§‰é€šä¿¡ä¸²å£
 364              		.loc 1 38 15 is_stmt 0 view .LVU111
 365 0002 1648     		ldr	r0, .L25
 366 0004 FFF7FEFF 		bl	RemoteControlInit
 367              	.LVL0:
  38:application/cmd/robot_cmd.c ****     // vision_recv_data = VisionInit(&huart1); // è§†è§‰é€šä¿¡ä¸²å£
 368              		.loc 1 38 13 discriminator 1 view .LVU112
 369 0008 154B     		ldr	r3, .L25+4
 370 000a 1860     		str	r0, [r3]
  43:application/cmd/robot_cmd.c ****     paw_feed_sub = SubRegister("paw_feed", sizeof(Paw_Upload_Data_s));
 371              		.loc 1 43 5 is_stmt 1 view .LVU113
  43:application/cmd/robot_cmd.c ****     paw_feed_sub = SubRegister("paw_feed", sizeof(Paw_Upload_Data_s));
 372              		.loc 1 43 19 is_stmt 0 view .LVU114
 373 000c 0C21     		movs	r1, #12
 374 000e 1548     		ldr	r0, .L25+8
 375 0010 FFF7FEFF 		bl	PubRegister
 376              	.LVL1:
  43:application/cmd/robot_cmd.c ****     paw_feed_sub = SubRegister("paw_feed", sizeof(Paw_Upload_Data_s));
 377              		.loc 1 43 17 discriminator 1 view .LVU115
 378 0014 144B     		ldr	r3, .L25+12
 379 0016 1860     		str	r0, [r3]
  44:application/cmd/robot_cmd.c ****      shoot_cmd_pub = PubRegister("shoot_cmd", sizeof(Shoot_Ctrl_Cmd_s));
 380              		.loc 1 44 5 is_stmt 1 view .LVU116
  44:application/cmd/robot_cmd.c ****      shoot_cmd_pub = PubRegister("shoot_cmd", sizeof(Shoot_Ctrl_Cmd_s));
 381              		.loc 1 44 20 is_stmt 0 view .LVU117
 382 0018 0021     		movs	r1, #0
 383 001a 1448     		ldr	r0, .L25+16
 384 001c FFF7FEFF 		bl	SubRegister
 385              	.LVL2:
  44:application/cmd/robot_cmd.c ****      shoot_cmd_pub = PubRegister("shoot_cmd", sizeof(Shoot_Ctrl_Cmd_s));
 386              		.loc 1 44 18 discriminator 1 view .LVU118
 387 0020 134B     		ldr	r3, .L25+20
 388 0022 1860     		str	r0, [r3]
  45:application/cmd/robot_cmd.c ****     shoot_feed_sub = SubRegister("shoot_feed", sizeof(Shoot_Upload_Data_s));
 389              		.loc 1 45 6 is_stmt 1 view .LVU119
  45:application/cmd/robot_cmd.c ****     shoot_feed_sub = SubRegister("shoot_feed", sizeof(Shoot_Upload_Data_s));
 390              		.loc 1 45 22 is_stmt 0 view .LVU120
 391 0024 0D21     		movs	r1, #13
 392 0026 1348     		ldr	r0, .L25+24
 393 0028 FFF7FEFF 		bl	PubRegister
 394              	.LVL3:
  45:application/cmd/robot_cmd.c ****     shoot_feed_sub = SubRegister("shoot_feed", sizeof(Shoot_Upload_Data_s));
ARM GAS  C:\Users\Sive\AppData\Local\Temp\ccjzVTSy.s 			page 12


 395              		.loc 1 45 20 discriminator 1 view .LVU121
 396 002c 124B     		ldr	r3, .L25+28
 397 002e 1860     		str	r0, [r3]
  46:application/cmd/robot_cmd.c ****      
 398              		.loc 1 46 5 is_stmt 1 view .LVU122
  46:application/cmd/robot_cmd.c ****      
 399              		.loc 1 46 22 is_stmt 0 view .LVU123
 400 0030 0021     		movs	r1, #0
 401 0032 1248     		ldr	r0, .L25+32
 402 0034 FFF7FEFF 		bl	SubRegister
 403              	.LVL4:
  46:application/cmd/robot_cmd.c ****      
 404              		.loc 1 46 20 discriminator 1 view .LVU124
 405 0038 114B     		ldr	r3, .L25+36
 406 003a 1860     		str	r0, [r3]
  50:application/cmd/robot_cmd.c ****     chassis_feed_sub = SubRegister("chassis_feed", sizeof(Chassis_Upload_Data_s));
 407              		.loc 1 50 5 is_stmt 1 view .LVU125
  50:application/cmd/robot_cmd.c ****     chassis_feed_sub = SubRegister("chassis_feed", sizeof(Chassis_Upload_Data_s));
 408              		.loc 1 50 23 is_stmt 0 view .LVU126
 409 003c 1921     		movs	r1, #25
 410 003e 1148     		ldr	r0, .L25+40
 411 0040 FFF7FEFF 		bl	PubRegister
 412              	.LVL5:
  50:application/cmd/robot_cmd.c ****     chassis_feed_sub = SubRegister("chassis_feed", sizeof(Chassis_Upload_Data_s));
 413              		.loc 1 50 21 discriminator 1 view .LVU127
 414 0044 104B     		ldr	r3, .L25+44
 415 0046 1860     		str	r0, [r3]
  51:application/cmd/robot_cmd.c **** #endif // ONE_BOARD
 416              		.loc 1 51 5 is_stmt 1 view .LVU128
  51:application/cmd/robot_cmd.c **** #endif // ONE_BOARD
 417              		.loc 1 51 24 is_stmt 0 view .LVU129
 418 0048 0121     		movs	r1, #1
 419 004a 1048     		ldr	r0, .L25+48
 420 004c FFF7FEFF 		bl	SubRegister
 421              	.LVL6:
  51:application/cmd/robot_cmd.c **** #endif // ONE_BOARD
 422              		.loc 1 51 22 discriminator 1 view .LVU130
 423 0050 0F4B     		ldr	r3, .L25+52
 424 0052 1860     		str	r0, [r3]
  67:application/cmd/robot_cmd.c **** }
 425              		.loc 1 67 5 is_stmt 1 view .LVU131
  67:application/cmd/robot_cmd.c **** }
 426              		.loc 1 67 17 is_stmt 0 view .LVU132
 427 0054 0F4B     		ldr	r3, .L25+56
 428 0056 0122     		movs	r2, #1
 429 0058 1A70     		strb	r2, [r3]
  68:application/cmd/robot_cmd.c **** 
 430              		.loc 1 68 1 view .LVU133
 431 005a 08BD     		pop	{r3, pc}
 432              	.L26:
 433              		.align	2
 434              	.L25:
 435 005c 00000000 		.word	huart3
 436 0060 00000000 		.word	rc_data
 437 0064 00000000 		.word	.LC0
 438 0068 00000000 		.word	paw_cmd_pub
 439 006c 08000000 		.word	.LC1
ARM GAS  C:\Users\Sive\AppData\Local\Temp\ccjzVTSy.s 			page 13


 440 0070 00000000 		.word	paw_feed_sub
 441 0074 14000000 		.word	.LC2
 442 0078 00000000 		.word	shoot_cmd_pub
 443 007c 20000000 		.word	.LC3
 444 0080 00000000 		.word	shoot_feed_sub
 445 0084 2C000000 		.word	.LC4
 446 0088 00000000 		.word	chassis_cmd_pub
 447 008c 38000000 		.word	.LC5
 448 0090 00000000 		.word	chassis_feed_sub
 449 0094 00000000 		.word	robot_state
 450              		.cfi_endproc
 451              	.LFE170:
 453              		.section	.text.RobotCMDTask,"ax",%progbits
 454              		.align	1
 455              		.global	RobotCMDTask
 456              		.syntax unified
 457              		.thumb
 458              		.thumb_func
 460              	RobotCMDTask:
 461              	.LFB173:
 194:application/cmd/robot_cmd.c **** 
 195:application/cmd/robot_cmd.c **** /* æœºå™¨äººæ ¸å¿ƒæ§åˆ¶ä»»åŠ¡,200Hzé¢‘ç‡è¿è¡Œ(å¿…é¡»é«˜äºè§†è§‰å‘é€é¢‘ç‡) */
 196:application/cmd/robot_cmd.c **** void RobotCMDTask()
 197:application/cmd/robot_cmd.c **** {
 462              		.loc 1 197 1 is_stmt 1 view -0
 463              		.cfi_startproc
 464              		@ args = 0, pretend = 0, frame = 0
 465              		@ frame_needed = 0, uses_anonymous_args = 0
 466 0000 08B5     		push	{r3, lr}
 467              		.cfi_def_cfa_offset 8
 468              		.cfi_offset 3, -8
 469              		.cfi_offset 14, -4
 198:application/cmd/robot_cmd.c ****     // ä»å…¶ä»–åº”ç”¨è·å–å›ä¼ æ•°æ®
 199:application/cmd/robot_cmd.c **** #ifdef ONE_BOARD
 200:application/cmd/robot_cmd.c ****     SubGetMessage(chassis_feed_sub, (void *)&chassis_fetch_data);
 470              		.loc 1 200 5 view .LVU135
 471 0002 0F49     		ldr	r1, .L29
 472 0004 0F4B     		ldr	r3, .L29+4
 473 0006 1868     		ldr	r0, [r3]
 474 0008 FFF7FEFF 		bl	SubGetMessage
 475              	.LVL7:
 201:application/cmd/robot_cmd.c **** #endif // ONE_BOARD
 202:application/cmd/robot_cmd.c **** #ifdef GIMBAL_BOARD
 203:application/cmd/robot_cmd.c ****     chassis_fetch_data = *(Chassis_Upload_Data_s *)CANCommGet(cmd_can_comm);
 204:application/cmd/robot_cmd.c **** #endif // GIMBAL_BOARD
 205:application/cmd/robot_cmd.c ****     SubGetMessage(paw_feed_sub, &paw_fetch_data);//---äº‘å°å’Œå‘å°„
 476              		.loc 1 205 5 view .LVU136
 477 000c 0E49     		ldr	r1, .L29+8
 478 000e 0F4B     		ldr	r3, .L29+12
 479 0010 1868     		ldr	r0, [r3]
 480 0012 FFF7FEFF 		bl	SubGetMessage
 481              	.LVL8:
 206:application/cmd/robot_cmd.c ****     // SubGetMessage(gimbal_feed_sub, &gimbal_fetch_data);
 207:application/cmd/robot_cmd.c **** 
 208:application/cmd/robot_cmd.c ****     // æ ¹æ®gimbalçš„åé¦ˆå€¼è®¡ç®—äº‘å°å’Œåº•ç›˜æ­£æ–¹å‘çš„å¤¹è§’,ä¸éœ€è¦ä¼ å‚,é€šè¿‡static
 209:application/cmd/robot_cmd.c ****     // CalcOffsetAngle();
 210:application/cmd/robot_cmd.c ****     // // æ ¹æ®é¥æ§å™¨å·¦ä¾§å¼€å…³,ç¡®å®šå½“å‰ä½¿ç”¨çš„æ§åˆ¶æ¨¡å¼ä¸ºé¥æ§å™¨è°ƒè¯•è¿˜æ˜¯é”®é
ARM GAS  C:\Users\Sive\AppData\Local\Temp\ccjzVTSy.s 			page 14


 211:application/cmd/robot_cmd.c ****     // if (switch_is_down(rc_data[TEMP].rc.switch_left)) // é¥æ§å™¨å·¦ä¾§å¼€å…³çŠ¶æ€ä¸º[ä¸‹],é¥
 212:application/cmd/robot_cmd.c ****         RemoteControlSet();
 482              		.loc 1 212 9 view .LVU137
 483 0016 FFF7FEFF 		bl	RemoteControlSet
 484              	.LVL9:
 213:application/cmd/robot_cmd.c ****     // else if (switch_is_up(rc_data[TEMP].rc.switch_left)) // é¥æ§å™¨å·¦ä¾§å¼€å…³çŠ¶æ€ä¸º[ä¸Š],
 214:application/cmd/robot_cmd.c ****         // MouseKeySet();
 215:application/cmd/robot_cmd.c **** 
 216:application/cmd/robot_cmd.c ****         EmergencyHandler(); // å¤„ç†æ¨¡å—ç¦»çº¿å’Œé¥æ§å™¨æ€¥åœç­‰ç´§æ€¥æƒ…å†µ
 485              		.loc 1 216 9 view .LVU138
 486 001a FFF7FEFF 		bl	EmergencyHandler
 487              	.LVL10:
 217:application/cmd/robot_cmd.c **** 
 218:application/cmd/robot_cmd.c ****     // è®¾ç½®è§†è§‰å‘é€æ•°æ®,è¿˜éœ€å¢åŠ åŠ é€Ÿåº¦å’Œè§’é€Ÿåº¦æ•°æ®
 219:application/cmd/robot_cmd.c ****     // VisionSetFlag(chassis_fetch_data.enemy_color,,chassis_fetch_data.bullet_speed)
 220:application/cmd/robot_cmd.c **** 
 221:application/cmd/robot_cmd.c ****     // æ¨é€æ¶ˆæ¯,åŒæ¿é€šä¿¡,è§†è§‰é€šä¿¡ç­‰
 222:application/cmd/robot_cmd.c ****     // å…¶ä»–åº”ç”¨æ‰€éœ€çš„æ§åˆ¶æ•°æ®åœ¨remotecontrolsetmodeå’Œmousekeysetmodeä¸­å®Œæˆè®¾ç½®
 223:application/cmd/robot_cmd.c **** #ifdef ONE_BOARD
 224:application/cmd/robot_cmd.c ****     PubPushMessage(chassis_cmd_pub, (void *)&chassis_cmd_send);
 488              		.loc 1 224 5 view .LVU139
 489 001e 0C49     		ldr	r1, .L29+16
 490 0020 0C4B     		ldr	r3, .L29+20
 491 0022 1868     		ldr	r0, [r3]
 492 0024 FFF7FEFF 		bl	PubPushMessage
 493              	.LVL11:
 225:application/cmd/robot_cmd.c ****     PubPushMessage(paw_cmd_pub, (void *)&paw_cmd_send);
 494              		.loc 1 225 5 view .LVU140
 495 0028 0B49     		ldr	r1, .L29+24
 496 002a 0C4B     		ldr	r3, .L29+28
 497 002c 1868     		ldr	r0, [r3]
 498 002e FFF7FEFF 		bl	PubPushMessage
 499              	.LVL12:
 226:application/cmd/robot_cmd.c ****     PubPushMessage(shoot_cmd_pub, (void *)&shoot_cmd_send);
 500              		.loc 1 226 5 view .LVU141
 501 0032 0B49     		ldr	r1, .L29+32
 502 0034 0B4B     		ldr	r3, .L29+36
 503 0036 1868     		ldr	r0, [r3]
 504 0038 FFF7FEFF 		bl	PubPushMessage
 505              	.LVL13:
 227:application/cmd/robot_cmd.c **** #endif // ONE_BOARD
 228:application/cmd/robot_cmd.c **** #ifdef GIMBAL_BOARD
 229:application/cmd/robot_cmd.c ****     CANCommSend(cmd_can_comm, (void *)&chassis_cmd_send);
 230:application/cmd/robot_cmd.c **** #endif // GIMBAL_BOARD
 231:application/cmd/robot_cmd.c ****     
 232:application/cmd/robot_cmd.c ****     // PubPushMessage(gimbal_cmd_pub, (void *)&gimbal_cmd_send);
 233:application/cmd/robot_cmd.c ****     // VisionSend(&vision_send_data);
 234:application/cmd/robot_cmd.c **** }
 506              		.loc 1 234 1 is_stmt 0 view .LVU142
 507 003c 08BD     		pop	{r3, pc}
 508              	.L30:
 509 003e 00BF     		.align	2
 510              	.L29:
 511 0040 00000000 		.word	chassis_fetch_data
 512 0044 00000000 		.word	chassis_feed_sub
 513 0048 00000000 		.word	paw_fetch_data
 514 004c 00000000 		.word	paw_feed_sub
ARM GAS  C:\Users\Sive\AppData\Local\Temp\ccjzVTSy.s 			page 15


 515 0050 00000000 		.word	chassis_cmd_send
 516 0054 00000000 		.word	chassis_cmd_pub
 517 0058 00000000 		.word	paw_cmd_send
 518 005c 00000000 		.word	paw_cmd_pub
 519 0060 00000000 		.word	shoot_cmd_send
 520 0064 00000000 		.word	shoot_cmd_pub
 521              		.cfi_endproc
 522              	.LFE173:
 524              		.section	.bss.robot_state,"aw",%nobits
 527              	robot_state:
 528 0000 00       		.space	1
 529              		.section	.bss.shoot_cmd_send,"aw",%nobits
 530              		.align	2
 533              	shoot_cmd_send:
 534 0000 00000000 		.space	13
 534      00000000 
 534      00000000 
 534      00
 535              		.section	.bss.shoot_feed_sub,"aw",%nobits
 536              		.align	2
 539              	shoot_feed_sub:
 540 0000 00000000 		.space	4
 541              		.section	.bss.shoot_cmd_pub,"aw",%nobits
 542              		.align	2
 545              	shoot_cmd_pub:
 546 0000 00000000 		.space	4
 547              		.section	.bss.paw_fetch_data,"aw",%nobits
 548              		.align	2
 551              	paw_fetch_data:
 552              		.section	.bss.paw_cmd_send,"aw",%nobits
 553              		.align	2
 556              	paw_cmd_send:
 557 0000 00000000 		.space	12
 557      00000000 
 557      00000000 
 558              		.section	.bss.paw_feed_sub,"aw",%nobits
 559              		.align	2
 562              	paw_feed_sub:
 563 0000 00000000 		.space	4
 564              		.section	.bss.paw_cmd_pub,"aw",%nobits
 565              		.align	2
 568              	paw_cmd_pub:
 569 0000 00000000 		.space	4
 570              		.section	.bss.rc_data,"aw",%nobits
 571              		.align	2
 574              	rc_data:
 575 0000 00000000 		.space	4
 576              		.section	.bss.chassis_fetch_data,"aw",%nobits
 577              		.align	2
 580              	chassis_fetch_data:
 581 0000 00       		.space	1
 582              		.section	.bss.chassis_cmd_send,"aw",%nobits
 583              		.align	2
 586              	chassis_cmd_send:
 587 0000 00000000 		.space	25
 587      00000000 
 587      00000000 
ARM GAS  C:\Users\Sive\AppData\Local\Temp\ccjzVTSy.s 			page 16


 587      00000000 
 587      00000000 
 588              		.section	.bss.chassis_cmd_pub,"aw",%nobits
 589              		.align	2
 592              	chassis_cmd_pub:
 593 0000 00000000 		.space	4
 594              		.section	.bss.chassis_feed_sub,"aw",%nobits
 595              		.align	2
 598              	chassis_feed_sub:
 599 0000 00000000 		.space	4
 600              		.text
 601              	.Letext0:
 602              		.file 2 "C:/Users/Sive/AppData/Roaming/Code/User/globalStorage/bmd.stm32-for-vscode/@xpack-dev-too
 603              		.file 3 "C:/Users/Sive/AppData/Roaming/Code/User/globalStorage/bmd.stm32-for-vscode/@xpack-dev-too
 604              		.file 4 "Drivers/CMSIS/Device/ST/STM32F4xx/Include/stm32f407xx.h"
 605              		.file 5 "Drivers/STM32F4xx_HAL_Driver/Inc/stm32f4xx_hal_def.h"
 606              		.file 6 "Drivers/STM32F4xx_HAL_Driver/Inc/stm32f4xx_hal_dma.h"
 607              		.file 7 "Drivers/STM32F4xx_HAL_Driver/Inc/stm32f4xx_hal_uart.h"
 608              		.file 8 "application/robot_def.h"
 609              		.file 9 "moudels/remote/remote_control.h"
 610              		.file 10 "moudels/message_center/message_center.h"
 611              		.file 11 "Core/Inc/usart.h"
ARM GAS  C:\Users\Sive\AppData\Local\Temp\ccjzVTSy.s 			page 17

