ARM GAS  C:\Users\Sive\AppData\Local\Temp\ccVkyXuf.s 			page 1


   1              		.cpu cortex-m4
   2              		.arch armv7e-m
   3              		.fpu fpv4-sp-d16
   4              		.eabi_attribute 27, 1
   5              		.eabi_attribute 28, 1
   6              		.eabi_attribute 20, 1
   7              		.eabi_attribute 21, 1
   8              		.eabi_attribute 23, 3
   9              		.eabi_attribute 24, 1
  10              		.eabi_attribute 25, 1
  11              		.eabi_attribute 26, 1
  12              		.eabi_attribute 30, 1
  13              		.eabi_attribute 34, 1
  14              		.eabi_attribute 18, 4
  15              		.file	"shoot.c"
  16              		.text
  17              	.Ltext0:
  18              		.cfi_sections	.debug_frame
  19              		.file 1 "application/shoot/shoot.c"
  20              		.section	.rodata.ShootInit.str1.4,"aMS",%progbits,1
  21              		.align	2
  22              	.LC0:
  23 0000 73686F6F 		.ascii	"shoot_feed\000"
  23      745F6665 
  23      656400
  24 000b 00       		.align	2
  25              	.LC1:
  26 000c 73686F6F 		.ascii	"shoot_cmd\000"
  26      745F636D 
  26      6400
  27              		.section	.text.ShootInit,"ax",%progbits
  28              		.align	1
  29              		.global	ShootInit
  30              		.syntax unified
  31              		.thumb
  32              		.thumb_func
  34              	ShootInit:
  35              	.LFB167:
   1:application/shoot/shoot.c **** #include "shoot.h"
   2:application/shoot/shoot.c **** #include "robot_def.h"
   3:application/shoot/shoot.c **** 
   4:application/shoot/shoot.c **** #include "dji_motor.h"
   5:application/shoot/shoot.c **** #include "message_center.h"
   6:application/shoot/shoot.c **** #include "bsp_dwt.h"
   7:application/shoot/shoot.c **** #include "general_def.h"
   8:application/shoot/shoot.c **** 
   9:application/shoot/shoot.c **** /* ÂØπ‰∫éÂèåÂèëÂ∞ÑÊú∫ÊûÑÁöÑÊú∫Âô®‰∫∫,Â∞Ü‰∏ãÈù¢ÁöÑÊï∞ÊçÆÂ∞ÅË£ÖÊàêÁªìÊûÑ‰ΩìÂç≥ÂèØ,ÁîüÊàê‰∏§‰ªΩshootÂ∫
  10:application/shoot/shoot.c **** static DJIMotorInstance *friction_up, *friction_below, *loader; // Êã®ÁõòÁîµÊú∫
  11:application/shoot/shoot.c **** // static servo_instance *lid; ÈúÄË¶ÅÂ¢ûÂä†ÂºπËà±Áõñ
  12:application/shoot/shoot.c **** 
  13:application/shoot/shoot.c **** static Publisher_t *shoot_pub;
  14:application/shoot/shoot.c **** static Shoot_Ctrl_Cmd_s shoot_cmd_recv; // Êù•Ëá™cmdÁöÑÂèëÂ∞ÑÊéßÂà∂‰ø°ÊÅØ
  15:application/shoot/shoot.c **** static Subscriber_t *shoot_sub;
  16:application/shoot/shoot.c ****   static Shoot_Upload_Data_s shoot_feedback_data; // Êù•Ëá™cmdÁöÑÂèëÂ∞ÑÊéßÂà∂‰ø°ÊÅØ
  17:application/shoot/shoot.c **** 
  18:application/shoot/shoot.c **** // dwtÂÆöÊó∂,ËÆ°ÁÆóÂÜ∑Âç¥Áî®
  19:application/shoot/shoot.c **** static float hibernate_time = 0, dead_time = 0;
ARM GAS  C:\Users\Sive\AppData\Local\Temp\ccVkyXuf.s 			page 2


  20:application/shoot/shoot.c **** 
  21:application/shoot/shoot.c **** void ShootInit()
  22:application/shoot/shoot.c **** {
  36              		.loc 1 22 1 view -0
  37              		.cfi_startproc
  38              		@ args = 0, pretend = 0, frame = 360
  39              		@ frame_needed = 0, uses_anonymous_args = 0
  40 0000 2DE9F043 		push	{r4, r5, r6, r7, r8, r9, lr}
  41              		.cfi_def_cfa_offset 28
  42              		.cfi_offset 4, -28
  43              		.cfi_offset 5, -24
  44              		.cfi_offset 6, -20
  45              		.cfi_offset 7, -16
  46              		.cfi_offset 8, -12
  47              		.cfi_offset 9, -8
  48              		.cfi_offset 14, -4
  49 0004 DBB0     		sub	sp, sp, #364
  50              		.cfi_def_cfa_offset 392
  23:application/shoot/shoot.c ****     // Â∑¶Êë©Êì¶ËΩÆ
  24:application/shoot/shoot.c ****     Motor_Init_Config_s friction_config = {
  51              		.loc 1 24 5 view .LVU1
  52              		.loc 1 24 25 is_stmt 0 view .LVU2
  53 0006 4FF0B409 		mov	r9, #180
  54 000a 4A46     		mov	r2, r9
  55 000c 0021     		movs	r1, #0
  56 000e 0DEB0900 		add	r0, sp, r9
  57 0012 FFF7FEFF 		bl	memset
  58              	.LVL0:
  59 0016 324A     		ldr	r2, .L3
  60 0018 3492     		str	r2, [sp, #208]	@ float
  61 001a 0125     		movs	r5, #1
  62 001c 8DF8D850 		strb	r5, [sp, #216]
  63 0020 304B     		ldr	r3, .L3+4
  64 0022 3793     		str	r3, [sp, #220]	@ float
  65 0024 3049     		ldr	r1, .L3+8
  66 0026 3C91     		str	r1, [sp, #240]	@ float
  67 0028 DFF8F880 		ldr	r8, .L3+68
  68 002c CDF8F480 		str	r8, [sp, #244]	@ float
  69 0030 2E4F     		ldr	r7, .L3+12
  70 0032 3E97     		str	r7, [sp, #248]	@ float
  71 0034 3F92     		str	r2, [sp, #252]	@ float
  72 0036 8DF80451 		strb	r5, [sp, #260]
  73 003a 4293     		str	r3, [sp, #264]	@ float
  74 003c 0224     		movs	r4, #2
  75 003e 8DF84841 		strb	r4, [sp, #328]
  76 0042 8DF84941 		strb	r4, [sp, #329]
  77 0046 8DF85041 		strb	r4, [sp, #336]
  78 004a 294E     		ldr	r6, .L3+16
  79 004c 5596     		str	r6, [sp, #340]
  25:application/shoot/shoot.c ****         .can_init_config = {
  26:application/shoot/shoot.c ****             .can_handle = &hcan2,
  27:application/shoot/shoot.c ****         },
  28:application/shoot/shoot.c ****         .controller_param_init_config = {
  29:application/shoot/shoot.c ****             .speed_PID = {
  30:application/shoot/shoot.c ****                 .Kp = 0.1, // 20
  31:application/shoot/shoot.c ****                 .Ki = 0.001, // 1
  32:application/shoot/shoot.c ****                 .Kd = 0.05,
ARM GAS  C:\Users\Sive\AppData\Local\Temp\ccVkyXuf.s 			page 3


  33:application/shoot/shoot.c ****                 .Improve = PID_Integral_Limit,
  34:application/shoot/shoot.c ****                 .IntegralLimit = 10000,
  35:application/shoot/shoot.c ****                 .MaxOut = 150000,
  36:application/shoot/shoot.c ****             },
  37:application/shoot/shoot.c ****             .current_PID = {
  38:application/shoot/shoot.c ****                 .Kp = 0, // 0.7
  39:application/shoot/shoot.c ****                 .Ki = 0,    // 0.1
  40:application/shoot/shoot.c ****                 .Kd = 0.000,
  41:application/shoot/shoot.c ****                 .Improve = PID_Integral_Limit,
  42:application/shoot/shoot.c ****                 .IntegralLimit = 10000,
  43:application/shoot/shoot.c ****                 .MaxOut = 150000,
  44:application/shoot/shoot.c ****             },
  45:application/shoot/shoot.c ****         },
  46:application/shoot/shoot.c ****         .controller_setting_init_config = {
  47:application/shoot/shoot.c ****             .angle_feedback_source = MOTOR_FEED,
  48:application/shoot/shoot.c ****             .speed_feedback_source = MOTOR_FEED,
  49:application/shoot/shoot.c **** 
  50:application/shoot/shoot.c ****             .outer_loop_type = SPEED_LOOP,
  51:application/shoot/shoot.c ****             .close_loop_type = SPEED_LOOP  ,
  52:application/shoot/shoot.c ****             .motor_reverse_flag = MOTOR_DIRECTION_NORMAL,
  53:application/shoot/shoot.c ****         },
  54:application/shoot/shoot.c ****         .motor_type = M3508};
  55:application/shoot/shoot.c ****     friction_config.can_init_config.tx_id = 1,
  80              		.loc 1 55 5 is_stmt 1 view .LVU3
  81              		.loc 1 55 43 is_stmt 0 view .LVU4
  82 004e 8DF85951 		strb	r5, [sp, #345]
  56:application/shoot/shoot.c ****     friction_up = DJIMotorInit(&friction_config);
  83              		.loc 1 56 19 view .LVU5
  84 0052 0DEB0900 		add	r0, sp, r9
  85 0056 FFF7FEFF 		bl	DJIMotorInit
  86              	.LVL1:
  87              		.loc 1 56 17 discriminator 1 view .LVU6
  88 005a 264B     		ldr	r3, .L3+20
  89 005c 1860     		str	r0, [r3]
  57:application/shoot/shoot.c **** 
  58:application/shoot/shoot.c ****     friction_config.can_init_config.tx_id = 2; // Âè≥Êë©Êì¶ËΩÆ,ÊîπtxidÂíåÊñπÂêëÂ∞±Ë°å
  90              		.loc 1 58 5 is_stmt 1 view .LVU7
  91              		.loc 1 58 43 is_stmt 0 view .LVU8
  92 005e 8DF85941 		strb	r4, [sp, #345]
  59:application/shoot/shoot.c ****     // friction_config.controller_setting_init_config.motor_reverse_flag = MOTOR_DIRECTION_REVERSE;
  60:application/shoot/shoot.c ****     friction_below = DJIMotorInit(&friction_config);
  93              		.loc 1 60 5 is_stmt 1 view .LVU9
  94              		.loc 1 60 22 is_stmt 0 view .LVU10
  95 0062 0DEB0900 		add	r0, sp, r9
  96 0066 FFF7FEFF 		bl	DJIMotorInit
  97              	.LVL2:
  98              		.loc 1 60 20 discriminator 1 view .LVU11
  99 006a 234B     		ldr	r3, .L3+24
 100 006c 1860     		str	r0, [r3]
  61:application/shoot/shoot.c **** 
  62:application/shoot/shoot.c ****     // Êã®ÁõòÁîµÊú∫
  63:application/shoot/shoot.c ****     Motor_Init_Config_s loader_config = {
 101              		.loc 1 63 5 is_stmt 1 view .LVU12
 102              		.loc 1 63 25 is_stmt 0 view .LVU13
 103 006e 4A46     		mov	r2, r9
 104 0070 0021     		movs	r1, #0
 105 0072 6846     		mov	r0, sp
ARM GAS  C:\Users\Sive\AppData\Local\Temp\ccVkyXuf.s 			page 4


 106 0074 FFF7FEFF 		bl	memset
 107              	.LVL3:
 108 0078 204B     		ldr	r3, .L3+28
 109 007a 0493     		str	r3, [sp, #16]	@ float
 110 007c 204B     		ldr	r3, .L3+32
 111 007e 0593     		str	r3, [sp, #20]	@ float
 112 0080 204B     		ldr	r3, .L3+36
 113 0082 0793     		str	r3, [sp, #28]	@ float
 114 0084 8DF82450 		strb	r5, [sp, #36]
 115 0088 0A93     		str	r3, [sp, #40]	@ float
 116 008a 1F4A     		ldr	r2, .L3+40
 117 008c 0F92     		str	r2, [sp, #60]	@ float
 118 008e CDF84080 		str	r8, [sp, #64]	@ float
 119 0092 1197     		str	r7, [sp, #68]	@ float
 120 0094 1293     		str	r3, [sp, #72]	@ float
 121 0096 8DF85050 		strb	r5, [sp, #80]
 122 009a 1593     		str	r3, [sp, #84]	@ float
 123 009c 1B4B     		ldr	r3, .L3+44
 124 009e 1D93     		str	r3, [sp, #116]	@ float
 125 00a0 8DF89440 		strb	r4, [sp, #148]
 126 00a4 8DF89540 		strb	r4, [sp, #149]
 127 00a8 8DF89C40 		strb	r4, [sp, #156]
 128 00ac 2896     		str	r6, [sp, #160]
 129 00ae 0323     		movs	r3, #3
 130 00b0 8DF8A530 		strb	r3, [sp, #165]
  64:application/shoot/shoot.c ****         .can_init_config = {
  65:application/shoot/shoot.c ****             .can_handle = &hcan2,
  66:application/shoot/shoot.c ****             .tx_id = 3,
  67:application/shoot/shoot.c ****         },
  68:application/shoot/shoot.c ****         .controller_param_init_config = {
  69:application/shoot/shoot.c ****             .angle_PID = {
  70:application/shoot/shoot.c ****                 // Â¶ÇÊûúÂêØÁî®‰ΩçÁΩÆÁéØÊù•ÊéßÂà∂ÂèëÂºπ,ÈúÄË¶ÅËæÉÂ§ßÁöÑIÂÄº‰øùËØÅËæìÂá∫ÂäõÁü©ÁöÑÁ∫ø
  71:application/shoot/shoot.c ****                 .Kp = 0, // 10
  72:application/shoot/shoot.c ****                 .Ki = 0,
  73:application/shoot/shoot.c ****                 .Kd = 0,
  74:application/shoot/shoot.c ****                 .MaxOut = 200,
  75:application/shoot/shoot.c ****             },
  76:application/shoot/shoot.c ****             .speed_PID = {
  77:application/shoot/shoot.c ****                 .Kp = 10, //10
  78:application/shoot/shoot.c ****                 .Ki = 0.001, // 1
  79:application/shoot/shoot.c ****                 .Kd = 0.05,
  80:application/shoot/shoot.c ****                 .Improve = PID_Integral_Limit,
  81:application/shoot/shoot.c ****                 .IntegralLimit = 5000,
  82:application/shoot/shoot.c ****                 .MaxOut = 5000,
  83:application/shoot/shoot.c ****             },
  84:application/shoot/shoot.c ****             .current_PID = {
  85:application/shoot/shoot.c ****                 .Kp = 0.7, // 0.7
  86:application/shoot/shoot.c ****                 .Ki = 0.01, // 0.1
  87:application/shoot/shoot.c ****                 .Kd = 0,
  88:application/shoot/shoot.c ****                 .Improve = PID_Integral_Limit,
  89:application/shoot/shoot.c ****                 .IntegralLimit = 5000,
  90:application/shoot/shoot.c ****                 .MaxOut = 5000,
  91:application/shoot/shoot.c ****             },
  92:application/shoot/shoot.c ****         },
  93:application/shoot/shoot.c ****         .controller_setting_init_config = {
  94:application/shoot/shoot.c ****             .angle_feedback_source = MOTOR_FEED, .speed_feedback_source = MOTOR_FEED,
  95:application/shoot/shoot.c ****             .outer_loop_type = SPEED_LOOP, // ÂàùÂßãÂåñÊàêSPEED_LOOP,ËÆ©Êã®ÁõòÂÅúÂú®ÂéüÂú∞,Èò≤Ê≠¢Êã
ARM GAS  C:\Users\Sive\AppData\Local\Temp\ccVkyXuf.s 			page 5


  96:application/shoot/shoot.c ****             .close_loop_type =  SPEED_LOOP,
  97:application/shoot/shoot.c ****             .motor_reverse_flag = MOTOR_DIRECTION_NORMAL, // Ê≥®ÊÑèÊñπÂêëËÆæÁΩÆ‰∏∫Êã®ÁõòÁöÑÊã®Âá∫Áö
  98:application/shoot/shoot.c ****         },
  99:application/shoot/shoot.c ****         .motor_type = M3508 // Ëã±ÈõÑ‰ΩøÁî®m3508
 100:application/shoot/shoot.c ****     };
 101:application/shoot/shoot.c ****     loader_config.controller_setting_init_config.motor_reverse_flag = MOTOR_DIRECTION_REVERSE;
 131              		.loc 1 101 5 is_stmt 1 view .LVU14
 132              		.loc 1 101 69 is_stmt 0 view .LVU15
 133 00b4 8DF89650 		strb	r5, [sp, #150]
 102:application/shoot/shoot.c ****     loader = DJIMotorInit(&loader_config);
 134              		.loc 1 102 5 is_stmt 1 view .LVU16
 135              		.loc 1 102 14 is_stmt 0 view .LVU17
 136 00b8 6846     		mov	r0, sp
 137 00ba FFF7FEFF 		bl	DJIMotorInit
 138              	.LVL4:
 139              		.loc 1 102 12 discriminator 1 view .LVU18
 140 00be 144B     		ldr	r3, .L3+48
 141 00c0 1860     		str	r0, [r3]
 103:application/shoot/shoot.c **** 
 104:application/shoot/shoot.c ****     shoot_pub = PubRegister("shoot_feed", sizeof(Shoot_Upload_Data_s));
 142              		.loc 1 104 5 is_stmt 1 view .LVU19
 143              		.loc 1 104 17 is_stmt 0 view .LVU20
 144 00c2 0021     		movs	r1, #0
 145 00c4 1348     		ldr	r0, .L3+52
 146 00c6 FFF7FEFF 		bl	PubRegister
 147              	.LVL5:
 148              		.loc 1 104 15 discriminator 1 view .LVU21
 149 00ca 134B     		ldr	r3, .L3+56
 150 00cc 1860     		str	r0, [r3]
 105:application/shoot/shoot.c ****     shoot_sub = SubRegister("shoot_cmd", sizeof(Shoot_Ctrl_Cmd_s));
 151              		.loc 1 105 5 is_stmt 1 view .LVU22
 152              		.loc 1 105 17 is_stmt 0 view .LVU23
 153 00ce 0D21     		movs	r1, #13
 154 00d0 1248     		ldr	r0, .L3+60
 155 00d2 FFF7FEFF 		bl	SubRegister
 156              	.LVL6:
 157              		.loc 1 105 15 discriminator 1 view .LVU24
 158 00d6 124B     		ldr	r3, .L3+64
 159 00d8 1860     		str	r0, [r3]
 106:application/shoot/shoot.c **** }
 160              		.loc 1 106 1 view .LVU25
 161 00da 5BB0     		add	sp, sp, #364
 162              		.cfi_def_cfa_offset 28
 163              		@ sp needed
 164 00dc BDE8F083 		pop	{r4, r5, r6, r7, r8, r9, pc}
 165              	.L4:
 166              		.align	2
 167              	.L3:
 168 00e0 007C1248 		.word	1209170944
 169 00e4 00401C46 		.word	1176256512
 170 00e8 CDCCCC3D 		.word	1036831949
 171 00ec CDCC4C3D 		.word	1028443341
 172 00f0 00000000 		.word	hcan2
 173 00f4 00000000 		.word	friction_up
 174 00f8 00000000 		.word	friction_below
 175 00fc 3333333F 		.word	1060320051
 176 0100 0AD7233C 		.word	1008981770
ARM GAS  C:\Users\Sive\AppData\Local\Temp\ccVkyXuf.s 			page 6


 177 0104 00409C45 		.word	1167867904
 178 0108 00002041 		.word	1092616192
 179 010c 00004843 		.word	1128792064
 180 0110 00000000 		.word	loader
 181 0114 00000000 		.word	.LC0
 182 0118 00000000 		.word	shoot_pub
 183 011c 0C000000 		.word	.LC1
 184 0120 00000000 		.word	shoot_sub
 185 0124 6F12833A 		.word	981668463
 186              		.cfi_endproc
 187              	.LFE167:
 189              		.section	.text.ShootTask,"ax",%progbits
 190              		.align	1
 191              		.global	ShootTask
 192              		.syntax unified
 193              		.thumb
 194              		.thumb_func
 196              	ShootTask:
 197              	.LFB168:
 107:application/shoot/shoot.c **** 
 108:application/shoot/shoot.c **** /* Êú∫Âô®‰∫∫ÂèëÂ∞ÑÊú∫ÊûÑÊéßÂà∂Ê†∏ÂøÉ‰ªªÂä° */
 109:application/shoot/shoot.c **** void ShootTask()
 110:application/shoot/shoot.c **** {
 198              		.loc 1 110 1 is_stmt 1 view -0
 199              		.cfi_startproc
 200              		@ args = 0, pretend = 0, frame = 0
 201              		@ frame_needed = 0, uses_anonymous_args = 0
 202 0000 38B5     		push	{r3, r4, r5, lr}
 203              		.cfi_def_cfa_offset 16
 204              		.cfi_offset 3, -16
 205              		.cfi_offset 4, -12
 206              		.cfi_offset 5, -8
 207              		.cfi_offset 14, -4
 208 0002 2DED028B 		vpush.64	{d8}
 209              		.cfi_def_cfa_offset 24
 210              		.cfi_offset 80, -24
 211              		.cfi_offset 81, -20
 111:application/shoot/shoot.c ****     // ‰ªécmdËé∑ÂèñÊéßÂà∂Êï∞ÊçÆ
 112:application/shoot/shoot.c ****     SubGetMessage(shoot_sub, &shoot_cmd_recv);
 212              		.loc 1 112 5 view .LVU27
 213 0006 514C     		ldr	r4, .L17
 214 0008 2146     		mov	r1, r4
 215 000a 514B     		ldr	r3, .L17+4
 216 000c 1868     		ldr	r0, [r3]
 217 000e FFF7FEFF 		bl	SubGetMessage
 218              	.LVL7:
 113:application/shoot/shoot.c **** 
 114:application/shoot/shoot.c ****     // ÂØπshoot modeÁ≠â‰∫éSHOOT_STOPÁöÑÊÉÖÂÜµÁâπÊÆäÂ§ÑÁêÜ,Áõ¥Êé•ÂÅúÊ≠¢ÊâÄÊúâÁîµÊú∫(Á¥ßÊÄ•ÂÅúÊ≠¢)
 115:application/shoot/shoot.c ****     if (shoot_cmd_recv.shoot_mode == SHOOT_OFF)
 219              		.loc 1 115 5 view .LVU28
 220              		.loc 1 115 23 is_stmt 0 view .LVU29
 221 0012 2378     		ldrb	r3, [r4]	@ zero_extendqisi2
 222              		.loc 1 115 8 view .LVU30
 223 0014 DBB9     		cbnz	r3, .L6
 116:application/shoot/shoot.c ****     {
 117:application/shoot/shoot.c ****         DJIMotorStop(friction_up);
 224              		.loc 1 117 9 is_stmt 1 view .LVU31
ARM GAS  C:\Users\Sive\AppData\Local\Temp\ccVkyXuf.s 			page 7


 225 0016 4F4B     		ldr	r3, .L17+8
 226 0018 1868     		ldr	r0, [r3]
 227 001a FFF7FEFF 		bl	DJIMotorStop
 228              	.LVL8:
 118:application/shoot/shoot.c ****         DJIMotorStop(friction_below);
 229              		.loc 1 118 9 view .LVU32
 230 001e 4E4B     		ldr	r3, .L17+12
 231 0020 1868     		ldr	r0, [r3]
 232 0022 FFF7FEFF 		bl	DJIMotorStop
 233              	.LVL9:
 119:application/shoot/shoot.c ****         DJIMotorStop(loader);
 234              		.loc 1 119 9 view .LVU33
 235 0026 4D4B     		ldr	r3, .L17+16
 236 0028 1868     		ldr	r0, [r3]
 237 002a FFF7FEFF 		bl	DJIMotorStop
 238              	.LVL10:
 239              	.L7:
 120:application/shoot/shoot.c ****     }
 121:application/shoot/shoot.c ****     else // ÊÅ¢Â§çËøêË°å
 122:application/shoot/shoot.c ****     {
 123:application/shoot/shoot.c ****         DJIMotorEnable(friction_up);
 124:application/shoot/shoot.c ****         DJIMotorEnable(friction_below);
 125:application/shoot/shoot.c ****         DJIMotorEnable(loader);
 126:application/shoot/shoot.c ****     }
 127:application/shoot/shoot.c **** 
 128:application/shoot/shoot.c ****     // Â¶ÇÊûú‰∏ä‰∏ÄÊ¨°Ëß¶ÂèëÂçïÂèëÊàñ3ÂèëÊåá‰ª§ÁöÑÊó∂Èó¥Âä†‰∏ä‰∏çÂ∫îÊúü‰ªçÁÑ∂Â§ß‰∫éÂΩìÂâçÊó∂Èó¥(Â∞ö
 129:application/shoot/shoot.c ****     // ÂçïÂèëÊ®°Âºè‰∏ªË¶ÅÊèê‰æõÁªôËÉΩÈáèÊú∫ÂÖ≥ÊøÄÊ¥ª‰ΩøÁî®(‰ª•ÂèäËã±ÈõÑÁöÑÂ∞ÑÂáªÂ§ßÈÉ®ÂàÜÂ§Ñ‰∫éÂçïÂ
 130:application/shoot/shoot.c ****     // if (hibernate_time + dead_time > DWT_GetTimeline_ms())
 131:application/shoot/shoot.c ****     //     return;
 132:application/shoot/shoot.c **** 
 133:application/shoot/shoot.c ****     // Ëã•‰∏çÂú®‰ºëÁú†Áä∂ÊÄÅ,Ê†πÊçÆrobotCMD‰º†Êù•ÁöÑÊéßÂà∂Ê®°ÂºèËøõË°åÊã®ÁõòÁîµÊú∫ÂèÇËÄÉÂÄºËÆæÂÆöÂí
 134:application/shoot/shoot.c ****     switch (shoot_cmd_recv.load_mode)
 240              		.loc 1 134 5 view .LVU34
 241              		.loc 1 134 27 is_stmt 0 view .LVU35
 242 002e 474B     		ldr	r3, .L17
 243 0030 5B78     		ldrb	r3, [r3, #1]	@ zero_extendqisi2
 244              		.loc 1 134 5 view .LVU36
 245 0032 CBB1     		cbz	r3, .L8
 246 0034 022B     		cmp	r3, #2
 247 0036 21D1     		bne	.L10
 135:application/shoot/shoot.c ****     {
 136:application/shoot/shoot.c ****     // ÂÅúÊ≠¢Êã®Áõò
 137:application/shoot/shoot.c ****     case LOAD_STOP:
 138:application/shoot/shoot.c ****         DJIMotorOuterLoop(loader, SPEED_LOOP); // ÂàáÊç¢Âà∞ÈÄüÂ∫¶ÁéØ
 139:application/shoot/shoot.c ****         DJIMotorSetRef(loader, 0);             // ÂêåÊó∂ËÆæÂÆöÂèÇËÄÉÂÄº‰∏∫0,ËøôÊ†∑ÂÅúÊ≠¢ÁöÑÈÄüÂ∫¶Êú
 140:application/shoot/shoot.c ****         break;
 141:application/shoot/shoot.c ****     // ÂçïÂèëÊ®°Âºè,Ê†πÊçÆÈº†Ê†áÊåâ‰∏ãÁöÑÊó∂Èó¥,Ëß¶Âèë‰∏ÄÊ¨°‰πãÂêéÈúÄË¶ÅËøõÂÖ•‰∏çÂìçÂ∫îËæìÂÖ•ÁöÑÁä∂
 142:application/shoot/shoot.c ****     case LOAD_1_BULLET:                                                                     // ÊøÄÊ
 143:application/shoot/shoot.c ****         DJIMotorOuterLoop(loader,SPEED_LOOP);                                              // ÂàáÊç
 248              		.loc 1 143 9 is_stmt 1 view .LVU37
 249 0038 484C     		ldr	r4, .L17+16
 250 003a 0221     		movs	r1, #2
 251 003c 2068     		ldr	r0, [r4]
 252 003e FFF7FEFF 		bl	DJIMotorOuterLoop
 253              	.LVL11:
 144:application/shoot/shoot.c ****         DJIMotorSetRef(loader,60000); // ÊéßÂà∂ÈáèÂ¢ûÂä†‰∏ÄÂèëÂºπ‰∏∏ÁöÑËßíÂ∫¶
 254              		.loc 1 144 9 view .LVU38
ARM GAS  C:\Users\Sive\AppData\Local\Temp\ccVkyXuf.s 			page 8


 255 0042 9FED470A 		vldr.32	s0, .L17+20
 256 0046 2068     		ldr	r0, [r4]
 257 0048 FFF7FEFF 		bl	DJIMotorSetRef
 258              	.LVL12:
 145:application/shoot/shoot.c ****         // hibernate_time = DWT_GetTimeline_ms();                                              // Ë
 146:application/shoot/shoot.c ****         // dead_time = 150;                                                                    // Â
 147:application/shoot/shoot.c ****         break;
 259              		.loc 1 147 9 view .LVU39
 260 004c 16E0     		b	.L10
 261              	.L6:
 123:application/shoot/shoot.c ****         DJIMotorEnable(friction_below);
 262              		.loc 1 123 9 view .LVU40
 263 004e 414B     		ldr	r3, .L17+8
 264 0050 1868     		ldr	r0, [r3]
 265 0052 FFF7FEFF 		bl	DJIMotorEnable
 266              	.LVL13:
 124:application/shoot/shoot.c ****         DJIMotorEnable(loader);
 267              		.loc 1 124 9 view .LVU41
 268 0056 404B     		ldr	r3, .L17+12
 269 0058 1868     		ldr	r0, [r3]
 270 005a FFF7FEFF 		bl	DJIMotorEnable
 271              	.LVL14:
 125:application/shoot/shoot.c ****     }
 272              		.loc 1 125 9 view .LVU42
 273 005e 3F4B     		ldr	r3, .L17+16
 274 0060 1868     		ldr	r0, [r3]
 275 0062 FFF7FEFF 		bl	DJIMotorEnable
 276              	.LVL15:
 277 0066 E2E7     		b	.L7
 278              	.L8:
 138:application/shoot/shoot.c ****         DJIMotorSetRef(loader, 0);             // ÂêåÊó∂ËÆæÂÆöÂèÇËÄÉÂÄº‰∏∫0,ËøôÊ†∑ÂÅúÊ≠¢ÁöÑÈÄüÂ∫¶Êú
 279              		.loc 1 138 9 view .LVU43
 280 0068 3C4C     		ldr	r4, .L17+16
 281 006a 0221     		movs	r1, #2
 282 006c 2068     		ldr	r0, [r4]
 283 006e FFF7FEFF 		bl	DJIMotorOuterLoop
 284              	.LVL16:
 139:application/shoot/shoot.c ****         break;
 285              		.loc 1 139 9 view .LVU44
 286 0072 9FED3C0A 		vldr.32	s0, .L17+24
 287 0076 2068     		ldr	r0, [r4]
 288 0078 FFF7FEFF 		bl	DJIMotorSetRef
 289              	.LVL17:
 140:application/shoot/shoot.c ****     // ÂçïÂèëÊ®°Âºè,Ê†πÊçÆÈº†Ê†áÊåâ‰∏ãÁöÑÊó∂Èó¥,Ëß¶Âèë‰∏ÄÊ¨°‰πãÂêéÈúÄË¶ÅËøõÂÖ•‰∏çÂìçÂ∫îËæìÂÖ•ÁöÑÁä∂
 290              		.loc 1 140 9 view .LVU45
 291              	.L10:
 148:application/shoot/shoot.c ****     }
 149:application/shoot/shoot.c ****     // // ‰∏âËøûÂèë,Â¶ÇÊûú‰∏çÈúÄË¶ÅÂêéÁª≠ÂèØËÉΩÂà†Èô§
 150:application/shoot/shoot.c ****     // case LOAD_3_BULLET:
 151:application/shoot/shoot.c ****     //     DJIMotorOuterLoop(loader, ANGLE_LOOP);                                                  
 152:application/shoot/shoot.c ****     //     DJIMotorSetRef(loader, loader->measure.total_angle + 3 * ONE_BULLET_DELTA_ANGLE); // Â¢û
 153:application/shoot/shoot.c ****     //     hibernate_time = DWT_GetTimeline_ms();                                                  
 154:application/shoot/shoot.c ****     //     dead_time = 300;                                                                        
 155:application/shoot/shoot.c ****     //     break;
 156:application/shoot/shoot.c ****     // // ËøûÂèëÊ®°Âºè,ÂØπÈÄüÂ∫¶Èó≠ÁéØ,Â∞ÑÈ¢ëÂêéÁª≠‰øÆÊîπ‰∏∫ÂèØÂèò,ÁõÆÂâçÂõ∫ÂÆö‰∏∫1Hz
 157:application/shoot/shoot.c ****     // case LOAD_BURSTFIRE:
 158:application/shoot/shoot.c ****     //     DJIMotorOuterLoop(loader, SPEED_LOOP);
ARM GAS  C:\Users\Sive\AppData\Local\Temp\ccVkyXuf.s 			page 9


 159:application/shoot/shoot.c ****     //     DJIMotorSetRef(loader, shoot_cmd_recv.shoot_rate * 360 * REDUCTION_RATIO_LOADER / 8);
 160:application/shoot/shoot.c ****     //     // xÈ¢ó/ÁßíÊç¢ÁÆóÊàêÈÄüÂ∫¶: Â∑≤Áü•‰∏ÄÂúàÁöÑËΩΩÂºπÈáè,Áî±Ê≠§ËÆ°ÁÆóÂá∫1sÈúÄË¶ÅËΩ¨ÁöÑËßíÂ∫¶
 161:application/shoot/shoot.c ****     //     break;
 162:application/shoot/shoot.c ****     // // Êã®ÁõòÂèçËΩ¨,ÂØπÈÄüÂ∫¶Èó≠ÁéØ,ÂêéÁª≠Â¢ûÂä†Âç°ÂºπÊ£ÄÊµã(ÈÄöËøáË£ÅÂà§Á≥ªÁªüÂâ©‰ΩôÁÉ≠ÈáèÂèçÈ¶
 163:application/shoot/shoot.c ****     // // ‰πüÊúâÂèØËÉΩÈúÄË¶Å‰ªéswitch-case‰∏≠Áã¨Á´ãÂá∫Êù•
 164:application/shoot/shoot.c ****     // case LOAD_REVERSE:
 165:application/shoot/shoot.c ****     //     DJIMotorOuterLoop(loader, SPEED_LOOP);
 166:application/shoot/shoot.c ****     //     // ...
 167:application/shoot/shoot.c ****     //     break;
 168:application/shoot/shoot.c ****     // default:
 169:application/shoot/shoot.c ****     //     while (1)
 170:application/shoot/shoot.c ****     //         ; // Êú™Áü•Ê®°Âºè,ÂÅúÊ≠¢ËøêË°å,Ê£ÄÊü•ÊåáÈíàË∂äÁïå,ÂÜÖÂ≠òÊ∫¢Âá∫Á≠âÈóÆÈ¢ò
 171:application/shoot/shoot.c ****     // }
 172:application/shoot/shoot.c **** 
 173:application/shoot/shoot.c ****     // // Á°ÆÂÆöÊòØÂê¶ÂºÄÂêØÊë©Êì¶ËΩÆ,ÂêéÁª≠ÂèØËÉΩ‰øÆÊîπ‰∏∫ÈîÆÈº†Ê®°Âºè‰∏ãÂßãÁªàÂºÄÂêØÊë©Êì¶ËΩÆ(‰∏ä
 174:application/shoot/shoot.c ****     if (shoot_cmd_recv.friction_mode == FRICTION_ON)
 292              		.loc 1 174 5 view .LVU46
 293              		.loc 1 174 23 is_stmt 0 view .LVU47
 294 007c 334B     		ldr	r3, .L17
 295 007e DB78     		ldrb	r3, [r3, #3]	@ zero_extendqisi2
 296              		.loc 1 174 8 view .LVU48
 297 0080 012B     		cmp	r3, #1
 298 0082 44D1     		bne	.L11
 175:application/shoot/shoot.c ****     {
 176:application/shoot/shoot.c ****         // Ê†πÊçÆÊî∂Âà∞ÁöÑÂºπÈÄüËÆæÁΩÆËÆæÂÆöÊë©Êì¶ËΩÆÁîµÊú∫ÂèÇËÄÉÂÄº,ÈúÄÂÆûÊµãÂêéÂ°´ÂÖ•
 177:application/shoot/shoot.c ****         if( shoot_cmd_recv.shoot_rate2!=0 ){
 299              		.loc 1 177 9 is_stmt 1 view .LVU49
 300              		.loc 1 177 27 is_stmt 0 view .LVU50
 301 0084 314B     		ldr	r3, .L17
 302 0086 D3F80930 		ldr	r3, [r3, #9]	@ unaligned
 303              		.loc 1 177 11 view .LVU51
 304 008a 07EE903A 		vmov	s15, r3
 305 008e F5EE407A 		vcmp.f32	s15, #0
 306 0092 F1EE10FA 		vmrs	APSR_nzcv, FPSCR
 307 0096 24D0     		beq	.L12
 178:application/shoot/shoot.c ****          DJIMotorOuterLoop(friction_below, SPEED_LOOP);
 308              		.loc 1 178 10 is_stmt 1 view .LVU52
 309 0098 2F4C     		ldr	r4, .L17+12
 310 009a 0221     		movs	r1, #2
 311 009c 2068     		ldr	r0, [r4]
 312 009e FFF7FEFF 		bl	DJIMotorOuterLoop
 313              	.LVL18:
 179:application/shoot/shoot.c ****           DJIMotorSetRef(friction_below, shoot_cmd_recv.shoot_rate2);}
 314              		.loc 1 179 11 view .LVU53
 315 00a2 2A4B     		ldr	r3, .L17
 316 00a4 D3F80930 		ldr	r3, [r3, #9]	@ unaligned
 317 00a8 00EE103A 		vmov	s0, r3	@ int
 318 00ac 2068     		ldr	r0, [r4]
 319 00ae FFF7FEFF 		bl	DJIMotorSetRef
 320              	.LVL19:
 321              	.L13:
 180:application/shoot/shoot.c ****         else{
 181:application/shoot/shoot.c ****         DJIMotorOuterLoop(friction_below, SPEED_LOOP);
 182:application/shoot/shoot.c ****         DJIMotorSetRef(friction_below, 0);}
 183:application/shoot/shoot.c **** 
 184:application/shoot/shoot.c ****         if( shoot_cmd_recv.shoot_rate1!=0 ){
 322              		.loc 1 184 9 view .LVU54
ARM GAS  C:\Users\Sive\AppData\Local\Temp\ccVkyXuf.s 			page 10


 323              		.loc 1 184 27 is_stmt 0 view .LVU55
 324 00b2 264B     		ldr	r3, .L17
 325 00b4 D3F80530 		ldr	r3, [r3, #5]	@ unaligned
 326              		.loc 1 184 11 view .LVU56
 327 00b8 07EE903A 		vmov	s15, r3
 328 00bc F5EE407A 		vcmp.f32	s15, #0
 329 00c0 F1EE10FA 		vmrs	APSR_nzcv, FPSCR
 330 00c4 18D0     		beq	.L14
 185:application/shoot/shoot.c ****          DJIMotorOuterLoop(friction_up, SPEED_LOOP);
 331              		.loc 1 185 10 is_stmt 1 view .LVU57
 332 00c6 234C     		ldr	r4, .L17+8
 333 00c8 0221     		movs	r1, #2
 334 00ca 2068     		ldr	r0, [r4]
 335 00cc FFF7FEFF 		bl	DJIMotorOuterLoop
 336              	.LVL20:
 186:application/shoot/shoot.c ****          DJIMotorSetRef(friction_up, shoot_cmd_recv.shoot_rate1);
 337              		.loc 1 186 10 view .LVU58
 338 00d0 1E4B     		ldr	r3, .L17
 339 00d2 D3F80530 		ldr	r3, [r3, #5]	@ unaligned
 340 00d6 00EE103A 		vmov	s0, r3	@ int
 341 00da 2068     		ldr	r0, [r4]
 342 00dc FFF7FEFF 		bl	DJIMotorSetRef
 343              	.LVL21:
 344 00e0 2BE0     		b	.L15
 345              	.L12:
 181:application/shoot/shoot.c ****         DJIMotorSetRef(friction_below, 0);}
 346              		.loc 1 181 9 view .LVU59
 347 00e2 1D4C     		ldr	r4, .L17+12
 348 00e4 0221     		movs	r1, #2
 349 00e6 2068     		ldr	r0, [r4]
 350 00e8 FFF7FEFF 		bl	DJIMotorOuterLoop
 351              	.LVL22:
 182:application/shoot/shoot.c **** 
 352              		.loc 1 182 9 view .LVU60
 353 00ec 9FED1D0A 		vldr.32	s0, .L17+24
 354 00f0 2068     		ldr	r0, [r4]
 355 00f2 FFF7FEFF 		bl	DJIMotorSetRef
 356              	.LVL23:
 357 00f6 DCE7     		b	.L13
 358              	.L14:
 187:application/shoot/shoot.c ****         }
 188:application/shoot/shoot.c ****         else{
 189:application/shoot/shoot.c ****         DJIMotorOuterLoop(friction_up, SPEED_LOOP);
 359              		.loc 1 189 9 view .LVU61
 360 00f8 164C     		ldr	r4, .L17+8
 361 00fa 0221     		movs	r1, #2
 362 00fc 2068     		ldr	r0, [r4]
 363 00fe FFF7FEFF 		bl	DJIMotorOuterLoop
 364              	.LVL24:
 190:application/shoot/shoot.c ****         DJIMotorSetRef(friction_up, 0);
 365              		.loc 1 190 9 view .LVU62
 366 0102 9FED180A 		vldr.32	s0, .L17+24
 367 0106 2068     		ldr	r0, [r4]
 368 0108 FFF7FEFF 		bl	DJIMotorSetRef
 369              	.LVL25:
 370 010c 15E0     		b	.L15
 371              	.L11:
ARM GAS  C:\Users\Sive\AppData\Local\Temp\ccVkyXuf.s 			page 11


 191:application/shoot/shoot.c ****         }
 192:application/shoot/shoot.c ****         
 193:application/shoot/shoot.c **** 
 194:application/shoot/shoot.c ****         
 195:application/shoot/shoot.c ****     }
 196:application/shoot/shoot.c ****     else // ÂÖ≥Èó≠Êë©Êì¶ËΩÆ
 197:application/shoot/shoot.c ****     {   DJIMotorOuterLoop(friction_below, SPEED_LOOP);
 372              		.loc 1 197 9 view .LVU63
 373 010e 124C     		ldr	r4, .L17+12
 374 0110 0221     		movs	r1, #2
 375 0112 2068     		ldr	r0, [r4]
 376 0114 FFF7FEFF 		bl	DJIMotorOuterLoop
 377              	.LVL26:
 198:application/shoot/shoot.c ****         DJIMotorOuterLoop(friction_up, SPEED_LOOP);
 378              		.loc 1 198 9 view .LVU64
 379 0118 0E4D     		ldr	r5, .L17+8
 380 011a 0221     		movs	r1, #2
 381 011c 2868     		ldr	r0, [r5]
 382 011e FFF7FEFF 		bl	DJIMotorOuterLoop
 383              	.LVL27:
 199:application/shoot/shoot.c ****         DJIMotorSetRef(friction_up, 0);
 384              		.loc 1 199 9 view .LVU65
 385 0122 9FED108A 		vldr.32	s16, .L17+24
 386 0126 B0EE480A 		vmov.f32	s0, s16
 387 012a 2868     		ldr	r0, [r5]
 388 012c FFF7FEFF 		bl	DJIMotorSetRef
 389              	.LVL28:
 200:application/shoot/shoot.c ****         DJIMotorSetRef(friction_below, 0);
 390              		.loc 1 200 9 view .LVU66
 391 0130 B0EE480A 		vmov.f32	s0, s16
 392 0134 2068     		ldr	r0, [r4]
 393 0136 FFF7FEFF 		bl	DJIMotorSetRef
 394              	.LVL29:
 395              	.L15:
 201:application/shoot/shoot.c ****     }
 202:application/shoot/shoot.c **** 
 203:application/shoot/shoot.c ****     // ÂºÄÂÖ≥ÂºπËà±Áõñ
 204:application/shoot/shoot.c ****     if (shoot_cmd_recv.lid_mode == LID_CLOSE)
 396              		.loc 1 204 5 view .LVU67
 205:application/shoot/shoot.c ****     {
 206:application/shoot/shoot.c ****         //...
 207:application/shoot/shoot.c ****     }
 208:application/shoot/shoot.c ****     else if (shoot_cmd_recv.lid_mode == LID_OPEN)
 397              		.loc 1 208 10 view .LVU68
 209:application/shoot/shoot.c ****     {
 210:application/shoot/shoot.c ****         //...
 211:application/shoot/shoot.c ****     }
 398              		.loc 1 211 5 view .LVU69
 212:application/shoot/shoot.c **** 
 213:application/shoot/shoot.c ****     // ÂèçÈ¶àÊï∞ÊçÆ,ÁõÆÂâçÊöÇÊó∂Ê≤°ÊúâË¶ÅËÆæÂÆöÁöÑÂèçÈ¶àÊï∞ÊçÆ,ÂêéÁª≠ÂèØËÉΩÂ¢ûÂä†Â∫îÁî®Á¶ªÁ∫øÁõëÊµã
 214:application/shoot/shoot.c ****     PubPushMessage(shoot_pub, (void *)&shoot_feedback_data);
 399              		.loc 1 214 5 view .LVU70
 400 013a 0B49     		ldr	r1, .L17+28
 401 013c 0B4B     		ldr	r3, .L17+32
 402 013e 1868     		ldr	r0, [r3]
 403 0140 FFF7FEFF 		bl	PubPushMessage
 404              	.LVL30:
ARM GAS  C:\Users\Sive\AppData\Local\Temp\ccVkyXuf.s 			page 12


 215:application/shoot/shoot.c **** }...
 405              		.loc 1 215 1 is_stmt 0 view .LVU71
 406 0144 BDEC028B 		vldm	sp!, {d8}
 407              		.cfi_restore 80
 408              		.cfi_restore 81
 409              		.cfi_def_cfa_offset 16
 410 0148 38BD     		pop	{r3, r4, r5, pc}
 411              	.L18:
 412 014a 00BF     		.align	2
 413              	.L17:
 414 014c 00000000 		.word	shoot_cmd_recv
 415 0150 00000000 		.word	shoot_sub
 416 0154 00000000 		.word	friction_up
 417 0158 00000000 		.word	friction_below
 418 015c 00000000 		.word	loader
 419 0160 00606A47 		.word	1198153728
 420 0164 00000000 		.word	0
 421 0168 00000000 		.word	shoot_feedback_data
 422 016c 00000000 		.word	shoot_pub
 423              		.cfi_endproc
 424              	.LFE168:
 426              		.section	.bss.shoot_feedback_data,"aw",%nobits
 427              		.align	2
 430              	shoot_feedback_data:
 431              		.section	.bss.shoot_sub,"aw",%nobits
 432              		.align	2
 435              	shoot_sub:
 436 0000 00000000 		.space	4
 437              		.section	.bss.shoot_cmd_recv,"aw",%nobits
 438              		.align	2
 441              	shoot_cmd_recv:
 442 0000 00000000 		.space	13
 442      00000000 
 442      00000000 
 442      00
 443              		.section	.bss.shoot_pub,"aw",%nobits
 444              		.align	2
 447              	shoot_pub:
 448 0000 00000000 		.space	4
 449              		.section	.bss.loader,"aw",%nobits
 450              		.align	2
 453              	loader:
 454 0000 00000000 		.space	4
 455              		.section	.bss.friction_below,"aw",%nobits
 456              		.align	2
 459              	friction_below:
 460 0000 00000000 		.space	4
 461              		.section	.bss.friction_up,"aw",%nobits
 462              		.align	2
 465              	friction_up:
 466 0000 00000000 		.space	4
 467              		.text
 468              	.Letext0:
 469              		.file 2 "C:/Users/Sive/AppData/Roaming/Code/User/globalStorage/bmd.stm32-for-vscode/@xpack-dev-too
 470              		.file 3 "C:/Users/Sive/AppData/Roaming/Code/User/globalStorage/bmd.stm32-for-vscode/@xpack-dev-too
 471              		.file 4 "Drivers/CMSIS/Device/ST/STM32F4xx/Include/stm32f407xx.h"
 472              		.file 5 "Drivers/CMSIS/Device/ST/STM32F4xx/Include/stm32f4xx.h"
ARM GAS  C:\Users\Sive\AppData\Local\Temp\ccVkyXuf.s 			page 13


 473              		.file 6 "Drivers/STM32F4xx_HAL_Driver/Inc/stm32f4xx_hal_can.h"
 474              		.file 7 "application/robot_def.h"
 475              		.file 8 "bsp/can/bsp_can.h"
 476              		.file 9 "moudels/algorithm/controller.h"
 477              		.file 10 "moudels/motor/motor_def.h"
 478              		.file 11 "moudels/daemon/daemon.h"
 479              		.file 12 "moudels/motor/DJImotor/dji_motor.h"
 480              		.file 13 "moudels/message_center/message_center.h"
 481              		.file 14 "Core/Inc/can.h"
 482              		.file 15 "<built-in>"
ARM GAS  C:\Users\Sive\AppData\Local\Temp\ccVkyXuf.s 			page 14

