ARM GAS  C:\Users\Sive\AppData\Local\Temp\cc6tzqOi.s 			page 1


   1              		.cpu cortex-m4
   2              		.arch armv7e-m
   3              		.fpu fpv4-sp-d16
   4              		.eabi_attribute 27, 1
   5              		.eabi_attribute 28, 1
   6              		.eabi_attribute 20, 1
   7              		.eabi_attribute 21, 1
   8              		.eabi_attribute 23, 3
   9              		.eabi_attribute 24, 1
  10              		.eabi_attribute 25, 1
  11              		.eabi_attribute 26, 1
  12              		.eabi_attribute 30, 1
  13              		.eabi_attribute 34, 1
  14              		.eabi_attribute 18, 4
  15              		.file	"usart.c"
  16              		.text
  17              	.Ltext0:
  18              		.cfi_sections	.debug_frame
  19              		.file 1 "Core/Src/usart.c"
  20              		.section	.text.MX_USART1_UART_Init,"ax",%progbits
  21              		.align	1
  22              		.global	MX_USART1_UART_Init
  23              		.syntax unified
  24              		.thumb
  25              		.thumb_func
  27              	MX_USART1_UART_Init:
  28              	.LFB134:
   1:Core/Src/usart.c **** /* USER CODE BEGIN Header */
   2:Core/Src/usart.c **** /**
   3:Core/Src/usart.c ****   ******************************************************************************
   4:Core/Src/usart.c ****   * @file    usart.c
   5:Core/Src/usart.c ****   * @brief   This file provides code for the configuration
   6:Core/Src/usart.c ****   *          of the USART instances.
   7:Core/Src/usart.c ****   ******************************************************************************
   8:Core/Src/usart.c ****   * @attention
   9:Core/Src/usart.c ****   *
  10:Core/Src/usart.c ****   * Copyright (c) 2024 STMicroelectronics.
  11:Core/Src/usart.c ****   * All rights reserved.
  12:Core/Src/usart.c ****   *
  13:Core/Src/usart.c ****   * This software is licensed under terms that can be found in the LICENSE file
  14:Core/Src/usart.c ****   * in the root directory of this software component.
  15:Core/Src/usart.c ****   * If no LICENSE file comes with this software, it is provided AS-IS.
  16:Core/Src/usart.c ****   *
  17:Core/Src/usart.c ****   ******************************************************************************
  18:Core/Src/usart.c ****   */
  19:Core/Src/usart.c **** /* USER CODE END Header */
  20:Core/Src/usart.c **** /* Includes ------------------------------------------------------------------*/
  21:Core/Src/usart.c **** #include "usart.h"
  22:Core/Src/usart.c **** 
  23:Core/Src/usart.c **** /* USER CODE BEGIN 0 */
  24:Core/Src/usart.c **** 
  25:Core/Src/usart.c **** /* USER CODE END 0 */
  26:Core/Src/usart.c **** 
  27:Core/Src/usart.c **** UART_HandleTypeDef huart1;
  28:Core/Src/usart.c **** UART_HandleTypeDef huart3;
  29:Core/Src/usart.c **** UART_HandleTypeDef huart6;
  30:Core/Src/usart.c **** DMA_HandleTypeDef hdma_usart1_tx;
ARM GAS  C:\Users\Sive\AppData\Local\Temp\cc6tzqOi.s 			page 2


  31:Core/Src/usart.c **** DMA_HandleTypeDef hdma_usart1_rx;
  32:Core/Src/usart.c **** DMA_HandleTypeDef hdma_usart3_rx;
  33:Core/Src/usart.c **** DMA_HandleTypeDef hdma_usart6_rx;
  34:Core/Src/usart.c **** DMA_HandleTypeDef hdma_usart6_tx;
  35:Core/Src/usart.c **** 
  36:Core/Src/usart.c **** /* USART1 init function */
  37:Core/Src/usart.c **** 
  38:Core/Src/usart.c **** void MX_USART1_UART_Init(void)
  39:Core/Src/usart.c **** {
  29              		.loc 1 39 1 view -0
  30              		.cfi_startproc
  31              		@ args = 0, pretend = 0, frame = 0
  32              		@ frame_needed = 0, uses_anonymous_args = 0
  33 0000 08B5     		push	{r3, lr}
  34              		.cfi_def_cfa_offset 8
  35              		.cfi_offset 3, -8
  36              		.cfi_offset 14, -4
  40:Core/Src/usart.c **** 
  41:Core/Src/usart.c ****   /* USER CODE BEGIN USART1_Init 0 */
  42:Core/Src/usart.c **** 
  43:Core/Src/usart.c ****   /* USER CODE END USART1_Init 0 */
  44:Core/Src/usart.c **** 
  45:Core/Src/usart.c ****   /* USER CODE BEGIN USART1_Init 1 */
  46:Core/Src/usart.c **** 
  47:Core/Src/usart.c ****   /* USER CODE END USART1_Init 1 */
  48:Core/Src/usart.c ****   huart1.Instance = USART1;
  37              		.loc 1 48 3 view .LVU1
  38              		.loc 1 48 19 is_stmt 0 view .LVU2
  39 0002 0A48     		ldr	r0, .L5
  40 0004 0A4B     		ldr	r3, .L5+4
  41 0006 0360     		str	r3, [r0]
  49:Core/Src/usart.c ****   huart1.Init.BaudRate = 115200;
  42              		.loc 1 49 3 is_stmt 1 view .LVU3
  43              		.loc 1 49 24 is_stmt 0 view .LVU4
  44 0008 4FF4E133 		mov	r3, #115200
  45 000c 4360     		str	r3, [r0, #4]
  50:Core/Src/usart.c ****   huart1.Init.WordLength = UART_WORDLENGTH_8B;
  46              		.loc 1 50 3 is_stmt 1 view .LVU5
  47              		.loc 1 50 26 is_stmt 0 view .LVU6
  48 000e 0023     		movs	r3, #0
  49 0010 8360     		str	r3, [r0, #8]
  51:Core/Src/usart.c ****   huart1.Init.StopBits = UART_STOPBITS_1;
  50              		.loc 1 51 3 is_stmt 1 view .LVU7
  51              		.loc 1 51 24 is_stmt 0 view .LVU8
  52 0012 C360     		str	r3, [r0, #12]
  52:Core/Src/usart.c ****   huart1.Init.Parity = UART_PARITY_NONE;
  53              		.loc 1 52 3 is_stmt 1 view .LVU9
  54              		.loc 1 52 22 is_stmt 0 view .LVU10
  55 0014 0361     		str	r3, [r0, #16]
  53:Core/Src/usart.c ****   huart1.Init.Mode = UART_MODE_TX_RX;
  56              		.loc 1 53 3 is_stmt 1 view .LVU11
  57              		.loc 1 53 20 is_stmt 0 view .LVU12
  58 0016 0C22     		movs	r2, #12
  59 0018 4261     		str	r2, [r0, #20]
  54:Core/Src/usart.c ****   huart1.Init.HwFlowCtl = UART_HWCONTROL_NONE;
  60              		.loc 1 54 3 is_stmt 1 view .LVU13
  61              		.loc 1 54 25 is_stmt 0 view .LVU14
ARM GAS  C:\Users\Sive\AppData\Local\Temp\cc6tzqOi.s 			page 3


  62 001a 8361     		str	r3, [r0, #24]
  55:Core/Src/usart.c ****   huart1.Init.OverSampling = UART_OVERSAMPLING_16;
  63              		.loc 1 55 3 is_stmt 1 view .LVU15
  64              		.loc 1 55 28 is_stmt 0 view .LVU16
  65 001c C361     		str	r3, [r0, #28]
  56:Core/Src/usart.c ****   if (HAL_UART_Init(&huart1) != HAL_OK)
  66              		.loc 1 56 3 is_stmt 1 view .LVU17
  67              		.loc 1 56 7 is_stmt 0 view .LVU18
  68 001e FFF7FEFF 		bl	HAL_UART_Init
  69              	.LVL0:
  70              		.loc 1 56 6 discriminator 1 view .LVU19
  71 0022 00B9     		cbnz	r0, .L4
  72              	.L1:
  57:Core/Src/usart.c ****   {
  58:Core/Src/usart.c ****     Error_Handler();
  59:Core/Src/usart.c ****   }
  60:Core/Src/usart.c ****   /* USER CODE BEGIN USART1_Init 2 */
  61:Core/Src/usart.c **** 
  62:Core/Src/usart.c ****   /* USER CODE END USART1_Init 2 */
  63:Core/Src/usart.c **** 
  64:Core/Src/usart.c **** }
  73              		.loc 1 64 1 view .LVU20
  74 0024 08BD     		pop	{r3, pc}
  75              	.L4:
  58:Core/Src/usart.c ****   }
  76              		.loc 1 58 5 is_stmt 1 view .LVU21
  77 0026 FFF7FEFF 		bl	Error_Handler
  78              	.LVL1:
  79              		.loc 1 64 1 is_stmt 0 view .LVU22
  80 002a FBE7     		b	.L1
  81              	.L6:
  82              		.align	2
  83              	.L5:
  84 002c 00000000 		.word	huart1
  85 0030 00100140 		.word	1073811456
  86              		.cfi_endproc
  87              	.LFE134:
  89              		.section	.text.MX_USART3_UART_Init,"ax",%progbits
  90              		.align	1
  91              		.global	MX_USART3_UART_Init
  92              		.syntax unified
  93              		.thumb
  94              		.thumb_func
  96              	MX_USART3_UART_Init:
  97              	.LFB135:
  65:Core/Src/usart.c **** /* USART3 init function */
  66:Core/Src/usart.c **** 
  67:Core/Src/usart.c **** void MX_USART3_UART_Init(void)
  68:Core/Src/usart.c **** {
  98              		.loc 1 68 1 is_stmt 1 view -0
  99              		.cfi_startproc
 100              		@ args = 0, pretend = 0, frame = 0
 101              		@ frame_needed = 0, uses_anonymous_args = 0
 102 0000 08B5     		push	{r3, lr}
 103              		.cfi_def_cfa_offset 8
 104              		.cfi_offset 3, -8
 105              		.cfi_offset 14, -4
ARM GAS  C:\Users\Sive\AppData\Local\Temp\cc6tzqOi.s 			page 4


  69:Core/Src/usart.c **** 
  70:Core/Src/usart.c ****   /* USER CODE BEGIN USART3_Init 0 */
  71:Core/Src/usart.c **** 
  72:Core/Src/usart.c ****   /* USER CODE END USART3_Init 0 */
  73:Core/Src/usart.c **** 
  74:Core/Src/usart.c ****   /* USER CODE BEGIN USART3_Init 1 */
  75:Core/Src/usart.c **** 
  76:Core/Src/usart.c ****   /* USER CODE END USART3_Init 1 */
  77:Core/Src/usart.c ****   huart3.Instance = USART3;
 106              		.loc 1 77 3 view .LVU24
 107              		.loc 1 77 19 is_stmt 0 view .LVU25
 108 0002 0B48     		ldr	r0, .L11
 109 0004 0B4B     		ldr	r3, .L11+4
 110 0006 0360     		str	r3, [r0]
  78:Core/Src/usart.c ****   huart3.Init.BaudRate = 100000;
 111              		.loc 1 78 3 is_stmt 1 view .LVU26
 112              		.loc 1 78 24 is_stmt 0 view .LVU27
 113 0008 0B4B     		ldr	r3, .L11+8
 114 000a 4360     		str	r3, [r0, #4]
  79:Core/Src/usart.c ****   huart3.Init.WordLength = UART_WORDLENGTH_8B;
 115              		.loc 1 79 3 is_stmt 1 view .LVU28
 116              		.loc 1 79 26 is_stmt 0 view .LVU29
 117 000c 0023     		movs	r3, #0
 118 000e 8360     		str	r3, [r0, #8]
  80:Core/Src/usart.c ****   huart3.Init.StopBits = UART_STOPBITS_1;
 119              		.loc 1 80 3 is_stmt 1 view .LVU30
 120              		.loc 1 80 24 is_stmt 0 view .LVU31
 121 0010 C360     		str	r3, [r0, #12]
  81:Core/Src/usart.c ****   huart3.Init.Parity = UART_PARITY_EVEN;
 122              		.loc 1 81 3 is_stmt 1 view .LVU32
 123              		.loc 1 81 22 is_stmt 0 view .LVU33
 124 0012 4FF48062 		mov	r2, #1024
 125 0016 0261     		str	r2, [r0, #16]
  82:Core/Src/usart.c ****   huart3.Init.Mode = UART_MODE_TX_RX;
 126              		.loc 1 82 3 is_stmt 1 view .LVU34
 127              		.loc 1 82 20 is_stmt 0 view .LVU35
 128 0018 0C22     		movs	r2, #12
 129 001a 4261     		str	r2, [r0, #20]
  83:Core/Src/usart.c ****   huart3.Init.HwFlowCtl = UART_HWCONTROL_NONE;
 130              		.loc 1 83 3 is_stmt 1 view .LVU36
 131              		.loc 1 83 25 is_stmt 0 view .LVU37
 132 001c 8361     		str	r3, [r0, #24]
  84:Core/Src/usart.c ****   huart3.Init.OverSampling = UART_OVERSAMPLING_16;
 133              		.loc 1 84 3 is_stmt 1 view .LVU38
 134              		.loc 1 84 28 is_stmt 0 view .LVU39
 135 001e C361     		str	r3, [r0, #28]
  85:Core/Src/usart.c ****   if (HAL_UART_Init(&huart3) != HAL_OK)
 136              		.loc 1 85 3 is_stmt 1 view .LVU40
 137              		.loc 1 85 7 is_stmt 0 view .LVU41
 138 0020 FFF7FEFF 		bl	HAL_UART_Init
 139              	.LVL2:
 140              		.loc 1 85 6 discriminator 1 view .LVU42
 141 0024 00B9     		cbnz	r0, .L10
 142              	.L7:
  86:Core/Src/usart.c ****   {
  87:Core/Src/usart.c ****     Error_Handler();
  88:Core/Src/usart.c ****   }
ARM GAS  C:\Users\Sive\AppData\Local\Temp\cc6tzqOi.s 			page 5


  89:Core/Src/usart.c ****   /* USER CODE BEGIN USART3_Init 2 */
  90:Core/Src/usart.c **** 
  91:Core/Src/usart.c ****   /* USER CODE END USART3_Init 2 */
  92:Core/Src/usart.c **** 
  93:Core/Src/usart.c **** }
 143              		.loc 1 93 1 view .LVU43
 144 0026 08BD     		pop	{r3, pc}
 145              	.L10:
  87:Core/Src/usart.c ****   }
 146              		.loc 1 87 5 is_stmt 1 view .LVU44
 147 0028 FFF7FEFF 		bl	Error_Handler
 148              	.LVL3:
 149              		.loc 1 93 1 is_stmt 0 view .LVU45
 150 002c FBE7     		b	.L7
 151              	.L12:
 152 002e 00BF     		.align	2
 153              	.L11:
 154 0030 00000000 		.word	huart3
 155 0034 00480040 		.word	1073760256
 156 0038 A0860100 		.word	100000
 157              		.cfi_endproc
 158              	.LFE135:
 160              		.section	.text.MX_USART6_UART_Init,"ax",%progbits
 161              		.align	1
 162              		.global	MX_USART6_UART_Init
 163              		.syntax unified
 164              		.thumb
 165              		.thumb_func
 167              	MX_USART6_UART_Init:
 168              	.LFB136:
  94:Core/Src/usart.c **** /* USART6 init function */
  95:Core/Src/usart.c **** 
  96:Core/Src/usart.c **** void MX_USART6_UART_Init(void)
  97:Core/Src/usart.c **** {
 169              		.loc 1 97 1 is_stmt 1 view -0
 170              		.cfi_startproc
 171              		@ args = 0, pretend = 0, frame = 0
 172              		@ frame_needed = 0, uses_anonymous_args = 0
 173 0000 08B5     		push	{r3, lr}
 174              		.cfi_def_cfa_offset 8
 175              		.cfi_offset 3, -8
 176              		.cfi_offset 14, -4
  98:Core/Src/usart.c **** 
  99:Core/Src/usart.c ****   /* USER CODE BEGIN USART6_Init 0 */
 100:Core/Src/usart.c **** 
 101:Core/Src/usart.c ****   /* USER CODE END USART6_Init 0 */
 102:Core/Src/usart.c **** 
 103:Core/Src/usart.c ****   /* USER CODE BEGIN USART6_Init 1 */
 104:Core/Src/usart.c **** 
 105:Core/Src/usart.c ****   /* USER CODE END USART6_Init 1 */
 106:Core/Src/usart.c ****   huart6.Instance = USART6;
 177              		.loc 1 106 3 view .LVU47
 178              		.loc 1 106 19 is_stmt 0 view .LVU48
 179 0002 0A48     		ldr	r0, .L17
 180 0004 0A4B     		ldr	r3, .L17+4
 181 0006 0360     		str	r3, [r0]
 107:Core/Src/usart.c ****   huart6.Init.BaudRate = 115200;
ARM GAS  C:\Users\Sive\AppData\Local\Temp\cc6tzqOi.s 			page 6


 182              		.loc 1 107 3 is_stmt 1 view .LVU49
 183              		.loc 1 107 24 is_stmt 0 view .LVU50
 184 0008 4FF4E133 		mov	r3, #115200
 185 000c 4360     		str	r3, [r0, #4]
 108:Core/Src/usart.c ****   huart6.Init.WordLength = UART_WORDLENGTH_8B;
 186              		.loc 1 108 3 is_stmt 1 view .LVU51
 187              		.loc 1 108 26 is_stmt 0 view .LVU52
 188 000e 0023     		movs	r3, #0
 189 0010 8360     		str	r3, [r0, #8]
 109:Core/Src/usart.c ****   huart6.Init.StopBits = UART_STOPBITS_1;
 190              		.loc 1 109 3 is_stmt 1 view .LVU53
 191              		.loc 1 109 24 is_stmt 0 view .LVU54
 192 0012 C360     		str	r3, [r0, #12]
 110:Core/Src/usart.c ****   huart6.Init.Parity = UART_PARITY_NONE;
 193              		.loc 1 110 3 is_stmt 1 view .LVU55
 194              		.loc 1 110 22 is_stmt 0 view .LVU56
 195 0014 0361     		str	r3, [r0, #16]
 111:Core/Src/usart.c ****   huart6.Init.Mode = UART_MODE_TX_RX;
 196              		.loc 1 111 3 is_stmt 1 view .LVU57
 197              		.loc 1 111 20 is_stmt 0 view .LVU58
 198 0016 0C22     		movs	r2, #12
 199 0018 4261     		str	r2, [r0, #20]
 112:Core/Src/usart.c ****   huart6.Init.HwFlowCtl = UART_HWCONTROL_NONE;
 200              		.loc 1 112 3 is_stmt 1 view .LVU59
 201              		.loc 1 112 25 is_stmt 0 view .LVU60
 202 001a 8361     		str	r3, [r0, #24]
 113:Core/Src/usart.c ****   huart6.Init.OverSampling = UART_OVERSAMPLING_16;
 203              		.loc 1 113 3 is_stmt 1 view .LVU61
 204              		.loc 1 113 28 is_stmt 0 view .LVU62
 205 001c C361     		str	r3, [r0, #28]
 114:Core/Src/usart.c ****   if (HAL_UART_Init(&huart6) != HAL_OK)
 206              		.loc 1 114 3 is_stmt 1 view .LVU63
 207              		.loc 1 114 7 is_stmt 0 view .LVU64
 208 001e FFF7FEFF 		bl	HAL_UART_Init
 209              	.LVL4:
 210              		.loc 1 114 6 discriminator 1 view .LVU65
 211 0022 00B9     		cbnz	r0, .L16
 212              	.L13:
 115:Core/Src/usart.c ****   {
 116:Core/Src/usart.c ****     Error_Handler();
 117:Core/Src/usart.c ****   }
 118:Core/Src/usart.c ****   /* USER CODE BEGIN USART6_Init 2 */
 119:Core/Src/usart.c **** 
 120:Core/Src/usart.c ****   /* USER CODE END USART6_Init 2 */
 121:Core/Src/usart.c **** 
 122:Core/Src/usart.c **** }
 213              		.loc 1 122 1 view .LVU66
 214 0024 08BD     		pop	{r3, pc}
 215              	.L16:
 116:Core/Src/usart.c ****   }
 216              		.loc 1 116 5 is_stmt 1 view .LVU67
 217 0026 FFF7FEFF 		bl	Error_Handler
 218              	.LVL5:
 219              		.loc 1 122 1 is_stmt 0 view .LVU68
 220 002a FBE7     		b	.L13
 221              	.L18:
 222              		.align	2
ARM GAS  C:\Users\Sive\AppData\Local\Temp\cc6tzqOi.s 			page 7


 223              	.L17:
 224 002c 00000000 		.word	huart6
 225 0030 00140140 		.word	1073812480
 226              		.cfi_endproc
 227              	.LFE136:
 229              		.section	.text.HAL_UART_MspInit,"ax",%progbits
 230              		.align	1
 231              		.global	HAL_UART_MspInit
 232              		.syntax unified
 233              		.thumb
 234              		.thumb_func
 236              	HAL_UART_MspInit:
 237              	.LVL6:
 238              	.LFB137:
 123:Core/Src/usart.c **** 
 124:Core/Src/usart.c **** void HAL_UART_MspInit(UART_HandleTypeDef* uartHandle)
 125:Core/Src/usart.c **** {
 239              		.loc 1 125 1 is_stmt 1 view -0
 240              		.cfi_startproc
 241              		@ args = 0, pretend = 0, frame = 48
 242              		@ frame_needed = 0, uses_anonymous_args = 0
 243              		.loc 1 125 1 is_stmt 0 view .LVU70
 244 0000 2DE9F041 		push	{r4, r5, r6, r7, r8, lr}
 245              		.cfi_def_cfa_offset 24
 246              		.cfi_offset 4, -24
 247              		.cfi_offset 5, -20
 248              		.cfi_offset 6, -16
 249              		.cfi_offset 7, -12
 250              		.cfi_offset 8, -8
 251              		.cfi_offset 14, -4
 252 0004 8CB0     		sub	sp, sp, #48
 253              		.cfi_def_cfa_offset 72
 254 0006 0446     		mov	r4, r0
 126:Core/Src/usart.c **** 
 127:Core/Src/usart.c ****   GPIO_InitTypeDef GPIO_InitStruct = {0};
 255              		.loc 1 127 3 is_stmt 1 view .LVU71
 256              		.loc 1 127 20 is_stmt 0 view .LVU72
 257 0008 0023     		movs	r3, #0
 258 000a 0793     		str	r3, [sp, #28]
 259 000c 0893     		str	r3, [sp, #32]
 260 000e 0993     		str	r3, [sp, #36]
 261 0010 0A93     		str	r3, [sp, #40]
 262 0012 0B93     		str	r3, [sp, #44]
 128:Core/Src/usart.c ****   if(uartHandle->Instance==USART1)
 263              		.loc 1 128 3 is_stmt 1 view .LVU73
 264              		.loc 1 128 16 is_stmt 0 view .LVU74
 265 0014 0368     		ldr	r3, [r0]
 266              		.loc 1 128 5 view .LVU75
 267 0016 9A4A     		ldr	r2, .L37
 268 0018 9342     		cmp	r3, r2
 269 001a 0AD0     		beq	.L29
 129:Core/Src/usart.c ****   {
 130:Core/Src/usart.c ****   /* USER CODE BEGIN USART1_MspInit 0 */
 131:Core/Src/usart.c **** 
 132:Core/Src/usart.c ****   /* USER CODE END USART1_MspInit 0 */
 133:Core/Src/usart.c ****     /* USART1 clock enable */
 134:Core/Src/usart.c ****     __HAL_RCC_USART1_CLK_ENABLE();
ARM GAS  C:\Users\Sive\AppData\Local\Temp\cc6tzqOi.s 			page 8


 135:Core/Src/usart.c **** 
 136:Core/Src/usart.c ****     __HAL_RCC_GPIOB_CLK_ENABLE();
 137:Core/Src/usart.c ****     __HAL_RCC_GPIOA_CLK_ENABLE();
 138:Core/Src/usart.c ****     /**USART1 GPIO Configuration
 139:Core/Src/usart.c ****     PB7     ------> USART1_RX
 140:Core/Src/usart.c ****     PA9     ------> USART1_TX
 141:Core/Src/usart.c ****     */
 142:Core/Src/usart.c ****     GPIO_InitStruct.Pin = GPIO_PIN_7;
 143:Core/Src/usart.c ****     GPIO_InitStruct.Mode = GPIO_MODE_AF_PP;
 144:Core/Src/usart.c ****     GPIO_InitStruct.Pull = GPIO_NOPULL;
 145:Core/Src/usart.c ****     GPIO_InitStruct.Speed = GPIO_SPEED_FREQ_VERY_HIGH;
 146:Core/Src/usart.c ****     GPIO_InitStruct.Alternate = GPIO_AF7_USART1;
 147:Core/Src/usart.c ****     HAL_GPIO_Init(GPIOB, &GPIO_InitStruct);
 148:Core/Src/usart.c **** 
 149:Core/Src/usart.c ****     GPIO_InitStruct.Pin = GPIO_PIN_9;
 150:Core/Src/usart.c ****     GPIO_InitStruct.Mode = GPIO_MODE_AF_PP;
 151:Core/Src/usart.c ****     GPIO_InitStruct.Pull = GPIO_NOPULL;
 152:Core/Src/usart.c ****     GPIO_InitStruct.Speed = GPIO_SPEED_FREQ_VERY_HIGH;
 153:Core/Src/usart.c ****     GPIO_InitStruct.Alternate = GPIO_AF7_USART1;
 154:Core/Src/usart.c ****     HAL_GPIO_Init(GPIOA, &GPIO_InitStruct);
 155:Core/Src/usart.c **** 
 156:Core/Src/usart.c ****     /* USART1 DMA Init */
 157:Core/Src/usart.c ****     /* USART1_TX Init */
 158:Core/Src/usart.c ****     hdma_usart1_tx.Instance = DMA2_Stream7;
 159:Core/Src/usart.c ****     hdma_usart1_tx.Init.Channel = DMA_CHANNEL_4;
 160:Core/Src/usart.c ****     hdma_usart1_tx.Init.Direction = DMA_MEMORY_TO_PERIPH;
 161:Core/Src/usart.c ****     hdma_usart1_tx.Init.PeriphInc = DMA_PINC_DISABLE;
 162:Core/Src/usart.c ****     hdma_usart1_tx.Init.MemInc = DMA_MINC_ENABLE;
 163:Core/Src/usart.c ****     hdma_usart1_tx.Init.PeriphDataAlignment = DMA_PDATAALIGN_BYTE;
 164:Core/Src/usart.c ****     hdma_usart1_tx.Init.MemDataAlignment = DMA_MDATAALIGN_BYTE;
 165:Core/Src/usart.c ****     hdma_usart1_tx.Init.Mode = DMA_NORMAL;
 166:Core/Src/usart.c ****     hdma_usart1_tx.Init.Priority = DMA_PRIORITY_VERY_HIGH;
 167:Core/Src/usart.c ****     hdma_usart1_tx.Init.FIFOMode = DMA_FIFOMODE_DISABLE;
 168:Core/Src/usart.c ****     if (HAL_DMA_Init(&hdma_usart1_tx) != HAL_OK)
 169:Core/Src/usart.c ****     {
 170:Core/Src/usart.c ****       Error_Handler();
 171:Core/Src/usart.c ****     }
 172:Core/Src/usart.c **** 
 173:Core/Src/usart.c ****     __HAL_LINKDMA(uartHandle,hdmatx,hdma_usart1_tx);
 174:Core/Src/usart.c **** 
 175:Core/Src/usart.c ****     /* USART1_RX Init */
 176:Core/Src/usart.c ****     hdma_usart1_rx.Instance = DMA2_Stream5;
 177:Core/Src/usart.c ****     hdma_usart1_rx.Init.Channel = DMA_CHANNEL_4;
 178:Core/Src/usart.c ****     hdma_usart1_rx.Init.Direction = DMA_PERIPH_TO_MEMORY;
 179:Core/Src/usart.c ****     hdma_usart1_rx.Init.PeriphInc = DMA_PINC_DISABLE;
 180:Core/Src/usart.c ****     hdma_usart1_rx.Init.MemInc = DMA_MINC_ENABLE;
 181:Core/Src/usart.c ****     hdma_usart1_rx.Init.PeriphDataAlignment = DMA_PDATAALIGN_BYTE;
 182:Core/Src/usart.c ****     hdma_usart1_rx.Init.MemDataAlignment = DMA_MDATAALIGN_BYTE;
 183:Core/Src/usart.c ****     hdma_usart1_rx.Init.Mode = DMA_NORMAL;
 184:Core/Src/usart.c ****     hdma_usart1_rx.Init.Priority = DMA_PRIORITY_VERY_HIGH;
 185:Core/Src/usart.c ****     hdma_usart1_rx.Init.FIFOMode = DMA_FIFOMODE_DISABLE;
 186:Core/Src/usart.c ****     if (HAL_DMA_Init(&hdma_usart1_rx) != HAL_OK)
 187:Core/Src/usart.c ****     {
 188:Core/Src/usart.c ****       Error_Handler();
 189:Core/Src/usart.c ****     }
 190:Core/Src/usart.c **** 
 191:Core/Src/usart.c ****     __HAL_LINKDMA(uartHandle,hdmarx,hdma_usart1_rx);
ARM GAS  C:\Users\Sive\AppData\Local\Temp\cc6tzqOi.s 			page 9


 192:Core/Src/usart.c **** 
 193:Core/Src/usart.c ****     /* USART1 interrupt Init */
 194:Core/Src/usart.c ****     HAL_NVIC_SetPriority(USART1_IRQn, 5, 0);
 195:Core/Src/usart.c ****     HAL_NVIC_EnableIRQ(USART1_IRQn);
 196:Core/Src/usart.c ****   /* USER CODE BEGIN USART1_MspInit 1 */
 197:Core/Src/usart.c **** 
 198:Core/Src/usart.c ****   /* USER CODE END USART1_MspInit 1 */
 199:Core/Src/usart.c ****   }
 200:Core/Src/usart.c ****   else if(uartHandle->Instance==USART3)
 270              		.loc 1 200 8 is_stmt 1 view .LVU76
 271              		.loc 1 200 10 is_stmt 0 view .LVU77
 272 001c 994A     		ldr	r2, .L37+4
 273 001e 9342     		cmp	r3, r2
 274 0020 00F08280 		beq	.L30
 201:Core/Src/usart.c ****   {
 202:Core/Src/usart.c ****   /* USER CODE BEGIN USART3_MspInit 0 */
 203:Core/Src/usart.c **** 
 204:Core/Src/usart.c ****   /* USER CODE END USART3_MspInit 0 */
 205:Core/Src/usart.c ****     /* USART3 clock enable */
 206:Core/Src/usart.c ****     __HAL_RCC_USART3_CLK_ENABLE();
 207:Core/Src/usart.c **** 
 208:Core/Src/usart.c ****     __HAL_RCC_GPIOC_CLK_ENABLE();
 209:Core/Src/usart.c ****     /**USART3 GPIO Configuration
 210:Core/Src/usart.c ****     PC11     ------> USART3_RX
 211:Core/Src/usart.c ****     PC10     ------> USART3_TX
 212:Core/Src/usart.c ****     */
 213:Core/Src/usart.c ****     GPIO_InitStruct.Pin = GPIO_PIN_11|GPIO_PIN_10;
 214:Core/Src/usart.c ****     GPIO_InitStruct.Mode = GPIO_MODE_AF_PP;
 215:Core/Src/usart.c ****     GPIO_InitStruct.Pull = GPIO_NOPULL;
 216:Core/Src/usart.c ****     GPIO_InitStruct.Speed = GPIO_SPEED_FREQ_VERY_HIGH;
 217:Core/Src/usart.c ****     GPIO_InitStruct.Alternate = GPIO_AF7_USART3;
 218:Core/Src/usart.c ****     HAL_GPIO_Init(GPIOC, &GPIO_InitStruct);
 219:Core/Src/usart.c **** 
 220:Core/Src/usart.c ****     /* USART3 DMA Init */
 221:Core/Src/usart.c ****     /* USART3_RX Init */
 222:Core/Src/usart.c ****     hdma_usart3_rx.Instance = DMA1_Stream1;
 223:Core/Src/usart.c ****     hdma_usart3_rx.Init.Channel = DMA_CHANNEL_4;
 224:Core/Src/usart.c ****     hdma_usart3_rx.Init.Direction = DMA_PERIPH_TO_MEMORY;
 225:Core/Src/usart.c ****     hdma_usart3_rx.Init.PeriphInc = DMA_PINC_DISABLE;
 226:Core/Src/usart.c ****     hdma_usart3_rx.Init.MemInc = DMA_MINC_ENABLE;
 227:Core/Src/usart.c ****     hdma_usart3_rx.Init.PeriphDataAlignment = DMA_PDATAALIGN_BYTE;
 228:Core/Src/usart.c ****     hdma_usart3_rx.Init.MemDataAlignment = DMA_MDATAALIGN_BYTE;
 229:Core/Src/usart.c ****     hdma_usart3_rx.Init.Mode = DMA_NORMAL;
 230:Core/Src/usart.c ****     hdma_usart3_rx.Init.Priority = DMA_PRIORITY_VERY_HIGH;
 231:Core/Src/usart.c ****     hdma_usart3_rx.Init.FIFOMode = DMA_FIFOMODE_DISABLE;
 232:Core/Src/usart.c ****     if (HAL_DMA_Init(&hdma_usart3_rx) != HAL_OK)
 233:Core/Src/usart.c ****     {
 234:Core/Src/usart.c ****       Error_Handler();
 235:Core/Src/usart.c ****     }
 236:Core/Src/usart.c **** 
 237:Core/Src/usart.c ****     __HAL_LINKDMA(uartHandle,hdmarx,hdma_usart3_rx);
 238:Core/Src/usart.c **** 
 239:Core/Src/usart.c ****     /* USART3 interrupt Init */
 240:Core/Src/usart.c ****     HAL_NVIC_SetPriority(USART3_IRQn, 6, 0);
 241:Core/Src/usart.c ****     HAL_NVIC_EnableIRQ(USART3_IRQn);
 242:Core/Src/usart.c ****   /* USER CODE BEGIN USART3_MspInit 1 */
 243:Core/Src/usart.c **** 
ARM GAS  C:\Users\Sive\AppData\Local\Temp\cc6tzqOi.s 			page 10


 244:Core/Src/usart.c ****   /* USER CODE END USART3_MspInit 1 */
 245:Core/Src/usart.c ****   }
 246:Core/Src/usart.c ****   else if(uartHandle->Instance==USART6)
 275              		.loc 1 246 8 is_stmt 1 view .LVU78
 276              		.loc 1 246 10 is_stmt 0 view .LVU79
 277 0024 984A     		ldr	r2, .L37+8
 278 0026 9342     		cmp	r3, r2
 279 0028 00F0C580 		beq	.L31
 280              	.LVL7:
 281              	.L19:
 247:Core/Src/usart.c ****   {
 248:Core/Src/usart.c ****   /* USER CODE BEGIN USART6_MspInit 0 */
 249:Core/Src/usart.c **** 
 250:Core/Src/usart.c ****   /* USER CODE END USART6_MspInit 0 */
 251:Core/Src/usart.c ****     /* USART6 clock enable */
 252:Core/Src/usart.c ****     __HAL_RCC_USART6_CLK_ENABLE();
 253:Core/Src/usart.c **** 
 254:Core/Src/usart.c ****     __HAL_RCC_GPIOG_CLK_ENABLE();
 255:Core/Src/usart.c ****     /**USART6 GPIO Configuration
 256:Core/Src/usart.c ****     PG14     ------> USART6_TX
 257:Core/Src/usart.c ****     PG9     ------> USART6_RX
 258:Core/Src/usart.c ****     */
 259:Core/Src/usart.c ****     GPIO_InitStruct.Pin = GPIO_PIN_14|GPIO_PIN_9;
 260:Core/Src/usart.c ****     GPIO_InitStruct.Mode = GPIO_MODE_AF_PP;
 261:Core/Src/usart.c ****     GPIO_InitStruct.Pull = GPIO_NOPULL;
 262:Core/Src/usart.c ****     GPIO_InitStruct.Speed = GPIO_SPEED_FREQ_VERY_HIGH;
 263:Core/Src/usart.c ****     GPIO_InitStruct.Alternate = GPIO_AF8_USART6;
 264:Core/Src/usart.c ****     HAL_GPIO_Init(GPIOG, &GPIO_InitStruct);
 265:Core/Src/usart.c **** 
 266:Core/Src/usart.c ****     /* USART6 DMA Init */
 267:Core/Src/usart.c ****     /* USART6_RX Init */
 268:Core/Src/usart.c ****     hdma_usart6_rx.Instance = DMA2_Stream1;
 269:Core/Src/usart.c ****     hdma_usart6_rx.Init.Channel = DMA_CHANNEL_5;
 270:Core/Src/usart.c ****     hdma_usart6_rx.Init.Direction = DMA_PERIPH_TO_MEMORY;
 271:Core/Src/usart.c ****     hdma_usart6_rx.Init.PeriphInc = DMA_PINC_DISABLE;
 272:Core/Src/usart.c ****     hdma_usart6_rx.Init.MemInc = DMA_MINC_ENABLE;
 273:Core/Src/usart.c ****     hdma_usart6_rx.Init.PeriphDataAlignment = DMA_PDATAALIGN_BYTE;
 274:Core/Src/usart.c ****     hdma_usart6_rx.Init.MemDataAlignment = DMA_MDATAALIGN_BYTE;
 275:Core/Src/usart.c ****     hdma_usart6_rx.Init.Mode = DMA_NORMAL;
 276:Core/Src/usart.c ****     hdma_usart6_rx.Init.Priority = DMA_PRIORITY_HIGH;
 277:Core/Src/usart.c ****     hdma_usart6_rx.Init.FIFOMode = DMA_FIFOMODE_DISABLE;
 278:Core/Src/usart.c ****     if (HAL_DMA_Init(&hdma_usart6_rx) != HAL_OK)
 279:Core/Src/usart.c ****     {
 280:Core/Src/usart.c ****       Error_Handler();
 281:Core/Src/usart.c ****     }
 282:Core/Src/usart.c **** 
 283:Core/Src/usart.c ****     __HAL_LINKDMA(uartHandle,hdmarx,hdma_usart6_rx);
 284:Core/Src/usart.c **** 
 285:Core/Src/usart.c ****     /* USART6_TX Init */
 286:Core/Src/usart.c ****     hdma_usart6_tx.Instance = DMA2_Stream6;
 287:Core/Src/usart.c ****     hdma_usart6_tx.Init.Channel = DMA_CHANNEL_5;
 288:Core/Src/usart.c ****     hdma_usart6_tx.Init.Direction = DMA_MEMORY_TO_PERIPH;
 289:Core/Src/usart.c ****     hdma_usart6_tx.Init.PeriphInc = DMA_PINC_DISABLE;
 290:Core/Src/usart.c ****     hdma_usart6_tx.Init.MemInc = DMA_MINC_ENABLE;
 291:Core/Src/usart.c ****     hdma_usart6_tx.Init.PeriphDataAlignment = DMA_PDATAALIGN_BYTE;
 292:Core/Src/usart.c ****     hdma_usart6_tx.Init.MemDataAlignment = DMA_MDATAALIGN_BYTE;
 293:Core/Src/usart.c ****     hdma_usart6_tx.Init.Mode = DMA_NORMAL;
ARM GAS  C:\Users\Sive\AppData\Local\Temp\cc6tzqOi.s 			page 11


 294:Core/Src/usart.c ****     hdma_usart6_tx.Init.Priority = DMA_PRIORITY_HIGH;
 295:Core/Src/usart.c ****     hdma_usart6_tx.Init.FIFOMode = DMA_FIFOMODE_DISABLE;
 296:Core/Src/usart.c ****     if (HAL_DMA_Init(&hdma_usart6_tx) != HAL_OK)
 297:Core/Src/usart.c ****     {
 298:Core/Src/usart.c ****       Error_Handler();
 299:Core/Src/usart.c ****     }
 300:Core/Src/usart.c **** 
 301:Core/Src/usart.c ****     __HAL_LINKDMA(uartHandle,hdmatx,hdma_usart6_tx);
 302:Core/Src/usart.c **** 
 303:Core/Src/usart.c ****     /* USART6 interrupt Init */
 304:Core/Src/usart.c ****     HAL_NVIC_SetPriority(USART6_IRQn, 5, 0);
 305:Core/Src/usart.c ****     HAL_NVIC_EnableIRQ(USART6_IRQn);
 306:Core/Src/usart.c ****   /* USER CODE BEGIN USART6_MspInit 1 */
 307:Core/Src/usart.c **** 
 308:Core/Src/usart.c ****   /* USER CODE END USART6_MspInit 1 */
 309:Core/Src/usart.c ****   }
 310:Core/Src/usart.c **** }
 282              		.loc 1 310 1 view .LVU80
 283 002c 0CB0     		add	sp, sp, #48
 284              		.cfi_remember_state
 285              		.cfi_def_cfa_offset 24
 286              		@ sp needed
 287 002e BDE8F081 		pop	{r4, r5, r6, r7, r8, pc}
 288              	.LVL8:
 289              	.L29:
 290              		.cfi_restore_state
 134:Core/Src/usart.c **** 
 291              		.loc 1 134 5 is_stmt 1 view .LVU81
 292              	.LBB2:
 134:Core/Src/usart.c **** 
 293              		.loc 1 134 5 view .LVU82
 294 0032 0025     		movs	r5, #0
 295 0034 0095     		str	r5, [sp]
 134:Core/Src/usart.c **** 
 296              		.loc 1 134 5 view .LVU83
 297 0036 954B     		ldr	r3, .L37+12
 298 0038 5A6C     		ldr	r2, [r3, #68]
 299 003a 42F01002 		orr	r2, r2, #16
 300 003e 5A64     		str	r2, [r3, #68]
 134:Core/Src/usart.c **** 
 301              		.loc 1 134 5 view .LVU84
 302 0040 5A6C     		ldr	r2, [r3, #68]
 303 0042 02F01002 		and	r2, r2, #16
 304 0046 0092     		str	r2, [sp]
 134:Core/Src/usart.c **** 
 305              		.loc 1 134 5 view .LVU85
 306 0048 009A     		ldr	r2, [sp]
 307              	.LBE2:
 134:Core/Src/usart.c **** 
 308              		.loc 1 134 5 view .LVU86
 136:Core/Src/usart.c ****     __HAL_RCC_GPIOA_CLK_ENABLE();
 309              		.loc 1 136 5 view .LVU87
 310              	.LBB3:
 136:Core/Src/usart.c ****     __HAL_RCC_GPIOA_CLK_ENABLE();
 311              		.loc 1 136 5 view .LVU88
 312 004a 0195     		str	r5, [sp, #4]
 136:Core/Src/usart.c ****     __HAL_RCC_GPIOA_CLK_ENABLE();
ARM GAS  C:\Users\Sive\AppData\Local\Temp\cc6tzqOi.s 			page 12


 313              		.loc 1 136 5 view .LVU89
 314 004c 1A6B     		ldr	r2, [r3, #48]
 315 004e 42F00202 		orr	r2, r2, #2
 316 0052 1A63     		str	r2, [r3, #48]
 136:Core/Src/usart.c ****     __HAL_RCC_GPIOA_CLK_ENABLE();
 317              		.loc 1 136 5 view .LVU90
 318 0054 1A6B     		ldr	r2, [r3, #48]
 319 0056 02F00202 		and	r2, r2, #2
 320 005a 0192     		str	r2, [sp, #4]
 136:Core/Src/usart.c ****     __HAL_RCC_GPIOA_CLK_ENABLE();
 321              		.loc 1 136 5 view .LVU91
 322 005c 019A     		ldr	r2, [sp, #4]
 323              	.LBE3:
 136:Core/Src/usart.c ****     __HAL_RCC_GPIOA_CLK_ENABLE();
 324              		.loc 1 136 5 view .LVU92
 137:Core/Src/usart.c ****     /**USART1 GPIO Configuration
 325              		.loc 1 137 5 view .LVU93
 326              	.LBB4:
 137:Core/Src/usart.c ****     /**USART1 GPIO Configuration
 327              		.loc 1 137 5 view .LVU94
 328 005e 0295     		str	r5, [sp, #8]
 137:Core/Src/usart.c ****     /**USART1 GPIO Configuration
 329              		.loc 1 137 5 view .LVU95
 330 0060 1A6B     		ldr	r2, [r3, #48]
 331 0062 42F00102 		orr	r2, r2, #1
 332 0066 1A63     		str	r2, [r3, #48]
 137:Core/Src/usart.c ****     /**USART1 GPIO Configuration
 333              		.loc 1 137 5 view .LVU96
 334 0068 1B6B     		ldr	r3, [r3, #48]
 335 006a 03F00103 		and	r3, r3, #1
 336 006e 0293     		str	r3, [sp, #8]
 137:Core/Src/usart.c ****     /**USART1 GPIO Configuration
 337              		.loc 1 137 5 view .LVU97
 338 0070 029B     		ldr	r3, [sp, #8]
 339              	.LBE4:
 137:Core/Src/usart.c ****     /**USART1 GPIO Configuration
 340              		.loc 1 137 5 view .LVU98
 142:Core/Src/usart.c ****     GPIO_InitStruct.Mode = GPIO_MODE_AF_PP;
 341              		.loc 1 142 5 view .LVU99
 142:Core/Src/usart.c ****     GPIO_InitStruct.Mode = GPIO_MODE_AF_PP;
 342              		.loc 1 142 25 is_stmt 0 view .LVU100
 343 0072 8023     		movs	r3, #128
 344 0074 0793     		str	r3, [sp, #28]
 143:Core/Src/usart.c ****     GPIO_InitStruct.Pull = GPIO_NOPULL;
 345              		.loc 1 143 5 is_stmt 1 view .LVU101
 143:Core/Src/usart.c ****     GPIO_InitStruct.Pull = GPIO_NOPULL;
 346              		.loc 1 143 26 is_stmt 0 view .LVU102
 347 0076 4FF00208 		mov	r8, #2
 348 007a CDF82080 		str	r8, [sp, #32]
 144:Core/Src/usart.c ****     GPIO_InitStruct.Speed = GPIO_SPEED_FREQ_VERY_HIGH;
 349              		.loc 1 144 5 is_stmt 1 view .LVU103
 145:Core/Src/usart.c ****     GPIO_InitStruct.Alternate = GPIO_AF7_USART1;
 350              		.loc 1 145 5 view .LVU104
 145:Core/Src/usart.c ****     GPIO_InitStruct.Alternate = GPIO_AF7_USART1;
 351              		.loc 1 145 27 is_stmt 0 view .LVU105
 352 007e 0327     		movs	r7, #3
 353 0080 0A97     		str	r7, [sp, #40]
ARM GAS  C:\Users\Sive\AppData\Local\Temp\cc6tzqOi.s 			page 13


 146:Core/Src/usart.c ****     HAL_GPIO_Init(GPIOB, &GPIO_InitStruct);
 354              		.loc 1 146 5 is_stmt 1 view .LVU106
 146:Core/Src/usart.c ****     HAL_GPIO_Init(GPIOB, &GPIO_InitStruct);
 355              		.loc 1 146 31 is_stmt 0 view .LVU107
 356 0082 0726     		movs	r6, #7
 357 0084 0B96     		str	r6, [sp, #44]
 147:Core/Src/usart.c **** 
 358              		.loc 1 147 5 is_stmt 1 view .LVU108
 359 0086 07A9     		add	r1, sp, #28
 360 0088 8148     		ldr	r0, .L37+16
 361              	.LVL9:
 147:Core/Src/usart.c **** 
 362              		.loc 1 147 5 is_stmt 0 view .LVU109
 363 008a FFF7FEFF 		bl	HAL_GPIO_Init
 364              	.LVL10:
 149:Core/Src/usart.c ****     GPIO_InitStruct.Mode = GPIO_MODE_AF_PP;
 365              		.loc 1 149 5 is_stmt 1 view .LVU110
 149:Core/Src/usart.c ****     GPIO_InitStruct.Mode = GPIO_MODE_AF_PP;
 366              		.loc 1 149 25 is_stmt 0 view .LVU111
 367 008e 4FF40073 		mov	r3, #512
 368 0092 0793     		str	r3, [sp, #28]
 150:Core/Src/usart.c ****     GPIO_InitStruct.Pull = GPIO_NOPULL;
 369              		.loc 1 150 5 is_stmt 1 view .LVU112
 150:Core/Src/usart.c ****     GPIO_InitStruct.Pull = GPIO_NOPULL;
 370              		.loc 1 150 26 is_stmt 0 view .LVU113
 371 0094 CDF82080 		str	r8, [sp, #32]
 151:Core/Src/usart.c ****     GPIO_InitStruct.Speed = GPIO_SPEED_FREQ_VERY_HIGH;
 372              		.loc 1 151 5 is_stmt 1 view .LVU114
 151:Core/Src/usart.c ****     GPIO_InitStruct.Speed = GPIO_SPEED_FREQ_VERY_HIGH;
 373              		.loc 1 151 26 is_stmt 0 view .LVU115
 374 0098 0995     		str	r5, [sp, #36]
 152:Core/Src/usart.c ****     GPIO_InitStruct.Alternate = GPIO_AF7_USART1;
 375              		.loc 1 152 5 is_stmt 1 view .LVU116
 152:Core/Src/usart.c ****     GPIO_InitStruct.Alternate = GPIO_AF7_USART1;
 376              		.loc 1 152 27 is_stmt 0 view .LVU117
 377 009a 0A97     		str	r7, [sp, #40]
 153:Core/Src/usart.c ****     HAL_GPIO_Init(GPIOA, &GPIO_InitStruct);
 378              		.loc 1 153 5 is_stmt 1 view .LVU118
 153:Core/Src/usart.c ****     HAL_GPIO_Init(GPIOA, &GPIO_InitStruct);
 379              		.loc 1 153 31 is_stmt 0 view .LVU119
 380 009c 0B96     		str	r6, [sp, #44]
 154:Core/Src/usart.c **** 
 381              		.loc 1 154 5 is_stmt 1 view .LVU120
 382 009e 07A9     		add	r1, sp, #28
 383 00a0 7C48     		ldr	r0, .L37+20
 384 00a2 FFF7FEFF 		bl	HAL_GPIO_Init
 385              	.LVL11:
 158:Core/Src/usart.c ****     hdma_usart1_tx.Init.Channel = DMA_CHANNEL_4;
 386              		.loc 1 158 5 view .LVU121
 158:Core/Src/usart.c ****     hdma_usart1_tx.Init.Channel = DMA_CHANNEL_4;
 387              		.loc 1 158 29 is_stmt 0 view .LVU122
 388 00a6 7C48     		ldr	r0, .L37+24
 389 00a8 7C4B     		ldr	r3, .L37+28
 390 00aa 0360     		str	r3, [r0]
 159:Core/Src/usart.c ****     hdma_usart1_tx.Init.Direction = DMA_MEMORY_TO_PERIPH;
 391              		.loc 1 159 5 is_stmt 1 view .LVU123
 159:Core/Src/usart.c ****     hdma_usart1_tx.Init.Direction = DMA_MEMORY_TO_PERIPH;
ARM GAS  C:\Users\Sive\AppData\Local\Temp\cc6tzqOi.s 			page 14


 392              		.loc 1 159 33 is_stmt 0 view .LVU124
 393 00ac 4FF00063 		mov	r3, #134217728
 394 00b0 4360     		str	r3, [r0, #4]
 160:Core/Src/usart.c ****     hdma_usart1_tx.Init.PeriphInc = DMA_PINC_DISABLE;
 395              		.loc 1 160 5 is_stmt 1 view .LVU125
 160:Core/Src/usart.c ****     hdma_usart1_tx.Init.PeriphInc = DMA_PINC_DISABLE;
 396              		.loc 1 160 35 is_stmt 0 view .LVU126
 397 00b2 4023     		movs	r3, #64
 398 00b4 8360     		str	r3, [r0, #8]
 161:Core/Src/usart.c ****     hdma_usart1_tx.Init.MemInc = DMA_MINC_ENABLE;
 399              		.loc 1 161 5 is_stmt 1 view .LVU127
 161:Core/Src/usart.c ****     hdma_usart1_tx.Init.MemInc = DMA_MINC_ENABLE;
 400              		.loc 1 161 35 is_stmt 0 view .LVU128
 401 00b6 C560     		str	r5, [r0, #12]
 162:Core/Src/usart.c ****     hdma_usart1_tx.Init.PeriphDataAlignment = DMA_PDATAALIGN_BYTE;
 402              		.loc 1 162 5 is_stmt 1 view .LVU129
 162:Core/Src/usart.c ****     hdma_usart1_tx.Init.PeriphDataAlignment = DMA_PDATAALIGN_BYTE;
 403              		.loc 1 162 32 is_stmt 0 view .LVU130
 404 00b8 4FF48063 		mov	r3, #1024
 405 00bc 0361     		str	r3, [r0, #16]
 163:Core/Src/usart.c ****     hdma_usart1_tx.Init.MemDataAlignment = DMA_MDATAALIGN_BYTE;
 406              		.loc 1 163 5 is_stmt 1 view .LVU131
 163:Core/Src/usart.c ****     hdma_usart1_tx.Init.MemDataAlignment = DMA_MDATAALIGN_BYTE;
 407              		.loc 1 163 45 is_stmt 0 view .LVU132
 408 00be 4561     		str	r5, [r0, #20]
 164:Core/Src/usart.c ****     hdma_usart1_tx.Init.Mode = DMA_NORMAL;
 409              		.loc 1 164 5 is_stmt 1 view .LVU133
 164:Core/Src/usart.c ****     hdma_usart1_tx.Init.Mode = DMA_NORMAL;
 410              		.loc 1 164 42 is_stmt 0 view .LVU134
 411 00c0 8561     		str	r5, [r0, #24]
 165:Core/Src/usart.c ****     hdma_usart1_tx.Init.Priority = DMA_PRIORITY_VERY_HIGH;
 412              		.loc 1 165 5 is_stmt 1 view .LVU135
 165:Core/Src/usart.c ****     hdma_usart1_tx.Init.Priority = DMA_PRIORITY_VERY_HIGH;
 413              		.loc 1 165 30 is_stmt 0 view .LVU136
 414 00c2 C561     		str	r5, [r0, #28]
 166:Core/Src/usart.c ****     hdma_usart1_tx.Init.FIFOMode = DMA_FIFOMODE_DISABLE;
 415              		.loc 1 166 5 is_stmt 1 view .LVU137
 166:Core/Src/usart.c ****     hdma_usart1_tx.Init.FIFOMode = DMA_FIFOMODE_DISABLE;
 416              		.loc 1 166 34 is_stmt 0 view .LVU138
 417 00c4 4FF44033 		mov	r3, #196608
 418 00c8 0362     		str	r3, [r0, #32]
 167:Core/Src/usart.c ****     if (HAL_DMA_Init(&hdma_usart1_tx) != HAL_OK)
 419              		.loc 1 167 5 is_stmt 1 view .LVU139
 167:Core/Src/usart.c ****     if (HAL_DMA_Init(&hdma_usart1_tx) != HAL_OK)
 420              		.loc 1 167 34 is_stmt 0 view .LVU140
 421 00ca 4562     		str	r5, [r0, #36]
 168:Core/Src/usart.c ****     {
 422              		.loc 1 168 5 is_stmt 1 view .LVU141
 168:Core/Src/usart.c ****     {
 423              		.loc 1 168 9 is_stmt 0 view .LVU142
 424 00cc FFF7FEFF 		bl	HAL_DMA_Init
 425              	.LVL12:
 168:Core/Src/usart.c ****     {
 426              		.loc 1 168 8 discriminator 1 view .LVU143
 427 00d0 20BB     		cbnz	r0, .L32
 428              	.L21:
 173:Core/Src/usart.c **** 
ARM GAS  C:\Users\Sive\AppData\Local\Temp\cc6tzqOi.s 			page 15


 429              		.loc 1 173 5 is_stmt 1 view .LVU144
 173:Core/Src/usart.c **** 
 430              		.loc 1 173 5 view .LVU145
 431 00d2 714B     		ldr	r3, .L37+24
 432 00d4 A363     		str	r3, [r4, #56]
 173:Core/Src/usart.c **** 
 433              		.loc 1 173 5 view .LVU146
 434 00d6 9C63     		str	r4, [r3, #56]
 173:Core/Src/usart.c **** 
 435              		.loc 1 173 5 view .LVU147
 176:Core/Src/usart.c ****     hdma_usart1_rx.Init.Channel = DMA_CHANNEL_4;
 436              		.loc 1 176 5 view .LVU148
 176:Core/Src/usart.c ****     hdma_usart1_rx.Init.Channel = DMA_CHANNEL_4;
 437              		.loc 1 176 29 is_stmt 0 view .LVU149
 438 00d8 7148     		ldr	r0, .L37+32
 439 00da 724B     		ldr	r3, .L37+36
 440 00dc 0360     		str	r3, [r0]
 177:Core/Src/usart.c ****     hdma_usart1_rx.Init.Direction = DMA_PERIPH_TO_MEMORY;
 441              		.loc 1 177 5 is_stmt 1 view .LVU150
 177:Core/Src/usart.c ****     hdma_usart1_rx.Init.Direction = DMA_PERIPH_TO_MEMORY;
 442              		.loc 1 177 33 is_stmt 0 view .LVU151
 443 00de 4FF00063 		mov	r3, #134217728
 444 00e2 4360     		str	r3, [r0, #4]
 178:Core/Src/usart.c ****     hdma_usart1_rx.Init.PeriphInc = DMA_PINC_DISABLE;
 445              		.loc 1 178 5 is_stmt 1 view .LVU152
 178:Core/Src/usart.c ****     hdma_usart1_rx.Init.PeriphInc = DMA_PINC_DISABLE;
 446              		.loc 1 178 35 is_stmt 0 view .LVU153
 447 00e4 0023     		movs	r3, #0
 448 00e6 8360     		str	r3, [r0, #8]
 179:Core/Src/usart.c ****     hdma_usart1_rx.Init.MemInc = DMA_MINC_ENABLE;
 449              		.loc 1 179 5 is_stmt 1 view .LVU154
 179:Core/Src/usart.c ****     hdma_usart1_rx.Init.MemInc = DMA_MINC_ENABLE;
 450              		.loc 1 179 35 is_stmt 0 view .LVU155
 451 00e8 C360     		str	r3, [r0, #12]
 180:Core/Src/usart.c ****     hdma_usart1_rx.Init.PeriphDataAlignment = DMA_PDATAALIGN_BYTE;
 452              		.loc 1 180 5 is_stmt 1 view .LVU156
 180:Core/Src/usart.c ****     hdma_usart1_rx.Init.PeriphDataAlignment = DMA_PDATAALIGN_BYTE;
 453              		.loc 1 180 32 is_stmt 0 view .LVU157
 454 00ea 4FF48062 		mov	r2, #1024
 455 00ee 0261     		str	r2, [r0, #16]
 181:Core/Src/usart.c ****     hdma_usart1_rx.Init.MemDataAlignment = DMA_MDATAALIGN_BYTE;
 456              		.loc 1 181 5 is_stmt 1 view .LVU158
 181:Core/Src/usart.c ****     hdma_usart1_rx.Init.MemDataAlignment = DMA_MDATAALIGN_BYTE;
 457              		.loc 1 181 45 is_stmt 0 view .LVU159
 458 00f0 4361     		str	r3, [r0, #20]
 182:Core/Src/usart.c ****     hdma_usart1_rx.Init.Mode = DMA_NORMAL;
 459              		.loc 1 182 5 is_stmt 1 view .LVU160
 182:Core/Src/usart.c ****     hdma_usart1_rx.Init.Mode = DMA_NORMAL;
 460              		.loc 1 182 42 is_stmt 0 view .LVU161
 461 00f2 8361     		str	r3, [r0, #24]
 183:Core/Src/usart.c ****     hdma_usart1_rx.Init.Priority = DMA_PRIORITY_VERY_HIGH;
 462              		.loc 1 183 5 is_stmt 1 view .LVU162
 183:Core/Src/usart.c ****     hdma_usart1_rx.Init.Priority = DMA_PRIORITY_VERY_HIGH;
 463              		.loc 1 183 30 is_stmt 0 view .LVU163
 464 00f4 C361     		str	r3, [r0, #28]
 184:Core/Src/usart.c ****     hdma_usart1_rx.Init.FIFOMode = DMA_FIFOMODE_DISABLE;
 465              		.loc 1 184 5 is_stmt 1 view .LVU164
ARM GAS  C:\Users\Sive\AppData\Local\Temp\cc6tzqOi.s 			page 16


 184:Core/Src/usart.c ****     hdma_usart1_rx.Init.FIFOMode = DMA_FIFOMODE_DISABLE;
 466              		.loc 1 184 34 is_stmt 0 view .LVU165
 467 00f6 4FF44032 		mov	r2, #196608
 468 00fa 0262     		str	r2, [r0, #32]
 185:Core/Src/usart.c ****     if (HAL_DMA_Init(&hdma_usart1_rx) != HAL_OK)
 469              		.loc 1 185 5 is_stmt 1 view .LVU166
 185:Core/Src/usart.c ****     if (HAL_DMA_Init(&hdma_usart1_rx) != HAL_OK)
 470              		.loc 1 185 34 is_stmt 0 view .LVU167
 471 00fc 4362     		str	r3, [r0, #36]
 186:Core/Src/usart.c ****     {
 472              		.loc 1 186 5 is_stmt 1 view .LVU168
 186:Core/Src/usart.c ****     {
 473              		.loc 1 186 9 is_stmt 0 view .LVU169
 474 00fe FFF7FEFF 		bl	HAL_DMA_Init
 475              	.LVL13:
 186:Core/Src/usart.c ****     {
 476              		.loc 1 186 8 discriminator 1 view .LVU170
 477 0102 70B9     		cbnz	r0, .L33
 478              	.L22:
 191:Core/Src/usart.c **** 
 479              		.loc 1 191 5 is_stmt 1 view .LVU171
 191:Core/Src/usart.c **** 
 480              		.loc 1 191 5 view .LVU172
 481 0104 664B     		ldr	r3, .L37+32
 482 0106 E363     		str	r3, [r4, #60]
 191:Core/Src/usart.c **** 
 483              		.loc 1 191 5 view .LVU173
 484 0108 9C63     		str	r4, [r3, #56]
 191:Core/Src/usart.c **** 
 485              		.loc 1 191 5 view .LVU174
 194:Core/Src/usart.c ****     HAL_NVIC_EnableIRQ(USART1_IRQn);
 486              		.loc 1 194 5 view .LVU175
 487 010a 0022     		movs	r2, #0
 488 010c 0521     		movs	r1, #5
 489 010e 2520     		movs	r0, #37
 490 0110 FFF7FEFF 		bl	HAL_NVIC_SetPriority
 491              	.LVL14:
 195:Core/Src/usart.c ****   /* USER CODE BEGIN USART1_MspInit 1 */
 492              		.loc 1 195 5 view .LVU176
 493 0114 2520     		movs	r0, #37
 494 0116 FFF7FEFF 		bl	HAL_NVIC_EnableIRQ
 495              	.LVL15:
 496 011a 87E7     		b	.L19
 497              	.L32:
 170:Core/Src/usart.c ****     }
 498              		.loc 1 170 7 view .LVU177
 499 011c FFF7FEFF 		bl	Error_Handler
 500              	.LVL16:
 501 0120 D7E7     		b	.L21
 502              	.L33:
 188:Core/Src/usart.c ****     }
 503              		.loc 1 188 7 view .LVU178
 504 0122 FFF7FEFF 		bl	Error_Handler
 505              	.LVL17:
 506 0126 EDE7     		b	.L22
 507              	.LVL18:
 508              	.L30:
ARM GAS  C:\Users\Sive\AppData\Local\Temp\cc6tzqOi.s 			page 17


 206:Core/Src/usart.c **** 
 509              		.loc 1 206 5 view .LVU179
 510              	.LBB5:
 206:Core/Src/usart.c **** 
 511              		.loc 1 206 5 view .LVU180
 512 0128 0025     		movs	r5, #0
 513 012a 0395     		str	r5, [sp, #12]
 206:Core/Src/usart.c **** 
 514              		.loc 1 206 5 view .LVU181
 515 012c 574B     		ldr	r3, .L37+12
 516 012e 1A6C     		ldr	r2, [r3, #64]
 517 0130 42F48022 		orr	r2, r2, #262144
 518 0134 1A64     		str	r2, [r3, #64]
 206:Core/Src/usart.c **** 
 519              		.loc 1 206 5 view .LVU182
 520 0136 1A6C     		ldr	r2, [r3, #64]
 521 0138 02F48022 		and	r2, r2, #262144
 522 013c 0392     		str	r2, [sp, #12]
 206:Core/Src/usart.c **** 
 523              		.loc 1 206 5 view .LVU183
 524 013e 039A     		ldr	r2, [sp, #12]
 525              	.LBE5:
 206:Core/Src/usart.c **** 
 526              		.loc 1 206 5 view .LVU184
 208:Core/Src/usart.c ****     /**USART3 GPIO Configuration
 527              		.loc 1 208 5 view .LVU185
 528              	.LBB6:
 208:Core/Src/usart.c ****     /**USART3 GPIO Configuration
 529              		.loc 1 208 5 view .LVU186
 530 0140 0495     		str	r5, [sp, #16]
 208:Core/Src/usart.c ****     /**USART3 GPIO Configuration
 531              		.loc 1 208 5 view .LVU187
 532 0142 1A6B     		ldr	r2, [r3, #48]
 533 0144 42F00402 		orr	r2, r2, #4
 534 0148 1A63     		str	r2, [r3, #48]
 208:Core/Src/usart.c ****     /**USART3 GPIO Configuration
 535              		.loc 1 208 5 view .LVU188
 536 014a 1B6B     		ldr	r3, [r3, #48]
 537 014c 03F00403 		and	r3, r3, #4
 538 0150 0493     		str	r3, [sp, #16]
 208:Core/Src/usart.c ****     /**USART3 GPIO Configuration
 539              		.loc 1 208 5 view .LVU189
 540 0152 049B     		ldr	r3, [sp, #16]
 541              	.LBE6:
 208:Core/Src/usart.c ****     /**USART3 GPIO Configuration
 542              		.loc 1 208 5 view .LVU190
 213:Core/Src/usart.c ****     GPIO_InitStruct.Mode = GPIO_MODE_AF_PP;
 543              		.loc 1 213 5 view .LVU191
 213:Core/Src/usart.c ****     GPIO_InitStruct.Mode = GPIO_MODE_AF_PP;
 544              		.loc 1 213 25 is_stmt 0 view .LVU192
 545 0154 4FF44063 		mov	r3, #3072
 546 0158 0793     		str	r3, [sp, #28]
 214:Core/Src/usart.c ****     GPIO_InitStruct.Pull = GPIO_NOPULL;
 547              		.loc 1 214 5 is_stmt 1 view .LVU193
 214:Core/Src/usart.c ****     GPIO_InitStruct.Pull = GPIO_NOPULL;
 548              		.loc 1 214 26 is_stmt 0 view .LVU194
 549 015a 0223     		movs	r3, #2
ARM GAS  C:\Users\Sive\AppData\Local\Temp\cc6tzqOi.s 			page 18


 550 015c 0893     		str	r3, [sp, #32]
 215:Core/Src/usart.c ****     GPIO_InitStruct.Speed = GPIO_SPEED_FREQ_VERY_HIGH;
 551              		.loc 1 215 5 is_stmt 1 view .LVU195
 216:Core/Src/usart.c ****     GPIO_InitStruct.Alternate = GPIO_AF7_USART3;
 552              		.loc 1 216 5 view .LVU196
 216:Core/Src/usart.c ****     GPIO_InitStruct.Alternate = GPIO_AF7_USART3;
 553              		.loc 1 216 27 is_stmt 0 view .LVU197
 554 015e 0323     		movs	r3, #3
 555 0160 0A93     		str	r3, [sp, #40]
 217:Core/Src/usart.c ****     HAL_GPIO_Init(GPIOC, &GPIO_InitStruct);
 556              		.loc 1 217 5 is_stmt 1 view .LVU198
 217:Core/Src/usart.c ****     HAL_GPIO_Init(GPIOC, &GPIO_InitStruct);
 557              		.loc 1 217 31 is_stmt 0 view .LVU199
 558 0162 0723     		movs	r3, #7
 559 0164 0B93     		str	r3, [sp, #44]
 218:Core/Src/usart.c **** 
 560              		.loc 1 218 5 is_stmt 1 view .LVU200
 561 0166 07A9     		add	r1, sp, #28
 562 0168 4F48     		ldr	r0, .L37+40
 563              	.LVL19:
 218:Core/Src/usart.c **** 
 564              		.loc 1 218 5 is_stmt 0 view .LVU201
 565 016a FFF7FEFF 		bl	HAL_GPIO_Init
 566              	.LVL20:
 222:Core/Src/usart.c ****     hdma_usart3_rx.Init.Channel = DMA_CHANNEL_4;
 567              		.loc 1 222 5 is_stmt 1 view .LVU202
 222:Core/Src/usart.c ****     hdma_usart3_rx.Init.Channel = DMA_CHANNEL_4;
 568              		.loc 1 222 29 is_stmt 0 view .LVU203
 569 016e 4F48     		ldr	r0, .L37+44
 570 0170 4F4B     		ldr	r3, .L37+48
 571 0172 0360     		str	r3, [r0]
 223:Core/Src/usart.c ****     hdma_usart3_rx.Init.Direction = DMA_PERIPH_TO_MEMORY;
 572              		.loc 1 223 5 is_stmt 1 view .LVU204
 223:Core/Src/usart.c ****     hdma_usart3_rx.Init.Direction = DMA_PERIPH_TO_MEMORY;
 573              		.loc 1 223 33 is_stmt 0 view .LVU205
 574 0174 4FF00063 		mov	r3, #134217728
 575 0178 4360     		str	r3, [r0, #4]
 224:Core/Src/usart.c ****     hdma_usart3_rx.Init.PeriphInc = DMA_PINC_DISABLE;
 576              		.loc 1 224 5 is_stmt 1 view .LVU206
 224:Core/Src/usart.c ****     hdma_usart3_rx.Init.PeriphInc = DMA_PINC_DISABLE;
 577              		.loc 1 224 35 is_stmt 0 view .LVU207
 578 017a 8560     		str	r5, [r0, #8]
 225:Core/Src/usart.c ****     hdma_usart3_rx.Init.MemInc = DMA_MINC_ENABLE;
 579              		.loc 1 225 5 is_stmt 1 view .LVU208
 225:Core/Src/usart.c ****     hdma_usart3_rx.Init.MemInc = DMA_MINC_ENABLE;
 580              		.loc 1 225 35 is_stmt 0 view .LVU209
 581 017c C560     		str	r5, [r0, #12]
 226:Core/Src/usart.c ****     hdma_usart3_rx.Init.PeriphDataAlignment = DMA_PDATAALIGN_BYTE;
 582              		.loc 1 226 5 is_stmt 1 view .LVU210
 226:Core/Src/usart.c ****     hdma_usart3_rx.Init.PeriphDataAlignment = DMA_PDATAALIGN_BYTE;
 583              		.loc 1 226 32 is_stmt 0 view .LVU211
 584 017e 4FF48063 		mov	r3, #1024
 585 0182 0361     		str	r3, [r0, #16]
 227:Core/Src/usart.c ****     hdma_usart3_rx.Init.MemDataAlignment = DMA_MDATAALIGN_BYTE;
 586              		.loc 1 227 5 is_stmt 1 view .LVU212
 227:Core/Src/usart.c ****     hdma_usart3_rx.Init.MemDataAlignment = DMA_MDATAALIGN_BYTE;
 587              		.loc 1 227 45 is_stmt 0 view .LVU213
ARM GAS  C:\Users\Sive\AppData\Local\Temp\cc6tzqOi.s 			page 19


 588 0184 4561     		str	r5, [r0, #20]
 228:Core/Src/usart.c ****     hdma_usart3_rx.Init.Mode = DMA_NORMAL;
 589              		.loc 1 228 5 is_stmt 1 view .LVU214
 228:Core/Src/usart.c ****     hdma_usart3_rx.Init.Mode = DMA_NORMAL;
 590              		.loc 1 228 42 is_stmt 0 view .LVU215
 591 0186 8561     		str	r5, [r0, #24]
 229:Core/Src/usart.c ****     hdma_usart3_rx.Init.Priority = DMA_PRIORITY_VERY_HIGH;
 592              		.loc 1 229 5 is_stmt 1 view .LVU216
 229:Core/Src/usart.c ****     hdma_usart3_rx.Init.Priority = DMA_PRIORITY_VERY_HIGH;
 593              		.loc 1 229 30 is_stmt 0 view .LVU217
 594 0188 C561     		str	r5, [r0, #28]
 230:Core/Src/usart.c ****     hdma_usart3_rx.Init.FIFOMode = DMA_FIFOMODE_DISABLE;
 595              		.loc 1 230 5 is_stmt 1 view .LVU218
 230:Core/Src/usart.c ****     hdma_usart3_rx.Init.FIFOMode = DMA_FIFOMODE_DISABLE;
 596              		.loc 1 230 34 is_stmt 0 view .LVU219
 597 018a 4FF44033 		mov	r3, #196608
 598 018e 0362     		str	r3, [r0, #32]
 231:Core/Src/usart.c ****     if (HAL_DMA_Init(&hdma_usart3_rx) != HAL_OK)
 599              		.loc 1 231 5 is_stmt 1 view .LVU220
 231:Core/Src/usart.c ****     if (HAL_DMA_Init(&hdma_usart3_rx) != HAL_OK)
 600              		.loc 1 231 34 is_stmt 0 view .LVU221
 601 0190 4562     		str	r5, [r0, #36]
 232:Core/Src/usart.c ****     {
 602              		.loc 1 232 5 is_stmt 1 view .LVU222
 232:Core/Src/usart.c ****     {
 603              		.loc 1 232 9 is_stmt 0 view .LVU223
 604 0192 FFF7FEFF 		bl	HAL_DMA_Init
 605              	.LVL21:
 232:Core/Src/usart.c ****     {
 606              		.loc 1 232 8 discriminator 1 view .LVU224
 607 0196 58B9     		cbnz	r0, .L34
 608              	.L25:
 237:Core/Src/usart.c **** 
 609              		.loc 1 237 5 is_stmt 1 view .LVU225
 237:Core/Src/usart.c **** 
 610              		.loc 1 237 5 view .LVU226
 611 0198 444B     		ldr	r3, .L37+44
 612 019a E363     		str	r3, [r4, #60]
 237:Core/Src/usart.c **** 
 613              		.loc 1 237 5 view .LVU227
 614 019c 9C63     		str	r4, [r3, #56]
 237:Core/Src/usart.c **** 
 615              		.loc 1 237 5 view .LVU228
 240:Core/Src/usart.c ****     HAL_NVIC_EnableIRQ(USART3_IRQn);
 616              		.loc 1 240 5 view .LVU229
 617 019e 0022     		movs	r2, #0
 618 01a0 0621     		movs	r1, #6
 619 01a2 2720     		movs	r0, #39
 620 01a4 FFF7FEFF 		bl	HAL_NVIC_SetPriority
 621              	.LVL22:
 241:Core/Src/usart.c ****   /* USER CODE BEGIN USART3_MspInit 1 */
 622              		.loc 1 241 5 view .LVU230
 623 01a8 2720     		movs	r0, #39
 624 01aa FFF7FEFF 		bl	HAL_NVIC_EnableIRQ
 625              	.LVL23:
 626 01ae 3DE7     		b	.L19
 627              	.L34:
ARM GAS  C:\Users\Sive\AppData\Local\Temp\cc6tzqOi.s 			page 20


 234:Core/Src/usart.c ****     }
 628              		.loc 1 234 7 view .LVU231
 629 01b0 FFF7FEFF 		bl	Error_Handler
 630              	.LVL24:
 631 01b4 F0E7     		b	.L25
 632              	.LVL25:
 633              	.L31:
 252:Core/Src/usart.c **** 
 634              		.loc 1 252 5 view .LVU232
 635              	.LBB7:
 252:Core/Src/usart.c **** 
 636              		.loc 1 252 5 view .LVU233
 637 01b6 0025     		movs	r5, #0
 638 01b8 0595     		str	r5, [sp, #20]
 252:Core/Src/usart.c **** 
 639              		.loc 1 252 5 view .LVU234
 640 01ba 344B     		ldr	r3, .L37+12
 641 01bc 5A6C     		ldr	r2, [r3, #68]
 642 01be 42F02002 		orr	r2, r2, #32
 643 01c2 5A64     		str	r2, [r3, #68]
 252:Core/Src/usart.c **** 
 644              		.loc 1 252 5 view .LVU235
 645 01c4 5A6C     		ldr	r2, [r3, #68]
 646 01c6 02F02002 		and	r2, r2, #32
 647 01ca 0592     		str	r2, [sp, #20]
 252:Core/Src/usart.c **** 
 648              		.loc 1 252 5 view .LVU236
 649 01cc 059A     		ldr	r2, [sp, #20]
 650              	.LBE7:
 252:Core/Src/usart.c **** 
 651              		.loc 1 252 5 view .LVU237
 254:Core/Src/usart.c ****     /**USART6 GPIO Configuration
 652              		.loc 1 254 5 view .LVU238
 653              	.LBB8:
 254:Core/Src/usart.c ****     /**USART6 GPIO Configuration
 654              		.loc 1 254 5 view .LVU239
 655 01ce 0695     		str	r5, [sp, #24]
 254:Core/Src/usart.c ****     /**USART6 GPIO Configuration
 656              		.loc 1 254 5 view .LVU240
 657 01d0 1A6B     		ldr	r2, [r3, #48]
 658 01d2 42F04002 		orr	r2, r2, #64
 659 01d6 1A63     		str	r2, [r3, #48]
 254:Core/Src/usart.c ****     /**USART6 GPIO Configuration
 660              		.loc 1 254 5 view .LVU241
 661 01d8 1B6B     		ldr	r3, [r3, #48]
 662 01da 03F04003 		and	r3, r3, #64
 663 01de 0693     		str	r3, [sp, #24]
 254:Core/Src/usart.c ****     /**USART6 GPIO Configuration
 664              		.loc 1 254 5 view .LVU242
 665 01e0 069B     		ldr	r3, [sp, #24]
 666              	.LBE8:
 254:Core/Src/usart.c ****     /**USART6 GPIO Configuration
 667              		.loc 1 254 5 view .LVU243
 259:Core/Src/usart.c ****     GPIO_InitStruct.Mode = GPIO_MODE_AF_PP;
 668              		.loc 1 259 5 view .LVU244
 259:Core/Src/usart.c ****     GPIO_InitStruct.Mode = GPIO_MODE_AF_PP;
 669              		.loc 1 259 25 is_stmt 0 view .LVU245
ARM GAS  C:\Users\Sive\AppData\Local\Temp\cc6tzqOi.s 			page 21


 670 01e2 4FF48443 		mov	r3, #16896
 671 01e6 0793     		str	r3, [sp, #28]
 260:Core/Src/usart.c ****     GPIO_InitStruct.Pull = GPIO_NOPULL;
 672              		.loc 1 260 5 is_stmt 1 view .LVU246
 260:Core/Src/usart.c ****     GPIO_InitStruct.Pull = GPIO_NOPULL;
 673              		.loc 1 260 26 is_stmt 0 view .LVU247
 674 01e8 0223     		movs	r3, #2
 675 01ea 0893     		str	r3, [sp, #32]
 261:Core/Src/usart.c ****     GPIO_InitStruct.Speed = GPIO_SPEED_FREQ_VERY_HIGH;
 676              		.loc 1 261 5 is_stmt 1 view .LVU248
 262:Core/Src/usart.c ****     GPIO_InitStruct.Alternate = GPIO_AF8_USART6;
 677              		.loc 1 262 5 view .LVU249
 262:Core/Src/usart.c ****     GPIO_InitStruct.Alternate = GPIO_AF8_USART6;
 678              		.loc 1 262 27 is_stmt 0 view .LVU250
 679 01ec 0323     		movs	r3, #3
 680 01ee 0A93     		str	r3, [sp, #40]
 263:Core/Src/usart.c ****     HAL_GPIO_Init(GPIOG, &GPIO_InitStruct);
 681              		.loc 1 263 5 is_stmt 1 view .LVU251
 263:Core/Src/usart.c ****     HAL_GPIO_Init(GPIOG, &GPIO_InitStruct);
 682              		.loc 1 263 31 is_stmt 0 view .LVU252
 683 01f0 0823     		movs	r3, #8
 684 01f2 0B93     		str	r3, [sp, #44]
 264:Core/Src/usart.c **** 
 685              		.loc 1 264 5 is_stmt 1 view .LVU253
 686 01f4 07A9     		add	r1, sp, #28
 687 01f6 2F48     		ldr	r0, .L37+52
 688              	.LVL26:
 264:Core/Src/usart.c **** 
 689              		.loc 1 264 5 is_stmt 0 view .LVU254
 690 01f8 FFF7FEFF 		bl	HAL_GPIO_Init
 691              	.LVL27:
 268:Core/Src/usart.c ****     hdma_usart6_rx.Init.Channel = DMA_CHANNEL_5;
 692              		.loc 1 268 5 is_stmt 1 view .LVU255
 268:Core/Src/usart.c ****     hdma_usart6_rx.Init.Channel = DMA_CHANNEL_5;
 693              		.loc 1 268 29 is_stmt 0 view .LVU256
 694 01fc 2E48     		ldr	r0, .L37+56
 695 01fe 2F4B     		ldr	r3, .L37+60
 696 0200 0360     		str	r3, [r0]
 269:Core/Src/usart.c ****     hdma_usart6_rx.Init.Direction = DMA_PERIPH_TO_MEMORY;
 697              		.loc 1 269 5 is_stmt 1 view .LVU257
 269:Core/Src/usart.c ****     hdma_usart6_rx.Init.Direction = DMA_PERIPH_TO_MEMORY;
 698              		.loc 1 269 33 is_stmt 0 view .LVU258
 699 0202 4FF02063 		mov	r3, #167772160
 700 0206 4360     		str	r3, [r0, #4]
 270:Core/Src/usart.c ****     hdma_usart6_rx.Init.PeriphInc = DMA_PINC_DISABLE;
 701              		.loc 1 270 5 is_stmt 1 view .LVU259
 270:Core/Src/usart.c ****     hdma_usart6_rx.Init.PeriphInc = DMA_PINC_DISABLE;
 702              		.loc 1 270 35 is_stmt 0 view .LVU260
 703 0208 8560     		str	r5, [r0, #8]
 271:Core/Src/usart.c ****     hdma_usart6_rx.Init.MemInc = DMA_MINC_ENABLE;
 704              		.loc 1 271 5 is_stmt 1 view .LVU261
 271:Core/Src/usart.c ****     hdma_usart6_rx.Init.MemInc = DMA_MINC_ENABLE;
 705              		.loc 1 271 35 is_stmt 0 view .LVU262
 706 020a C560     		str	r5, [r0, #12]
 272:Core/Src/usart.c ****     hdma_usart6_rx.Init.PeriphDataAlignment = DMA_PDATAALIGN_BYTE;
 707              		.loc 1 272 5 is_stmt 1 view .LVU263
 272:Core/Src/usart.c ****     hdma_usart6_rx.Init.PeriphDataAlignment = DMA_PDATAALIGN_BYTE;
ARM GAS  C:\Users\Sive\AppData\Local\Temp\cc6tzqOi.s 			page 22


 708              		.loc 1 272 32 is_stmt 0 view .LVU264
 709 020c 4FF48063 		mov	r3, #1024
 710 0210 0361     		str	r3, [r0, #16]
 273:Core/Src/usart.c ****     hdma_usart6_rx.Init.MemDataAlignment = DMA_MDATAALIGN_BYTE;
 711              		.loc 1 273 5 is_stmt 1 view .LVU265
 273:Core/Src/usart.c ****     hdma_usart6_rx.Init.MemDataAlignment = DMA_MDATAALIGN_BYTE;
 712              		.loc 1 273 45 is_stmt 0 view .LVU266
 713 0212 4561     		str	r5, [r0, #20]
 274:Core/Src/usart.c ****     hdma_usart6_rx.Init.Mode = DMA_NORMAL;
 714              		.loc 1 274 5 is_stmt 1 view .LVU267
 274:Core/Src/usart.c ****     hdma_usart6_rx.Init.Mode = DMA_NORMAL;
 715              		.loc 1 274 42 is_stmt 0 view .LVU268
 716 0214 8561     		str	r5, [r0, #24]
 275:Core/Src/usart.c ****     hdma_usart6_rx.Init.Priority = DMA_PRIORITY_HIGH;
 717              		.loc 1 275 5 is_stmt 1 view .LVU269
 275:Core/Src/usart.c ****     hdma_usart6_rx.Init.Priority = DMA_PRIORITY_HIGH;
 718              		.loc 1 275 30 is_stmt 0 view .LVU270
 719 0216 C561     		str	r5, [r0, #28]
 276:Core/Src/usart.c ****     hdma_usart6_rx.Init.FIFOMode = DMA_FIFOMODE_DISABLE;
 720              		.loc 1 276 5 is_stmt 1 view .LVU271
 276:Core/Src/usart.c ****     hdma_usart6_rx.Init.FIFOMode = DMA_FIFOMODE_DISABLE;
 721              		.loc 1 276 34 is_stmt 0 view .LVU272
 722 0218 4FF40033 		mov	r3, #131072
 723 021c 0362     		str	r3, [r0, #32]
 277:Core/Src/usart.c ****     if (HAL_DMA_Init(&hdma_usart6_rx) != HAL_OK)
 724              		.loc 1 277 5 is_stmt 1 view .LVU273
 277:Core/Src/usart.c ****     if (HAL_DMA_Init(&hdma_usart6_rx) != HAL_OK)
 725              		.loc 1 277 34 is_stmt 0 view .LVU274
 726 021e 4562     		str	r5, [r0, #36]
 278:Core/Src/usart.c ****     {
 727              		.loc 1 278 5 is_stmt 1 view .LVU275
 278:Core/Src/usart.c ****     {
 728              		.loc 1 278 9 is_stmt 0 view .LVU276
 729 0220 FFF7FEFF 		bl	HAL_DMA_Init
 730              	.LVL28:
 278:Core/Src/usart.c ****     {
 731              		.loc 1 278 8 discriminator 1 view .LVU277
 732 0224 28BB     		cbnz	r0, .L35
 733              	.L26:
 283:Core/Src/usart.c **** 
 734              		.loc 1 283 5 is_stmt 1 view .LVU278
 283:Core/Src/usart.c **** 
 735              		.loc 1 283 5 view .LVU279
 736 0226 244B     		ldr	r3, .L37+56
 737 0228 E363     		str	r3, [r4, #60]
 283:Core/Src/usart.c **** 
 738              		.loc 1 283 5 view .LVU280
 739 022a 9C63     		str	r4, [r3, #56]
 283:Core/Src/usart.c **** 
 740              		.loc 1 283 5 view .LVU281
 286:Core/Src/usart.c ****     hdma_usart6_tx.Init.Channel = DMA_CHANNEL_5;
 741              		.loc 1 286 5 view .LVU282
 286:Core/Src/usart.c ****     hdma_usart6_tx.Init.Channel = DMA_CHANNEL_5;
 742              		.loc 1 286 29 is_stmt 0 view .LVU283
 743 022c 2448     		ldr	r0, .L37+64
 744 022e 254B     		ldr	r3, .L37+68
 745 0230 0360     		str	r3, [r0]
ARM GAS  C:\Users\Sive\AppData\Local\Temp\cc6tzqOi.s 			page 23


 287:Core/Src/usart.c ****     hdma_usart6_tx.Init.Direction = DMA_MEMORY_TO_PERIPH;
 746              		.loc 1 287 5 is_stmt 1 view .LVU284
 287:Core/Src/usart.c ****     hdma_usart6_tx.Init.Direction = DMA_MEMORY_TO_PERIPH;
 747              		.loc 1 287 33 is_stmt 0 view .LVU285
 748 0232 4FF02063 		mov	r3, #167772160
 749 0236 4360     		str	r3, [r0, #4]
 288:Core/Src/usart.c ****     hdma_usart6_tx.Init.PeriphInc = DMA_PINC_DISABLE;
 750              		.loc 1 288 5 is_stmt 1 view .LVU286
 288:Core/Src/usart.c ****     hdma_usart6_tx.Init.PeriphInc = DMA_PINC_DISABLE;
 751              		.loc 1 288 35 is_stmt 0 view .LVU287
 752 0238 4023     		movs	r3, #64
 753 023a 8360     		str	r3, [r0, #8]
 289:Core/Src/usart.c ****     hdma_usart6_tx.Init.MemInc = DMA_MINC_ENABLE;
 754              		.loc 1 289 5 is_stmt 1 view .LVU288
 289:Core/Src/usart.c ****     hdma_usart6_tx.Init.MemInc = DMA_MINC_ENABLE;
 755              		.loc 1 289 35 is_stmt 0 view .LVU289
 756 023c 0023     		movs	r3, #0
 757 023e C360     		str	r3, [r0, #12]
 290:Core/Src/usart.c ****     hdma_usart6_tx.Init.PeriphDataAlignment = DMA_PDATAALIGN_BYTE;
 758              		.loc 1 290 5 is_stmt 1 view .LVU290
 290:Core/Src/usart.c ****     hdma_usart6_tx.Init.PeriphDataAlignment = DMA_PDATAALIGN_BYTE;
 759              		.loc 1 290 32 is_stmt 0 view .LVU291
 760 0240 4FF48062 		mov	r2, #1024
 761 0244 0261     		str	r2, [r0, #16]
 291:Core/Src/usart.c ****     hdma_usart6_tx.Init.MemDataAlignment = DMA_MDATAALIGN_BYTE;
 762              		.loc 1 291 5 is_stmt 1 view .LVU292
 291:Core/Src/usart.c ****     hdma_usart6_tx.Init.MemDataAlignment = DMA_MDATAALIGN_BYTE;
 763              		.loc 1 291 45 is_stmt 0 view .LVU293
 764 0246 4361     		str	r3, [r0, #20]
 292:Core/Src/usart.c ****     hdma_usart6_tx.Init.Mode = DMA_NORMAL;
 765              		.loc 1 292 5 is_stmt 1 view .LVU294
 292:Core/Src/usart.c ****     hdma_usart6_tx.Init.Mode = DMA_NORMAL;
 766              		.loc 1 292 42 is_stmt 0 view .LVU295
 767 0248 8361     		str	r3, [r0, #24]
 293:Core/Src/usart.c ****     hdma_usart6_tx.Init.Priority = DMA_PRIORITY_HIGH;
 768              		.loc 1 293 5 is_stmt 1 view .LVU296
 293:Core/Src/usart.c ****     hdma_usart6_tx.Init.Priority = DMA_PRIORITY_HIGH;
 769              		.loc 1 293 30 is_stmt 0 view .LVU297
 770 024a C361     		str	r3, [r0, #28]
 294:Core/Src/usart.c ****     hdma_usart6_tx.Init.FIFOMode = DMA_FIFOMODE_DISABLE;
 771              		.loc 1 294 5 is_stmt 1 view .LVU298
 294:Core/Src/usart.c ****     hdma_usart6_tx.Init.FIFOMode = DMA_FIFOMODE_DISABLE;
 772              		.loc 1 294 34 is_stmt 0 view .LVU299
 773 024c 4FF40032 		mov	r2, #131072
 774 0250 0262     		str	r2, [r0, #32]
 295:Core/Src/usart.c ****     if (HAL_DMA_Init(&hdma_usart6_tx) != HAL_OK)
 775              		.loc 1 295 5 is_stmt 1 view .LVU300
 295:Core/Src/usart.c ****     if (HAL_DMA_Init(&hdma_usart6_tx) != HAL_OK)
 776              		.loc 1 295 34 is_stmt 0 view .LVU301
 777 0252 4362     		str	r3, [r0, #36]
 296:Core/Src/usart.c ****     {
 778              		.loc 1 296 5 is_stmt 1 view .LVU302
 296:Core/Src/usart.c ****     {
 779              		.loc 1 296 9 is_stmt 0 view .LVU303
 780 0254 FFF7FEFF 		bl	HAL_DMA_Init
 781              	.LVL29:
 296:Core/Src/usart.c ****     {
ARM GAS  C:\Users\Sive\AppData\Local\Temp\cc6tzqOi.s 			page 24


 782              		.loc 1 296 8 discriminator 1 view .LVU304
 783 0258 70B9     		cbnz	r0, .L36
 784              	.L27:
 301:Core/Src/usart.c **** 
 785              		.loc 1 301 5 is_stmt 1 view .LVU305
 301:Core/Src/usart.c **** 
 786              		.loc 1 301 5 view .LVU306
 787 025a 194B     		ldr	r3, .L37+64
 788 025c A363     		str	r3, [r4, #56]
 301:Core/Src/usart.c **** 
 789              		.loc 1 301 5 view .LVU307
 790 025e 9C63     		str	r4, [r3, #56]
 301:Core/Src/usart.c **** 
 791              		.loc 1 301 5 view .LVU308
 304:Core/Src/usart.c ****     HAL_NVIC_EnableIRQ(USART6_IRQn);
 792              		.loc 1 304 5 view .LVU309
 793 0260 0022     		movs	r2, #0
 794 0262 0521     		movs	r1, #5
 795 0264 4720     		movs	r0, #71
 796 0266 FFF7FEFF 		bl	HAL_NVIC_SetPriority
 797              	.LVL30:
 305:Core/Src/usart.c ****   /* USER CODE BEGIN USART6_MspInit 1 */
 798              		.loc 1 305 5 view .LVU310
 799 026a 4720     		movs	r0, #71
 800 026c FFF7FEFF 		bl	HAL_NVIC_EnableIRQ
 801              	.LVL31:
 802              		.loc 1 310 1 is_stmt 0 view .LVU311
 803 0270 DCE6     		b	.L19
 804              	.L35:
 280:Core/Src/usart.c ****     }
 805              		.loc 1 280 7 is_stmt 1 view .LVU312
 806 0272 FFF7FEFF 		bl	Error_Handler
 807              	.LVL32:
 808 0276 D6E7     		b	.L26
 809              	.L36:
 298:Core/Src/usart.c ****     }
 810              		.loc 1 298 7 view .LVU313
 811 0278 FFF7FEFF 		bl	Error_Handler
 812              	.LVL33:
 813 027c EDE7     		b	.L27
 814              	.L38:
 815 027e 00BF     		.align	2
 816              	.L37:
 817 0280 00100140 		.word	1073811456
 818 0284 00480040 		.word	1073760256
 819 0288 00140140 		.word	1073812480
 820 028c 00380240 		.word	1073887232
 821 0290 00040240 		.word	1073873920
 822 0294 00000240 		.word	1073872896
 823 0298 00000000 		.word	hdma_usart1_tx
 824 029c B8640240 		.word	1073898680
 825 02a0 00000000 		.word	hdma_usart1_rx
 826 02a4 88640240 		.word	1073898632
 827 02a8 00080240 		.word	1073874944
 828 02ac 00000000 		.word	hdma_usart3_rx
 829 02b0 28600240 		.word	1073897512
 830 02b4 00180240 		.word	1073879040
ARM GAS  C:\Users\Sive\AppData\Local\Temp\cc6tzqOi.s 			page 25


 831 02b8 00000000 		.word	hdma_usart6_rx
 832 02bc 28640240 		.word	1073898536
 833 02c0 00000000 		.word	hdma_usart6_tx
 834 02c4 A0640240 		.word	1073898656
 835              		.cfi_endproc
 836              	.LFE137:
 838              		.section	.text.HAL_UART_MspDeInit,"ax",%progbits
 839              		.align	1
 840              		.global	HAL_UART_MspDeInit
 841              		.syntax unified
 842              		.thumb
 843              		.thumb_func
 845              	HAL_UART_MspDeInit:
 846              	.LVL34:
 847              	.LFB138:
 311:Core/Src/usart.c **** 
 312:Core/Src/usart.c **** void HAL_UART_MspDeInit(UART_HandleTypeDef* uartHandle)
 313:Core/Src/usart.c **** {
 848              		.loc 1 313 1 view -0
 849              		.cfi_startproc
 850              		@ args = 0, pretend = 0, frame = 0
 851              		@ frame_needed = 0, uses_anonymous_args = 0
 852              		.loc 1 313 1 is_stmt 0 view .LVU315
 853 0000 10B5     		push	{r4, lr}
 854              		.cfi_def_cfa_offset 8
 855              		.cfi_offset 4, -8
 856              		.cfi_offset 14, -4
 857 0002 0446     		mov	r4, r0
 314:Core/Src/usart.c **** 
 315:Core/Src/usart.c ****   if(uartHandle->Instance==USART1)
 858              		.loc 1 315 3 is_stmt 1 view .LVU316
 859              		.loc 1 315 16 is_stmt 0 view .LVU317
 860 0004 0368     		ldr	r3, [r0]
 861              		.loc 1 315 5 view .LVU318
 862 0006 254A     		ldr	r2, .L47
 863 0008 9342     		cmp	r3, r2
 864 000a 06D0     		beq	.L44
 316:Core/Src/usart.c ****   {
 317:Core/Src/usart.c ****   /* USER CODE BEGIN USART1_MspDeInit 0 */
 318:Core/Src/usart.c **** 
 319:Core/Src/usart.c ****   /* USER CODE END USART1_MspDeInit 0 */
 320:Core/Src/usart.c ****     /* Peripheral clock disable */
 321:Core/Src/usart.c ****     __HAL_RCC_USART1_CLK_DISABLE();
 322:Core/Src/usart.c **** 
 323:Core/Src/usart.c ****     /**USART1 GPIO Configuration
 324:Core/Src/usart.c ****     PB7     ------> USART1_RX
 325:Core/Src/usart.c ****     PA9     ------> USART1_TX
 326:Core/Src/usart.c ****     */
 327:Core/Src/usart.c ****     HAL_GPIO_DeInit(GPIOB, GPIO_PIN_7);
 328:Core/Src/usart.c **** 
 329:Core/Src/usart.c ****     HAL_GPIO_DeInit(GPIOA, GPIO_PIN_9);
 330:Core/Src/usart.c **** 
 331:Core/Src/usart.c ****     /* USART1 DMA DeInit */
 332:Core/Src/usart.c ****     HAL_DMA_DeInit(uartHandle->hdmatx);
 333:Core/Src/usart.c ****     HAL_DMA_DeInit(uartHandle->hdmarx);
 334:Core/Src/usart.c **** 
 335:Core/Src/usart.c ****     /* USART1 interrupt Deinit */
ARM GAS  C:\Users\Sive\AppData\Local\Temp\cc6tzqOi.s 			page 26


 336:Core/Src/usart.c ****     HAL_NVIC_DisableIRQ(USART1_IRQn);
 337:Core/Src/usart.c ****   /* USER CODE BEGIN USART1_MspDeInit 1 */
 338:Core/Src/usart.c **** 
 339:Core/Src/usart.c ****   /* USER CODE END USART1_MspDeInit 1 */
 340:Core/Src/usart.c ****   }
 341:Core/Src/usart.c ****   else if(uartHandle->Instance==USART3)
 865              		.loc 1 341 8 is_stmt 1 view .LVU319
 866              		.loc 1 341 10 is_stmt 0 view .LVU320
 867 000c 244A     		ldr	r2, .L47+4
 868 000e 9342     		cmp	r3, r2
 869 0010 1CD0     		beq	.L45
 342:Core/Src/usart.c ****   {
 343:Core/Src/usart.c ****   /* USER CODE BEGIN USART3_MspDeInit 0 */
 344:Core/Src/usart.c **** 
 345:Core/Src/usart.c ****   /* USER CODE END USART3_MspDeInit 0 */
 346:Core/Src/usart.c ****     /* Peripheral clock disable */
 347:Core/Src/usart.c ****     __HAL_RCC_USART3_CLK_DISABLE();
 348:Core/Src/usart.c **** 
 349:Core/Src/usart.c ****     /**USART3 GPIO Configuration
 350:Core/Src/usart.c ****     PC11     ------> USART3_RX
 351:Core/Src/usart.c ****     PC10     ------> USART3_TX
 352:Core/Src/usart.c ****     */
 353:Core/Src/usart.c ****     HAL_GPIO_DeInit(GPIOC, GPIO_PIN_11|GPIO_PIN_10);
 354:Core/Src/usart.c **** 
 355:Core/Src/usart.c ****     /* USART3 DMA DeInit */
 356:Core/Src/usart.c ****     HAL_DMA_DeInit(uartHandle->hdmarx);
 357:Core/Src/usart.c **** 
 358:Core/Src/usart.c ****     /* USART3 interrupt Deinit */
 359:Core/Src/usart.c ****     HAL_NVIC_DisableIRQ(USART3_IRQn);
 360:Core/Src/usart.c ****   /* USER CODE BEGIN USART3_MspDeInit 1 */
 361:Core/Src/usart.c **** 
 362:Core/Src/usart.c ****   /* USER CODE END USART3_MspDeInit 1 */
 363:Core/Src/usart.c ****   }
 364:Core/Src/usart.c ****   else if(uartHandle->Instance==USART6)
 870              		.loc 1 364 8 is_stmt 1 view .LVU321
 871              		.loc 1 364 10 is_stmt 0 view .LVU322
 872 0012 244A     		ldr	r2, .L47+8
 873 0014 9342     		cmp	r3, r2
 874 0016 2BD0     		beq	.L46
 875              	.LVL35:
 876              	.L39:
 365:Core/Src/usart.c ****   {
 366:Core/Src/usart.c ****   /* USER CODE BEGIN USART6_MspDeInit 0 */
 367:Core/Src/usart.c **** 
 368:Core/Src/usart.c ****   /* USER CODE END USART6_MspDeInit 0 */
 369:Core/Src/usart.c ****     /* Peripheral clock disable */
 370:Core/Src/usart.c ****     __HAL_RCC_USART6_CLK_DISABLE();
 371:Core/Src/usart.c **** 
 372:Core/Src/usart.c ****     /**USART6 GPIO Configuration
 373:Core/Src/usart.c ****     PG14     ------> USART6_TX
 374:Core/Src/usart.c ****     PG9     ------> USART6_RX
 375:Core/Src/usart.c ****     */
 376:Core/Src/usart.c ****     HAL_GPIO_DeInit(GPIOG, GPIO_PIN_14|GPIO_PIN_9);
 377:Core/Src/usart.c **** 
 378:Core/Src/usart.c ****     /* USART6 DMA DeInit */
 379:Core/Src/usart.c ****     HAL_DMA_DeInit(uartHandle->hdmarx);
 380:Core/Src/usart.c ****     HAL_DMA_DeInit(uartHandle->hdmatx);
ARM GAS  C:\Users\Sive\AppData\Local\Temp\cc6tzqOi.s 			page 27


 381:Core/Src/usart.c **** 
 382:Core/Src/usart.c ****     /* USART6 interrupt Deinit */
 383:Core/Src/usart.c ****     HAL_NVIC_DisableIRQ(USART6_IRQn);
 384:Core/Src/usart.c ****   /* USER CODE BEGIN USART6_MspDeInit 1 */
 385:Core/Src/usart.c **** 
 386:Core/Src/usart.c ****   /* USER CODE END USART6_MspDeInit 1 */
 387:Core/Src/usart.c ****   }
 388:Core/Src/usart.c **** }
 877              		.loc 1 388 1 view .LVU323
 878 0018 10BD     		pop	{r4, pc}
 879              	.LVL36:
 880              	.L44:
 321:Core/Src/usart.c **** 
 881              		.loc 1 321 5 is_stmt 1 view .LVU324
 882 001a 02F59432 		add	r2, r2, #75776
 883 001e 536C     		ldr	r3, [r2, #68]
 884 0020 23F01003 		bic	r3, r3, #16
 885 0024 5364     		str	r3, [r2, #68]
 327:Core/Src/usart.c **** 
 886              		.loc 1 327 5 view .LVU325
 887 0026 8021     		movs	r1, #128
 888 0028 1F48     		ldr	r0, .L47+12
 889              	.LVL37:
 327:Core/Src/usart.c **** 
 890              		.loc 1 327 5 is_stmt 0 view .LVU326
 891 002a FFF7FEFF 		bl	HAL_GPIO_DeInit
 892              	.LVL38:
 329:Core/Src/usart.c **** 
 893              		.loc 1 329 5 is_stmt 1 view .LVU327
 894 002e 4FF40071 		mov	r1, #512
 895 0032 1E48     		ldr	r0, .L47+16
 896 0034 FFF7FEFF 		bl	HAL_GPIO_DeInit
 897              	.LVL39:
 332:Core/Src/usart.c ****     HAL_DMA_DeInit(uartHandle->hdmarx);
 898              		.loc 1 332 5 view .LVU328
 899 0038 A06B     		ldr	r0, [r4, #56]
 900 003a FFF7FEFF 		bl	HAL_DMA_DeInit
 901              	.LVL40:
 333:Core/Src/usart.c **** 
 902              		.loc 1 333 5 view .LVU329
 903 003e E06B     		ldr	r0, [r4, #60]
 904 0040 FFF7FEFF 		bl	HAL_DMA_DeInit
 905              	.LVL41:
 336:Core/Src/usart.c ****   /* USER CODE BEGIN USART1_MspDeInit 1 */
 906              		.loc 1 336 5 view .LVU330
 907 0044 2520     		movs	r0, #37
 908 0046 FFF7FEFF 		bl	HAL_NVIC_DisableIRQ
 909              	.LVL42:
 910 004a E5E7     		b	.L39
 911              	.LVL43:
 912              	.L45:
 347:Core/Src/usart.c **** 
 913              		.loc 1 347 5 view .LVU331
 914 004c 02F5F832 		add	r2, r2, #126976
 915 0050 136C     		ldr	r3, [r2, #64]
 916 0052 23F48023 		bic	r3, r3, #262144
 917 0056 1364     		str	r3, [r2, #64]
ARM GAS  C:\Users\Sive\AppData\Local\Temp\cc6tzqOi.s 			page 28


 353:Core/Src/usart.c **** 
 918              		.loc 1 353 5 view .LVU332
 919 0058 4FF44061 		mov	r1, #3072
 920 005c 1448     		ldr	r0, .L47+20
 921              	.LVL44:
 353:Core/Src/usart.c **** 
 922              		.loc 1 353 5 is_stmt 0 view .LVU333
 923 005e FFF7FEFF 		bl	HAL_GPIO_DeInit
 924              	.LVL45:
 356:Core/Src/usart.c **** 
 925              		.loc 1 356 5 is_stmt 1 view .LVU334
 926 0062 E06B     		ldr	r0, [r4, #60]
 927 0064 FFF7FEFF 		bl	HAL_DMA_DeInit
 928              	.LVL46:
 359:Core/Src/usart.c ****   /* USER CODE BEGIN USART3_MspDeInit 1 */
 929              		.loc 1 359 5 view .LVU335
 930 0068 2720     		movs	r0, #39
 931 006a FFF7FEFF 		bl	HAL_NVIC_DisableIRQ
 932              	.LVL47:
 933 006e D3E7     		b	.L39
 934              	.LVL48:
 935              	.L46:
 370:Core/Src/usart.c **** 
 936              		.loc 1 370 5 view .LVU336
 937 0070 02F59232 		add	r2, r2, #74752
 938 0074 536C     		ldr	r3, [r2, #68]
 939 0076 23F02003 		bic	r3, r3, #32
 940 007a 5364     		str	r3, [r2, #68]
 376:Core/Src/usart.c **** 
 941              		.loc 1 376 5 view .LVU337
 942 007c 4FF48441 		mov	r1, #16896
 943 0080 0C48     		ldr	r0, .L47+24
 944              	.LVL49:
 376:Core/Src/usart.c **** 
 945              		.loc 1 376 5 is_stmt 0 view .LVU338
 946 0082 FFF7FEFF 		bl	HAL_GPIO_DeInit
 947              	.LVL50:
 379:Core/Src/usart.c ****     HAL_DMA_DeInit(uartHandle->hdmatx);
 948              		.loc 1 379 5 is_stmt 1 view .LVU339
 949 0086 E06B     		ldr	r0, [r4, #60]
 950 0088 FFF7FEFF 		bl	HAL_DMA_DeInit
 951              	.LVL51:
 380:Core/Src/usart.c **** 
 952              		.loc 1 380 5 view .LVU340
 953 008c A06B     		ldr	r0, [r4, #56]
 954 008e FFF7FEFF 		bl	HAL_DMA_DeInit
 955              	.LVL52:
 383:Core/Src/usart.c ****   /* USER CODE BEGIN USART6_MspDeInit 1 */
 956              		.loc 1 383 5 view .LVU341
 957 0092 4720     		movs	r0, #71
 958 0094 FFF7FEFF 		bl	HAL_NVIC_DisableIRQ
 959              	.LVL53:
 960              		.loc 1 388 1 is_stmt 0 view .LVU342
 961 0098 BEE7     		b	.L39
 962              	.L48:
 963 009a 00BF     		.align	2
 964              	.L47:
ARM GAS  C:\Users\Sive\AppData\Local\Temp\cc6tzqOi.s 			page 29


 965 009c 00100140 		.word	1073811456
 966 00a0 00480040 		.word	1073760256
 967 00a4 00140140 		.word	1073812480
 968 00a8 00040240 		.word	1073873920
 969 00ac 00000240 		.word	1073872896
 970 00b0 00080240 		.word	1073874944
 971 00b4 00180240 		.word	1073879040
 972              		.cfi_endproc
 973              	.LFE138:
 975              		.global	hdma_usart6_tx
 976              		.section	.bss.hdma_usart6_tx,"aw",%nobits
 977              		.align	2
 980              	hdma_usart6_tx:
 981 0000 00000000 		.space	96
 981      00000000 
 981      00000000 
 981      00000000 
 981      00000000 
 982              		.global	hdma_usart6_rx
 983              		.section	.bss.hdma_usart6_rx,"aw",%nobits
 984              		.align	2
 987              	hdma_usart6_rx:
 988 0000 00000000 		.space	96
 988      00000000 
 988      00000000 
 988      00000000 
 988      00000000 
 989              		.global	hdma_usart3_rx
 990              		.section	.bss.hdma_usart3_rx,"aw",%nobits
 991              		.align	2
 994              	hdma_usart3_rx:
 995 0000 00000000 		.space	96
 995      00000000 
 995      00000000 
 995      00000000 
 995      00000000 
 996              		.global	hdma_usart1_rx
 997              		.section	.bss.hdma_usart1_rx,"aw",%nobits
 998              		.align	2
 1001              	hdma_usart1_rx:
 1002 0000 00000000 		.space	96
 1002      00000000 
 1002      00000000 
 1002      00000000 
 1002      00000000 
 1003              		.global	hdma_usart1_tx
 1004              		.section	.bss.hdma_usart1_tx,"aw",%nobits
 1005              		.align	2
 1008              	hdma_usart1_tx:
 1009 0000 00000000 		.space	96
 1009      00000000 
 1009      00000000 
 1009      00000000 
 1009      00000000 
 1010              		.global	huart6
 1011              		.section	.bss.huart6,"aw",%nobits
 1012              		.align	2
ARM GAS  C:\Users\Sive\AppData\Local\Temp\cc6tzqOi.s 			page 30


 1015              	huart6:
 1016 0000 00000000 		.space	72
 1016      00000000 
 1016      00000000 
 1016      00000000 
 1016      00000000 
 1017              		.global	huart3
 1018              		.section	.bss.huart3,"aw",%nobits
 1019              		.align	2
 1022              	huart3:
 1023 0000 00000000 		.space	72
 1023      00000000 
 1023      00000000 
 1023      00000000 
 1023      00000000 
 1024              		.global	huart1
 1025              		.section	.bss.huart1,"aw",%nobits
 1026              		.align	2
 1029              	huart1:
 1030 0000 00000000 		.space	72
 1030      00000000 
 1030      00000000 
 1030      00000000 
 1030      00000000 
 1031              		.text
 1032              	.Letext0:
 1033              		.file 2 "Drivers/CMSIS/Device/ST/STM32F4xx/Include/stm32f407xx.h"
 1034              		.file 3 "C:/Users/Sive/AppData/Roaming/Code/User/globalStorage/bmd.stm32-for-vscode/@xpack-dev-too
 1035              		.file 4 "C:/Users/Sive/AppData/Roaming/Code/User/globalStorage/bmd.stm32-for-vscode/@xpack-dev-too
 1036              		.file 5 "Drivers/STM32F4xx_HAL_Driver/Inc/stm32f4xx_hal_def.h"
 1037              		.file 6 "Drivers/STM32F4xx_HAL_Driver/Inc/stm32f4xx_hal_gpio.h"
 1038              		.file 7 "Drivers/STM32F4xx_HAL_Driver/Inc/stm32f4xx_hal_dma.h"
 1039              		.file 8 "Drivers/STM32F4xx_HAL_Driver/Inc/stm32f4xx_hal_uart.h"
 1040              		.file 9 "Core/Inc/usart.h"
 1041              		.file 10 "Drivers/STM32F4xx_HAL_Driver/Inc/stm32f4xx_hal_cortex.h"
 1042              		.file 11 "Core/Inc/main.h"
ARM GAS  C:\Users\Sive\AppData\Local\Temp\cc6tzqOi.s 			page 31


DEFINED SYMBOLS
                            *ABS*:00000000 usart.c
C:\Users\Sive\AppData\Local\Temp\cc6tzqOi.s:21     .text.MX_USART1_UART_Init:00000000 $t
C:\Users\Sive\AppData\Local\Temp\cc6tzqOi.s:27     .text.MX_USART1_UART_Init:00000000 MX_USART1_UART_Init
C:\Users\Sive\AppData\Local\Temp\cc6tzqOi.s:84     .text.MX_USART1_UART_Init:0000002c $d
C:\Users\Sive\AppData\Local\Temp\cc6tzqOi.s:1029   .bss.huart1:00000000 huart1
C:\Users\Sive\AppData\Local\Temp\cc6tzqOi.s:90     .text.MX_USART3_UART_Init:00000000 $t
C:\Users\Sive\AppData\Local\Temp\cc6tzqOi.s:96     .text.MX_USART3_UART_Init:00000000 MX_USART3_UART_Init
C:\Users\Sive\AppData\Local\Temp\cc6tzqOi.s:154    .text.MX_USART3_UART_Init:00000030 $d
C:\Users\Sive\AppData\Local\Temp\cc6tzqOi.s:1022   .bss.huart3:00000000 huart3
C:\Users\Sive\AppData\Local\Temp\cc6tzqOi.s:161    .text.MX_USART6_UART_Init:00000000 $t
C:\Users\Sive\AppData\Local\Temp\cc6tzqOi.s:167    .text.MX_USART6_UART_Init:00000000 MX_USART6_UART_Init
C:\Users\Sive\AppData\Local\Temp\cc6tzqOi.s:224    .text.MX_USART6_UART_Init:0000002c $d
C:\Users\Sive\AppData\Local\Temp\cc6tzqOi.s:1015   .bss.huart6:00000000 huart6
C:\Users\Sive\AppData\Local\Temp\cc6tzqOi.s:230    .text.HAL_UART_MspInit:00000000 $t
C:\Users\Sive\AppData\Local\Temp\cc6tzqOi.s:236    .text.HAL_UART_MspInit:00000000 HAL_UART_MspInit
C:\Users\Sive\AppData\Local\Temp\cc6tzqOi.s:817    .text.HAL_UART_MspInit:00000280 $d
C:\Users\Sive\AppData\Local\Temp\cc6tzqOi.s:1008   .bss.hdma_usart1_tx:00000000 hdma_usart1_tx
C:\Users\Sive\AppData\Local\Temp\cc6tzqOi.s:1001   .bss.hdma_usart1_rx:00000000 hdma_usart1_rx
C:\Users\Sive\AppData\Local\Temp\cc6tzqOi.s:994    .bss.hdma_usart3_rx:00000000 hdma_usart3_rx
C:\Users\Sive\AppData\Local\Temp\cc6tzqOi.s:987    .bss.hdma_usart6_rx:00000000 hdma_usart6_rx
C:\Users\Sive\AppData\Local\Temp\cc6tzqOi.s:980    .bss.hdma_usart6_tx:00000000 hdma_usart6_tx
C:\Users\Sive\AppData\Local\Temp\cc6tzqOi.s:839    .text.HAL_UART_MspDeInit:00000000 $t
C:\Users\Sive\AppData\Local\Temp\cc6tzqOi.s:845    .text.HAL_UART_MspDeInit:00000000 HAL_UART_MspDeInit
C:\Users\Sive\AppData\Local\Temp\cc6tzqOi.s:965    .text.HAL_UART_MspDeInit:0000009c $d
C:\Users\Sive\AppData\Local\Temp\cc6tzqOi.s:977    .bss.hdma_usart6_tx:00000000 $d
C:\Users\Sive\AppData\Local\Temp\cc6tzqOi.s:984    .bss.hdma_usart6_rx:00000000 $d
C:\Users\Sive\AppData\Local\Temp\cc6tzqOi.s:991    .bss.hdma_usart3_rx:00000000 $d
C:\Users\Sive\AppData\Local\Temp\cc6tzqOi.s:998    .bss.hdma_usart1_rx:00000000 $d
C:\Users\Sive\AppData\Local\Temp\cc6tzqOi.s:1005   .bss.hdma_usart1_tx:00000000 $d
C:\Users\Sive\AppData\Local\Temp\cc6tzqOi.s:1012   .bss.huart6:00000000 $d
C:\Users\Sive\AppData\Local\Temp\cc6tzqOi.s:1019   .bss.huart3:00000000 $d
C:\Users\Sive\AppData\Local\Temp\cc6tzqOi.s:1026   .bss.huart1:00000000 $d

UNDEFINED SYMBOLS
HAL_UART_Init
Error_Handler
HAL_GPIO_Init
HAL_DMA_Init
HAL_NVIC_SetPriority
HAL_NVIC_EnableIRQ
HAL_GPIO_DeInit
HAL_DMA_DeInit
HAL_NVIC_DisableIRQ
